(dp0
S'snap_aim__secondaryAxis__setting'
p1
I4
sS'ka_attrTool_displayInputs'
p2
I00
sS'hyperShade_graphInputs__depthLimit__setting'
p3
I2
sS'snap_aim__primaryAxis__setting'
p4
I0
sS'ka_attrTool_displayAliasNames'
p5
I01
sS'constrain_surfaceConstraint__maintainOffset__setting'
p6
I00
sS'attrTool_expandedItems'
p7
(dp8
VpointConstraint.target
p9
I01
sVjoint.jointOrient
p10
I01
sVvectorProduct.input1
p11
I01
sVpointConstraint.target[1]
p12
I01
sVanimCurveUU.keyTimeValue
p13
I01
sVplusMinusAverage.input3D
p14
I01
sVtransform.rotatePivotTranslate
p15
I01
sVcondition.outColor
p16
I01
sVaimConstraint.upVector
p17
I01
sVparentConstraint.target[0]
p18
I01
sVtransform.rotatePivot
p19
I01
sVparentConstraint.constraintTranslate
p20
I01
sVorientConstraint.target[0].targetJointOrient
p21
I01
sVorientConstraint.target[1]
p22
I01
sVorientConstraint.target
p23
I01
sVmultiplyDivide.output
p24
I01
sVplusMinusAverage.output3D
p25
I01
sVjoint.rotate
p26
I01
sVjoint.worldMatrix
p27
I01
sVblendColors.color1
p28
I01
sVcondition.colorIfFalse
p29
I01
sVblendColors.color2
p30
I01
sVtransform.translate
p31
I01
sVcondition.colorIfTrue
p32
I01
sVaimConstraint.worldUpVector
p33
I01
sVvectorProduct.input2
p34
I01
sVplusMinusAverage.input2D
p35
I01
sVplusMinusAverage.input1D
p36
I01
sVpointConstraint.target[0]
p37
I01
sVtransform.scale
p38
I01
sVblendColors.output
p39
I01
sVorientConstraint.target[1].targetRotate
p40
I01
sVmultiplyDivide.input2
p41
I01
sVparentConstraint.target
p42
I01
sVorientConstraint.target[0].targetRotate
p43
I01
sVmultiplyDivide.input1
p44
I01
sVblendShape.weight
p45
I01
sVorientConstraint.target[0]
p46
I01
sVtransform.drawOverride
p47
I01
sVjoint.parentInverseMatrix
p48
I01
sVplusMinusAverage.output2D
p49
I01
sVaimConstraint.target[0]
p50
I01
sVpointConstraint.target[1].targetTranslate
p51
I01
sVjoint.translate
p52
I01
sVparentConstraint.target[0].targetOffsetTranslate
p53
I01
sVvectorProduct.output
p54
I01
sVaimConstraint.target
p55
I01
ssS'ka_attrTool_pinSelected'
p56
I01
sS'attrFavorites'
p57
(dp58
VvectorProduct
p59
(lp60
Vinput1
p61
aVinput2
p62
aVmatrix
p63
aVnodeState
p64
aVoperation
p65
aVoutput
p66
asVmultiplyDivide
p67
(lp68
Vinput1
p69
aVinput2
p70
aVoperation
p71
aVoutput
p72
asVblendColors
p73
(lp74
Vblender
p75
aVcolor1
p76
aVcolor2
p77
aVoutput
p78
asVtransform
p79
(lp80
VdrawOverride
p81
aVinverseMatrix
p82
aVmatrix
p83
aVparentInverseMatrix
p84
aVparentMatrix
p85
aVrotate
p86
aVscale
p87
aVtranslate
p88
aVviewName
p89
aVvisibility
p90
aVworldInverseMatrix
p91
aVworldMatrix
p92
asVaimConstraint
p93
(lp94
VaimVector
p95
aVconstraintJointOrient
p96
aVconstraintParentInverseMatrix
p97
aVconstraintRotate
p98
aVconstraintRotateOrder
p99
aVconstraintRotatePivot
p100
aVconstraintRotateTranslate
p101
aVconstraintTranslate
p102
aVconstraintVector
p103
aVtarget
p104
aVupVector
p105
aVworldUpMatrix
p106
aVworldUpType
p107
aVworldUpVector
p108
asVjoint
p109
(lp110
VinverseMatrix
p111
aVjointOrient
p112
aVmatrix
p113
aVparentInverseMatrix
p114
aVparentMatrix
p115
aVrotate
p116
aVrotateOrder
p117
aVrotatePivot
p118
aVrotatePivotTranslate
p119
aVscale
p120
aVscalePivot
p121
aVscalePivotTranslate
p122
aVshear
p123
aVtranslate
p124
aVworldInverseMatrix
p125
aVworldMatrix
p126
asVclosestPointOnSurface
p127
(lp128
VinPosition
p129
aVinputSurface
p130
aVresult
p131
asVmesh
p132
(lp133
VdrawOverride
p134
asVplusMinusAverage
p135
(lp136
Vinput1D
p137
aVinput2D
p138
aVinput3D
p139
aVoperation
p140
aVoutput1D
p141
aVoutput2D
p142
aVoutput3D
p143
asVanimCurveUU
p144
(lp145
Vinput
p146
aVoutput
p147
asVffd
p148
(lp149
Venvelope
p150
asVparentConstraint
p151
(lp152
VconstraintJointOrient
p153
aVconstraintParentInverseMatrix
p154
aVconstraintRotate
p155
aVconstraintRotateOrder
p156
aVconstraintRotatePivot
p157
aVconstraintRotateTranslate
p158
aVconstraintTranslate
p159
aVtarget
p160
asVcondition
p161
(lp162
VcolorIfFalse
p163
aVcolorIfTrue
p164
aVfirstTerm
p165
aVoperation
p166
aVoutColor
p167
aVsecondTerm
p168
assS'hypherShade_graphDepthInputsAndOutputs'
p169
I1
sS'ka_attrTool_displayValues'
p170
I01
sS'dummyConstraint__maintainOffset__setting'
p171
I00
s.