(dp0
VisHistoricallyInteresting
p1
(dp2
S'isArray'
p3
I00
sS'isElement'
p4
I00
sS'isMulti'
p5
I00
sS'isCompound'
p6
I00
sS'attrChildrenNames'
p7
(lp8
ssVnodeState
p9
(dp10
S'isArray'
p11
I00
sS'isElement'
p12
I00
sS'isMulti'
p13
I00
sS'attrChildrenNames'
p14
(lp15
sS'isCompound'
p16
I00
ssVinput
p17
(dp18
S'isArray'
p19
I00
sS'attrType'
p20
Vdouble
p21
sS'attrChildrenNames'
p22
(lp23
sS'isMulti'
p24
I00
sS'isCompound'
p25
I00
sS'isSimple'
p26
I01
sS'attrChildrenLongNames'
p27
(lp28
sS'isElement'
p29
I00
ssVoutStippleThreshold
p30
(dp31
S'isArray'
p32
I00
sS'isElement'
p33
I00
sS'isMulti'
p34
I00
sS'isCompound'
p35
I00
sS'attrChildrenNames'
p36
(lp37
ssVstippleReverse
p38
(dp39
S'isArray'
p40
I00
sS'isElement'
p41
I00
sS'isMulti'
p42
I00
sS'attrChildrenNames'
p43
(lp44
sS'isCompound'
p45
I00
ssVcurveColor.curveColorR
p46
(dp47
S'isArray'
p48
I00
sS'attrParentLongName'
p49
VcurveColor
p50
sS'attrChildrenNames'
p51
(lp52
sS'isMulti'
p53
I00
sS'isCompound'
p54
I00
sS'isElement'
p55
I00
ssVoutStippleRange
p56
(dp57
S'isArray'
p58
I00
sS'isElement'
p59
I00
sS'isMulti'
p60
I00
sS'attrChildrenNames'
p61
(lp62
sS'isCompound'
p63
I00
ssVinStippleRange
p64
(dp65
S'isArray'
p66
I00
sS'isElement'
p67
I00
sS'isMulti'
p68
I00
sS'isCompound'
p69
I00
sS'attrChildrenNames'
p70
(lp71
ssVcurveColor.curveColorB
p72
(dp73
S'isArray'
p74
I00
sS'attrParentLongName'
p75
VcurveColor
p76
sS'attrChildrenNames'
p77
(lp78
sS'isMulti'
p79
I00
sS'isCompound'
p80
I00
sS'isElement'
p81
I00
ssVcurveColor
p82
(dp83
S'isArray'
p84
I00
sS'isElement'
p85
I00
sS'isMulti'
p86
I00
sS'attrChildrenNames'
p87
(lp88
VcurveColor.curveColorR
p89
aVcurveColor.curveColorG
p90
aVcurveColor.curveColorB
p91
asS'isCompound'
p92
I01
ssVcurveColor.curveColorG
p93
(dp94
S'isArray'
p95
I00
sS'attrParentLongName'
p96
VcurveColor
p97
sS'attrChildrenNames'
p98
(lp99
sS'isMulti'
p100
I00
sS'isCompound'
p101
I00
sS'isElement'
p102
I00
ssVcaching
p103
(dp104
S'isArray'
p105
I00
sS'isElement'
p106
I00
sS'isMulti'
p107
I00
sS'attrChildrenNames'
p108
(lp109
sS'isCompound'
p110
I00
ssVoutput
p111
(dp112
S'isArray'
p113
I00
sg20
VdoubleLinear
p114
sS'attrChildrenNames'
p115
(lp116
sS'isMulti'
p117
I00
sS'isCompound'
p118
I00
sg26
I01
sg27
(lp119
sS'isElement'
p120
I00
ssVuseCurveColor
p121
(dp122
S'isArray'
p123
I00
sS'isElement'
p124
I00
sS'isMulti'
p125
I00
sS'isCompound'
p126
I00
sS'attrChildrenNames'
p127
(lp128
ssVapply
p129
(dp130
S'isArray'
p131
I00
sS'isElement'
p132
I00
sS'isMulti'
p133
I00
sS'isCompound'
p134
I00
sS'attrChildrenNames'
p135
(lp136
ssVstipplePattern
p137
(dp138
S'isArray'
p139
I00
sS'isElement'
p140
I00
sS'isMulti'
p141
I00
sS'attrChildrenNames'
p142
(lp143
sS'isCompound'
p144
I00
ss.