(dp0
VkeyTickDrawSpecial[0]
p1
(dp2
S'isArray'
p3
I00
sS'attrType'
p4
Vbool
p5
sS'isMulti'
p6
I00
sS'isCompound'
p7
I00
sS'isSimple'
p8
I01
sS'attrChildrenLongNames'
p9
(lp10
ssVkeyTanOutType[2]
p11
(dp12
g3
I00
sg9
(lp13
ssVkeyTanOutY[3]
p14
(dp15
g3
I00
sg9
(lp16
ssVkeyTanLocked[3]
p17
(dp18
g3
I00
sg9
(lp19
ssVkeyTimeValue[2].keyValue
p20
(dp21
g3
I00
sg9
(lp22
ssVinStippleRange
p23
(dp24
S'isArray'
p25
I00
sS'attrType'
p26
NsS'attrChildrenLongNames'
p27
(lp28
sS'isSimple'
p29
I00
sS'isMulti'
p30
I00
ssVbinMembership
p31
(dp32
g3
I00
sg4
Vstring
p33
sg6
I00
sg7
I00
sg8
I01
sg9
(lp34
ssVkeyTanInType
p35
(dp36
g3
I01
sg6
I01
sg8
I00
sg4
VTdataCompound
p37
ssVkeyTanInY[1]
p38
(dp39
g3
I00
sg4
Vdouble
p40
sg6
I00
sg7
I00
sg8
I01
sg9
(lp41
ssVkeyTanOutType
p42
(dp43
g3
I01
sg6
I01
sg8
I00
sg4
VTdataCompound
p44
ssVinput
p45
(dp46
g25
I00
sg26
Vtime
p47
sS'isMulti'
p48
I00
sS'isCompound'
p49
I00
sg29
I01
sg27
(lp50
ssVkeyTanOutX
p51
(dp52
g3
I01
sg6
I01
sg8
I00
sg4
VTdataCompound
p53
ssVstipplePattern
p54
(dp55
g25
I00
sg26
Venum
p56
sg30
I00
sS'isCompound'
p57
I00
sg29
I01
sg27
(lp58
ssVcurveColor.curveColorR
p59
(dp60
g25
I00
sg26
Vfloat
p61
sg30
I00
sg57
I00
sg29
I01
sg27
(lp62
ssVkeyTanOutY[2]
p63
(dp64
g3
I00
sg9
(lp65
ssVkeyTanOutType[3]
p66
(dp67
g3
I00
sg9
(lp68
ssVkeyTimeValue[0].keyTime
p69
(dp70
g3
I00
sg4
Vtime
p71
sg6
I00
sg7
I00
sg8
I01
sg9
(lp72
ssVcurveColor.curveColorG
p73
(dp74
g25
I00
sg26
Vfloat
p75
sg30
I00
sg57
I00
sg29
I01
sg27
(lp76
ssVkeyTanInType[1]
p77
(dp78
g3
I00
sg4
Venum
p79
sg6
I00
sg7
I00
sg8
I01
sg9
(lp80
ssVoutput
p81
(dp82
g25
I00
sg26
VdoubleLinear
p83
sg48
I00
sg49
I00
sg29
I01
sg27
(lp84
ssVuseCurveColor
p85
(dp86
g25
I00
sg26
Vbool
p87
sg30
I00
sg57
I00
sg29
I01
sg27
(lp88
ssVkeyTanOutType[0]
p89
(dp90
g3
I00
sg4
Venum
p91
sg6
I00
sg7
I00
sg8
I01
sg9
(lp92
ssVkeyTickDrawSpecial[2]
p93
(dp94
g3
I00
sg9
(lp95
ssVnodeState
p96
(dp97
g25
I00
sg26
Venum
p98
sg30
I00
sg57
I00
sg29
I01
sg27
(lp99
ssVkeyBreakdown[3]
p100
(dp101
g3
I00
sg9
(lp102
ssVkeyTanOutX[3]
p103
(dp104
g3
I00
sg9
(lp105
ssVkeyTanInX[0]
p106
(dp107
g3
I00
sg4
Vdouble
p108
sg6
I00
sg7
I00
sg8
I01
sg9
(lp109
ssVstippleReverse
p110
(dp111
g25
I00
sg26
Vbool
p112
sg30
I00
sg57
I00
sg29
I01
sg27
(lp113
ssVkeyTanOutY[1]
p114
(dp115
g3
I00
sg4
Vdouble
p116
sg6
I00
sg7
I00
sg8
I01
sg9
(lp117
ssVkeyWeightLocked[3]
p118
(dp119
g3
I00
sg9
(lp120
ssVkeyTanInY[3]
p121
(dp122
g3
I00
sg9
(lp123
ssVkeyTickDrawSpecial[1]
p124
(dp125
g3
I00
sg4
Vbool
p126
sg6
I00
sg7
I00
sg8
I01
sg9
(lp127
ssVweightedTangents
p128
(dp129
g3
I00
sg4
Vbool
p130
sg6
I00
sg7
I00
sg8
I01
sg9
(lp131
ssVkeyTanOutType[1]
p132
(dp133
g3
I00
sg4
Venum
p134
sg6
I00
sg7
I00
sg8
I01
sg9
(lp135
ssVkeyTanOutY[0]
p136
(dp137
g3
I00
sg4
Vdouble
p138
sg6
I00
sg7
I00
sg8
I01
sg9
(lp139
ssVkeyTanLocked[2]
p140
(dp141
g3
I00
sg9
(lp142
ssVkeyTimeValue[3].keyTime
p143
(dp144
g3
I00
sg9
(lp145
ssVkeyBreakdown
p146
(dp147
g3
I01
sg6
I01
sg8
I00
sg4
VTdataCompound
p148
ssVoutStippleThreshold
p149
(dp150
g25
I00
sg26
Vdouble
p151
sg30
I00
sg57
I00
sg29
I01
sg27
(lp152
ssVkeyTanLocked
p153
(dp154
g3
I01
sg6
I01
sg8
I00
sg4
VTdataCompound
p155
ssVkeyTanInY[2]
p156
(dp157
g3
I00
sg9
(lp158
ssVkeyTickDrawSpecial
p159
(dp160
g3
I01
sg6
I01
sg8
I00
sg4
VTdataCompound
p161
ssVkeyTanInY[0]
p162
(dp163
g3
I00
sg4
Vdouble
p164
sg6
I00
sg7
I00
sg8
I01
sg9
(lp165
ssVkeyWeightLocked[2]
p166
(dp167
g3
I00
sg9
(lp168
ssVkeyTanInX[2]
p169
(dp170
g3
I00
sg9
(lp171
ssVkeyTanInType[2]
p172
(dp173
g3
I00
sg9
(lp174
ssVkeyBreakdown[1]
p175
(dp176
g3
I00
sg4
Vbool
p177
sg6
I00
sg7
I00
sg8
I01
sg9
(lp178
ssVapply
p179
(dp180
g25
I00
sg26
Vfunction
p181
sg27
(lp182
sg29
I00
sg30
I00
ssVkeyTanOutX[1]
p183
(dp184
g3
I00
sg4
Vdouble
p185
sg6
I00
sg7
I00
sg8
I01
sg9
(lp186
ssVisHistoricallyInteresting
p187
(dp188
g25
I00
sg26
Vbyte
p189
sg27
(lp190
sg29
I00
sg30
I00
ssVrotationInterpolation
p191
(dp192
g3
I00
sg4
Venum
p193
sg6
I00
sg7
I00
sg8
I01
sg9
(lp194
ssVkeyTimeValue.keyValue
p195
(dp196
S'attrParentLongName'
p197
VkeyTimeValue
p198
ssVkeyTimeValue[1]
p199
(dp200
g3
I00
sg6
I00
sg4
VTdataCompound
p201
sg8
I00
sg9
(lp202
VkeyTimeValue[1].keyTime
p203
aVkeyTimeValue[1].keyValue
p204
assVpreInfinity
p205
(dp206
g3
I00
sg4
Venum
p207
sg6
I00
sg7
I00
sg8
I01
sg9
(lp208
ssVkeyTimeValue
p209
(dp210
g3
I01
sg6
I01
sg8
I00
sg4
VTdataCompound
p211
ssVkeyTimeValue[0].keyValue
p212
(dp213
g3
I00
sg4
VdoubleLinear
p214
sg6
I00
sg7
I00
sg8
I01
sg9
(lp215
ssVkeyTanInX
p216
(dp217
g3
I01
sg6
I01
sg8
I00
sg4
VTdataCompound
p218
ssVkeyTanInY
p219
(dp220
g3
I01
sg6
I01
sg8
I00
sg4
VTdataCompound
p221
ssVkeyBreakdown[2]
p222
(dp223
g3
I00
sg9
(lp224
ssVkeyTickDrawSpecial[3]
p225
(dp226
g3
I00
sg9
(lp227
ssVkeyTanOutX[2]
p228
(dp229
g3
I00
sg9
(lp230
ssVoutStippleRange
p231
(dp232
g25
I00
sg26
VdoubleArray
p233
sg27
(lp234
sg29
I00
sg30
I00
ssVkeyTanInX[1]
p235
(dp236
g3
I00
sg4
Vdouble
p237
sg6
I00
sg7
I00
sg8
I01
sg9
(lp238
ssVkeyTimeValue[0]
p239
(dp240
g3
I00
sg6
I00
sg4
VTdataCompound
p241
sg8
I00
sg9
(lp242
g69
ag212
assVkeyTanOutY
p243
(dp244
g3
I01
sg6
I01
sg8
I00
sg4
VTdataCompound
p245
ssVkeyWeightLocked[0]
p246
(dp247
g3
I00
sg4
Vbool
p248
sg6
I00
sg7
I00
sg8
I01
sg9
(lp249
ssVkeyTanInType[0]
p250
(dp251
g3
I00
sg4
Venum
p252
sg6
I00
sg7
I00
sg8
I01
sg9
(lp253
ssVkeyTimeValue[2].keyTime
p254
(dp255
g3
I00
sg9
(lp256
ssg204
(dp257
g3
I00
sg4
VdoubleLinear
p258
sg6
I00
sg7
I00
sg8
I01
sg9
(lp259
ssg203
(dp260
g3
I00
sg4
Vtime
p261
sg6
I00
sg7
I00
sg8
I01
sg9
(lp262
ssVkeyTanLocked[0]
p263
(dp264
g3
I00
sg4
Vbool
p265
sg6
I00
sg7
I00
sg8
I01
sg9
(lp266
ssVkeyTimeValue[3]
p267
(dp268
g3
I00
sg9
(lp269
g143
aVkeyTimeValue[3].keyValue
p270
assVcurveColor
p271
(dp272
g25
I00
sg26
Vfloat3
p273
sg27
(lp274
g59
ag73
aVcurveColor.curveColorB
p275
asg29
I00
sg30
I00
ssVkeyTanOutX[0]
p276
(dp277
g3
I00
sg4
Vdouble
p278
sg6
I00
sg7
I00
sg8
I01
sg9
(lp279
ssg270
(dp280
g3
I00
sg9
(lp281
ssVkeyTanInX[3]
p282
(dp283
g3
I00
sg9
(lp284
ssVkeyWeightLocked[1]
p285
(dp286
g3
I00
sg4
Vbool
p287
sg6
I00
sg7
I00
sg8
I01
sg9
(lp288
ssVkeyTanInType[3]
p289
(dp290
g3
I00
sg9
(lp291
ssVkeyWeightLocked
p292
(dp293
g3
I01
sg6
I01
sg8
I00
sg4
VTdataCompound
p294
ssVkeyBreakdown[0]
p295
(dp296
g3
I00
sg4
Vbool
p297
sg6
I00
sg7
I00
sg8
I01
sg9
(lp298
ssVkeyTimeValue.keyTime
p299
(dp300
g197
VkeyTimeValue
p301
ssVpostInfinity
p302
(dp303
g3
I00
sg4
Venum
p304
sg6
I00
sg7
I00
sg8
I01
sg9
(lp305
ssVkeyValueSwitch
p306
(dp307
g3
I00
sg4
Vtime
p308
sg6
I00
sg7
I00
sg8
I01
sg9
(lp309
ssVkeyTimeValue[2]
p310
(dp311
g3
I00
sg9
(lp312
g254
ag20
assg275
(dp313
g25
I00
sg26
Vfloat
p314
sg30
I00
sg57
I00
sg29
I01
sg27
(lp315
ssVkeyTanLocked[1]
p316
(dp317
g3
I00
sg4
Vbool
p318
sg6
I00
sg7
I00
sg8
I01
sg9
(lp319
ssVtangentType
p320
(dp321
g3
I00
sg4
Venum
p322
sg6
I00
sg7
I00
sg8
I01
sg9
(lp323
ssVcaching
p324
(dp325
g25
I00
sg26
Vbool
p326
sg30
I00
sg57
I00
sg29
I01
sg27
(lp327
ss.