(dp0
VisHistoricallyInteresting
p1
(dp2
S'isArray'
p3
I00
sS'isElement'
p4
I00
sS'isMulti'
p5
I00
sS'attrChildrenNames'
p6
(lp7
sS'isCompound'
p8
I00
ssVattributesBlender
p9
(dp10
S'isArray'
p11
I00
sS'isElement'
p12
I00
sS'isCompound'
p13
I00
sS'attrChildrenNames'
p14
(lp15
sS'isMulti'
p16
I00
ssVnodeState
p17
(dp18
S'isArray'
p19
I00
sS'isElement'
p20
I00
sS'isMulti'
p21
I00
sS'isCompound'
p22
I00
sS'attrChildrenNames'
p23
(lp24
ssVoutput
p25
(dp26
S'isArray'
p27
I00
sS'isElement'
p28
I00
sS'attrChildrenNames'
p29
(lp30
sS'isCompound'
p31
I00
sS'isMulti'
p32
I00
ssVcaching
p33
(dp34
S'isArray'
p35
I00
sS'isElement'
p36
I00
sS'isMulti'
p37
I00
sS'isCompound'
p38
I00
sS'attrChildrenNames'
p39
(lp40
ssVinput
p41
(dp42
S'isArray'
p43
I01
sS'isElement'
p44
I00
sS'isMulti'
p45
I01
ss.