(dp0
VinPosition
p1
(dp2
S'isArray'
p3
I00
sS'isElement'
p4
I00
sS'isMulti'
p5
I00
sS'attrChildrenNames'
p6
(lp7
VinPosition.inPositionX
p8
aVinPosition.inPositionY
p9
aVinPosition.inPositionZ
p10
asS'isCompound'
p11
I01
ssVresult.parameterU
p12
(dp13
S'isArray'
p14
I00
sS'attrParentLongName'
p15
Vresult
p16
sS'attrChildrenNames'
p17
(lp18
sS'isMulti'
p19
I00
sS'isCompound'
p20
I00
sS'isElement'
p21
I00
ssVresult
p22
(dp23
S'isArray'
p24
I00
sS'isElement'
p25
I00
sS'isCompound'
p26
I01
sS'attrChildrenNames'
p27
(lp28
Vresult.position
p29
aVresult.parameterU
p30
aVresult.parameterV
p31
aVresult.normal
p32
aVresult.closestFaceIndex
p33
aVresult.closestVertexIndex
p34
asS'isMulti'
p35
I00
ssVresult.parameterV
p36
(dp37
S'isArray'
p38
I00
sS'attrParentLongName'
p39
Vresult
p40
sS'attrChildrenNames'
p41
(lp42
sS'isMulti'
p43
I00
sS'isCompound'
p44
I00
sS'isElement'
p45
I00
ssVisHistoricallyInteresting
p46
(dp47
S'isArray'
p48
I00
sS'isElement'
p49
I00
sS'isMulti'
p50
I00
sS'attrChildrenNames'
p51
(lp52
sS'isCompound'
p53
I00
ssVinPosition.inPositionY
p54
(dp55
S'isArray'
p56
I00
sS'attrParentLongName'
p57
VinPosition
p58
sS'attrChildrenNames'
p59
(lp60
sS'isMulti'
p61
I00
sS'isCompound'
p62
I00
sS'isElement'
p63
I00
ssVinPosition.inPositionZ
p64
(dp65
S'isArray'
p66
I00
sS'attrParentLongName'
p67
VinPosition
p68
sS'attrChildrenNames'
p69
(lp70
sS'isMulti'
p71
I00
sS'isCompound'
p72
I00
sS'isElement'
p73
I00
ssVresult.closestFaceIndex
p74
(dp75
S'isArray'
p76
I00
sS'attrParentLongName'
p77
Vresult
p78
sS'attrChildrenNames'
p79
(lp80
sS'isMulti'
p81
I00
sS'isCompound'
p82
I00
sS'isElement'
p83
I00
ssVinPosition.inPositionX
p84
(dp85
S'isArray'
p86
I00
sS'attrParentLongName'
p87
VinPosition
p88
sS'attrChildrenNames'
p89
(lp90
sS'isMulti'
p91
I00
sS'isCompound'
p92
I00
sS'isElement'
p93
I00
ssVnodeState
p94
(dp95
S'isArray'
p96
I00
sS'isElement'
p97
I00
sS'isMulti'
p98
I00
sS'isCompound'
p99
I00
sS'attrChildrenNames'
p100
(lp101
ssVinMesh
p102
(dp103
S'isArray'
p104
I00
sS'isElement'
p105
I00
sS'isMulti'
p106
I00
sS'attrChildrenNames'
p107
(lp108
sS'isCompound'
p109
I00
ssVcaching
p110
(dp111
S'isArray'
p112
I00
sS'isElement'
p113
I00
sS'isMulti'
p114
I00
sS'isCompound'
p115
I00
sS'attrChildrenNames'
p116
(lp117
ssVinputMatrix
p118
(dp119
S'isArray'
p120
I00
sS'isElement'
p121
I00
sS'isMulti'
p122
I00
sS'isCompound'
p123
I00
sS'attrChildrenNames'
p124
(lp125
ssVresult.normal
p126
(dp127
S'isArray'
p128
I00
sS'attrParentLongName'
p129
Vresult
p130
sS'attrChildrenNames'
p131
(lp132
Vresult.normal.normalX
p133
aVresult.normal.normalY
p134
aVresult.normal.normalZ
p135
asS'isMulti'
p136
I00
sS'isCompound'
p137
I01
sS'isElement'
p138
I00
ssVresult.position.positionZ
p139
(dp140
S'isArray'
p141
I00
sS'attrParentLongName'
p142
Vresult.position
p143
sS'attrChildrenNames'
p144
(lp145
sS'isMulti'
p146
I00
sS'isCompound'
p147
I00
sS'isElement'
p148
I00
ssVresult.position.positionX
p149
(dp150
S'isArray'
p151
I00
sS'attrParentLongName'
p152
Vresult.position
p153
sS'attrChildrenNames'
p154
(lp155
sS'isMulti'
p156
I00
sS'isCompound'
p157
I00
sS'isElement'
p158
I00
ssVresult.position.positionY
p159
(dp160
S'isArray'
p161
I00
sS'attrParentLongName'
p162
Vresult.position
p163
sS'attrChildrenNames'
p164
(lp165
sS'isMulti'
p166
I00
sS'isCompound'
p167
I00
sS'isElement'
p168
I00
ssVresult.position
p169
(dp170
S'isArray'
p171
I00
sS'attrParentLongName'
p172
Vresult
p173
sS'attrChildrenNames'
p174
(lp175
Vresult.position.positionX
p176
aVresult.position.positionY
p177
aVresult.position.positionZ
p178
asS'isMulti'
p179
I00
sS'isCompound'
p180
I01
sS'isElement'
p181
I00
ssVresult.closestVertexIndex
p182
(dp183
S'isArray'
p184
I00
sS'attrParentLongName'
p185
Vresult
p186
sS'attrChildrenNames'
p187
(lp188
sS'isMulti'
p189
I00
sS'isCompound'
p190
I00
sS'isElement'
p191
I00
ssVresult.normal.normalZ
p192
(dp193
S'isArray'
p194
I00
sS'attrParentLongName'
p195
Vresult.normal
p196
sS'attrChildrenNames'
p197
(lp198
sS'isMulti'
p199
I00
sS'isCompound'
p200
I00
sS'isElement'
p201
I00
ssVresult.normal.normalX
p202
(dp203
S'isArray'
p204
I00
sS'attrParentLongName'
p205
Vresult.normal
p206
sS'attrChildrenNames'
p207
(lp208
sS'isMulti'
p209
I00
sS'isCompound'
p210
I00
sS'isElement'
p211
I00
ssVresult.normal.normalY
p212
(dp213
S'isArray'
p214
I00
sS'attrParentLongName'
p215
Vresult.normal
p216
sS'attrChildrenNames'
p217
(lp218
sS'isMulti'
p219
I00
sS'isCompound'
p220
I00
sS'isElement'
p221
I00
ss.