(dp0
Vdistance
p1
(dp2
S'isArray'
p3
I00
sS'attrType'
p4
VdoubleLinear
p5
sS'attrChildrenNames'
p6
(lp7
sS'isMulti'
p8
I00
sS'isCompound'
p9
I00
sS'isSimple'
p10
I01
sS'attrChildrenLongNames'
p11
(lp12
sS'isElement'
p13
I00
ssVpoint2.point2X
p14
(dp15
S'isArray'
p16
I00
sS'attrParentLongName'
p17
Vpoint2
p18
sS'attrChildrenNames'
p19
(lp20
sg4
VdoubleLinear
p21
sS'isMulti'
p22
I00
sS'isCompound'
p23
I00
sg10
I01
sg11
(lp24
sS'isElement'
p25
I00
ssVinMatrix2
p26
(dp27
S'isArray'
p28
I00
sg4
Vmatrix
p29
sS'attrChildrenNames'
p30
(lp31
sS'isMulti'
p32
I00
sS'isCompound'
p33
I00
sg10
I00
sg11
(lp34
sS'isElement'
p35
I00
ssVinMatrix1
p36
(dp37
S'isArray'
p38
I00
sg4
Vmatrix
p39
sS'attrChildrenNames'
p40
(lp41
sS'isMulti'
p42
I00
sS'isCompound'
p43
I00
sg10
I00
sg11
(lp44
sS'isElement'
p45
I00
ssVpoint1.point1X
p46
(dp47
S'isArray'
p48
I00
sS'attrParentLongName'
p49
Vpoint1
p50
sS'attrChildrenNames'
p51
(lp52
sg4
VdoubleLinear
p53
sS'isMulti'
p54
I00
sS'isCompound'
p55
I00
sg10
I01
sg11
(lp56
sS'isElement'
p57
I00
ssVpoint1.point1Z
p58
(dp59
S'isArray'
p60
I00
sS'attrParentLongName'
p61
Vpoint1
p62
sS'attrChildrenNames'
p63
(lp64
sg4
VdoubleLinear
p65
sS'isMulti'
p66
I00
sS'isCompound'
p67
I00
sg10
I01
sg11
(lp68
sS'isElement'
p69
I00
ssVpoint1
p70
(dp71
S'isArray'
p72
I00
sg4
Vdouble3
p73
sS'attrChildrenNames'
p74
(lp75
Vpoint1.point1X
p76
aVpoint1.point1Y
p77
aVpoint1.point1Z
p78
asS'isMulti'
p79
I00
sS'isCompound'
p80
I01
sg10
I01
sg11
(lp81
Vpoint1.point1X
p82
aVpoint1.point1Y
p83
aVpoint1.point1Z
p84
asS'isElement'
p85
I00
ssVpoint2
p86
(dp87
S'isArray'
p88
I00
sg4
Vdouble3
p89
sS'attrChildrenNames'
p90
(lp91
Vpoint2.point2X
p92
aVpoint2.point2Y
p93
aVpoint2.point2Z
p94
asS'isMulti'
p95
I00
sS'isCompound'
p96
I01
sg10
I01
sg11
(lp97
Vpoint2.point2X
p98
aVpoint2.point2Y
p99
aVpoint2.point2Z
p100
asS'isElement'
p101
I00
ssVpoint1.point1Y
p102
(dp103
S'isArray'
p104
I00
sS'attrParentLongName'
p105
Vpoint1
p106
sS'attrChildrenNames'
p107
(lp108
sg4
VdoubleLinear
p109
sS'isMulti'
p110
I00
sS'isCompound'
p111
I00
sg10
I01
sg11
(lp112
sS'isElement'
p113
I00
ssVpoint2.point2Y
p114
(dp115
S'isArray'
p116
I00
sS'attrParentLongName'
p117
Vpoint2
p118
sS'attrChildrenNames'
p119
(lp120
sg4
VdoubleLinear
p121
sS'isMulti'
p122
I00
sS'isCompound'
p123
I00
sg10
I01
sg11
(lp124
sS'isElement'
p125
I00
ssVpoint2.point2Z
p126
(dp127
S'isArray'
p128
I00
sS'attrParentLongName'
p129
Vpoint2
p130
sS'attrChildrenNames'
p131
(lp132
sg4
VdoubleLinear
p133
sS'isMulti'
p134
I00
sS'isCompound'
p135
I00
sg10
I01
sg11
(lp136
sS'isElement'
p137
I00
ss.