(dp0
Vtranslate.translateZ
p1
(dp2
S'isArray'
p3
I00
sS'attrChildrenLongNames'
p4
(lp5
ssVtranslate.translateX
p6
(dp7
g3
I00
sg4
(lp8
ssVtranslate.translateY
p9
(dp10
g3
I00
sg4
(lp11
ssVdTwistStartEnd
p12
(dp13
g3
I00
sg4
(lp14
VdTwistStartEnd.dTwistStart
p15
aVdTwistStartEnd.dTwistEnd
p16
assVdWorldUpMatrix
p17
(dp18
g3
I00
sg4
(lp19
ssVdWorldUpType
p20
(dp21
g3
I00
sg4
(lp22
ssg15
(dp23
g3
I00
sg4
(lp24
ssVdWorldUpVector
p25
(dp26
g3
I00
sg4
(lp27
VdWorldUpVector.dWorldUpVectorX
p28
aVdWorldUpVector.dWorldUpVectorY
p29
aVdWorldUpVector.dWorldUpVectorZ
p30
assVdWorldUpVectorEnd
p31
(dp32
g3
I00
sg4
(lp33
VdWorldUpVectorEnd.dWorldUpVectorEndX
p34
aVdWorldUpVectorEnd.dWorldUpVectorEndY
p35
aVdWorldUpVectorEnd.dWorldUpVectorEndZ
p36
assVscale
p37
(dp38
g3
I00
sg4
(lp39
Vscale.scaleX
p40
aVscale.scaleY
p41
aVscale.scaleZ
p42
assg28
(dp43
g3
I00
sg4
(lp44
ssg29
(dp45
g3
I00
sg4
(lp46
ssg30
(dp47
g3
I00
sg4
(lp48
ssVtranslate
p49
(dp50
g3
I00
sg4
(lp51
g6
ag9
ag1
assg16
(dp52
g3
I00
sg4
(lp53
ssVdTwistValueType
p54
(dp55
g3
I00
sg4
(lp56
ssg36
(dp57
g3
I00
sg4
(lp58
ssg34
(dp59
g3
I00
sg4
(lp60
ssg35
(dp61
g3
I00
sg4
(lp62
ssVrotate
p63
(dp64
g3
I00
sg4
(lp65
Vrotate.rotateX
p66
aVrotate.rotateY
p67
aVrotate.rotateZ
p68
assg42
(dp69
g3
I00
sg4
(lp70
ssg40
(dp71
g3
I00
sg4
(lp72
ssg41
(dp73
g3
I00
sg4
(lp74
ssVdWorldUpAxis
p75
(dp76
g3
I00
sg4
(lp77
ssg68
(dp78
g3
I00
sg4
(lp79
ssg66
(dp80
g3
I00
sg4
(lp81
ssg67
(dp82
g3
I00
sg4
(lp83
ssVdWorldUpMatrixEnd
p84
(dp85
g3
I00
sg4
(lp86
ss.