(dp0
VrotateOrder
p1
(dp2
S'isArray'
p3
I00
sS'attrType'
p4
Venum
p5
sS'attrChildrenNames'
p6
(lp7
sS'isMulti'
p8
I00
sS'isCompound'
p9
I00
sS'isSimple'
p10
I01
sS'attrShortName'
p11
Vro
p12
sS'attrChildrenLongNames'
p13
(lp14
sS'isElement'
p15
I00
ssVselectHandle.selectHandleY
p16
(dp17
S'isArray'
p18
I00
sS'attrParentLongName'
p19
VselectHandle
p20
sS'attrChildrenNames'
p21
(lp22
sS'attrType'
p23
VdoubleLinear
p24
sS'isMulti'
p25
I00
sS'isCompound'
p26
I00
sS'isSimple'
p27
I01
sS'attrChildrenLongNames'
p28
(lp29
sS'isElement'
p30
I00
ssVminTransLimitEnable.minTransYLimitEnable
p31
(dp32
S'isArray'
p33
I00
sS'attrType'
p34
Vbool
p35
sS'isMulti'
p36
I00
sS'isCompound'
p37
I00
sS'isSimple'
p38
I01
sS'attrChildrenLongNames'
p39
(lp40
ssVrenderLayerInfo.renderLayerRenderable
p41
(dp42
S'attrParentLongName'
p43
VrenderLayerInfo
p44
ssVbindRotation
p45
(dp46
g33
I00
sg34
Vdouble3
p47
sg36
I00
sg37
I01
sg38
I01
sg39
(lp48
VbindRotation.bindRotationX
p49
aVbindRotation.bindRotationY
p50
aVbindRotation.bindRotationZ
p51
assVmaxRotateDampStrength
p52
(dp53
S'isArray'
p54
I00
sg23
Vdouble3
p55
sS'attrChildrenNames'
p56
(lp57
VmaxRotateDampStrength.maxRotateDampStrengthX
p58
aVmaxRotateDampStrength.maxRotateDampStrengthY
p59
aVmaxRotateDampStrength.maxRotateDampStrengthZ
p60
asS'isMulti'
p61
I00
sS'isCompound'
p62
I01
sg27
I01
sg28
(lp63
VmaxRotateDampStrength.maxRotateDampStrengthX
p64
aVmaxRotateDampStrength.maxRotateDampStrengthY
p65
aVmaxRotateDampStrength.maxRotateDampStrengthZ
p66
asS'isElement'
p67
I00
ssVboundingBox.boundingBoxMin.boundingBoxMinY
p68
(dp69
S'isArray'
p70
I00
sS'attrParentLongName'
p71
VboundingBox.boundingBoxMin
p72
sS'attrChildrenNames'
p73
(lp74
sg23
VdoubleLinear
p75
sS'isMulti'
p76
I00
sS'isCompound'
p77
I00
sg27
I01
sg28
(lp78
sS'isElement'
p79
I00
ssVboundingBox.boundingBoxMin.boundingBoxMinX
p80
(dp81
S'isArray'
p82
I00
sS'attrParentLongName'
p83
VboundingBox.boundingBoxMin
p84
sS'attrChildrenNames'
p85
(lp86
sg23
VdoubleLinear
p87
sS'isMulti'
p88
I00
sS'isCompound'
p89
I00
sg27
I01
sg28
(lp90
sS'isElement'
p91
I00
ssVboundingBox.boundingBoxMin.boundingBoxMinZ
p92
(dp93
S'isArray'
p94
I00
sS'attrParentLongName'
p95
VboundingBox.boundingBoxMin
p96
sS'attrChildrenNames'
p97
(lp98
sg23
VdoubleLinear
p99
sS'isMulti'
p100
I00
sS'isCompound'
p101
I00
sg27
I01
sg28
(lp102
sS'isElement'
p103
I00
ssVminRotLimitEnable.minRotYLimitEnable
p104
(dp105
g33
I00
sg34
Vbool
p106
sg36
I00
sg37
I00
sg38
I01
sg39
(lp107
ssVselectHandle
p108
(dp109
S'isArray'
p110
I00
sg23
Vdouble3
p111
sS'attrChildrenNames'
p112
(lp113
VselectHandle.selectHandleX
p114
aVselectHandle.selectHandleY
p115
aVselectHandle.selectHandleZ
p116
asS'isMulti'
p117
I00
sS'isCompound'
p118
I01
sg27
I01
sg28
(lp119
VselectHandle.selectHandleX
p120
aVselectHandle.selectHandleY
p121
aVselectHandle.selectHandleZ
p122
asS'isElement'
p123
I00
ssVbindJointOrient
p124
(dp125
g33
I00
sg34
Vdouble3
p126
sg36
I00
sg37
I01
sg38
I01
sg39
(lp127
VbindJointOrient.bindJointOrientX
p128
aVbindJointOrient.bindJointOrientY
p129
aVbindJointOrient.bindJointOrientZ
p130
assVrotateQuaternion.rotateQuaternionZ
p131
(dp132
S'isArray'
p133
I00
sS'attrParentLongName'
p134
VrotateQuaternion
p135
sS'attrChildrenNames'
p136
(lp137
sg23
Vdouble
p138
sS'isMulti'
p139
I00
sS'isCompound'
p140
I00
sg27
I01
sg28
(lp141
sS'isElement'
p142
I00
ssVrenderLayerInfo[0].renderLayerId
p143
(dp144
S'isArray'
p145
I00
sS'attrParentLongName'
p146
VrenderLayerInfo[0]
p147
sS'attrChildrenNames'
p148
(lp149
sg38
I00
sg28
(lp150
sS'isElement'
p151
I00
ssVrotateQuaternion.rotateQuaternionX
p152
(dp153
S'isArray'
p154
I00
sS'attrParentLongName'
p155
VrotateQuaternion
p156
sS'attrChildrenNames'
p157
(lp158
sg23
Vdouble
p159
sS'isMulti'
p160
I00
sS'isCompound'
p161
I00
sg27
I01
sg28
(lp162
sS'isElement'
p163
I00
ssVrotateQuaternion.rotateQuaternionY
p164
(dp165
S'isArray'
p166
I00
sS'attrParentLongName'
p167
VrotateQuaternion
p168
sS'attrChildrenNames'
p169
(lp170
sg23
Vdouble
p171
sS'isMulti'
p172
I00
sS'isCompound'
p173
I00
sg27
I01
sg28
(lp174
sS'isElement'
p175
I00
ssg130
(dp176
g33
I00
sg34
VdoubleAngle
p177
sg36
I00
sg37
I00
sg38
I01
sg39
(lp178
ssVrotateQuaternion.rotateQuaternionW
p179
(dp180
S'isArray'
p181
I00
sS'attrParentLongName'
p182
VrotateQuaternion
p183
sS'attrChildrenNames'
p184
(lp185
sg23
Vdouble
p186
sS'isMulti'
p187
I00
sS'isCompound'
p188
I00
sg27
I01
sg28
(lp189
sS'isElement'
p190
I00
ssg128
(dp191
g33
I00
sg34
VdoubleAngle
p192
sg36
I00
sg37
I00
sg38
I01
sg39
(lp193
ssg129
(dp194
g33
I00
sg34
VdoubleAngle
p195
sg36
I00
sg37
I00
sg38
I01
sg39
(lp196
ssVminTransLimit
p197
(dp198
g33
I00
sg34
Vdouble3
p199
sg36
I00
sg37
I01
sg38
I01
sg39
(lp200
VminTransLimit.minTransXLimit
p201
aVminTransLimit.minTransYLimit
p202
aVminTransLimit.minTransZLimit
p203
assVminRotLimit
p204
(dp205
g33
I00
sg34
Vdouble3
p206
sg36
I00
sg37
I01
sg38
I01
sg39
(lp207
VminRotLimit.minRotXLimit
p208
aVminRotLimit.minRotYLimit
p209
aVminRotLimit.minRotZLimit
p210
assVmaxTransLimitEnable.maxTransYLimitEnable
p211
(dp212
g33
I00
sg34
Vbool
p213
sg36
I00
sg37
I00
sg38
I01
sg39
(lp214
ssVmaxScaleLimitEnable.maxScaleYLimitEnable
p215
(dp216
g33
I00
sg34
Vbool
p217
sg36
I00
sg37
I00
sg38
I01
sg39
(lp218
ssVparentMatrix[0]
p219
(dp220
S'isArray'
p221
I00
sS'attrType'
p222
Vmatrix
p223
sS'attrParentLongName'
p224
VparentMatrix
p225
sS'attrChildrenNames'
p226
(lp227
sS'isMulti'
p228
I00
sS'isSimple'
p229
I00
sg11
Vpm[0]
p230
sg13
(lp231
ssVinstObjGroups[0].objectGroups[0]
p232
(dp233
S'isArray'
p234
I00
sS'attrChildrenNames'
p235
(lp236
VinstObjGroups[0].objectGroups[0].objectGrpCompList
p237
aVinstObjGroups[0].objectGroups[0].objectGroupId
p238
aVinstObjGroups[0].objectGroups[0].objectGrpColor
p239
asg38
I00
sg28
(lp240
VinstObjGroups[0].objectGroups[0].objectGrpCompList
p241
aVinstObjGroups[0].objectGroups[0].objectGroupId
p242
aVinstObjGroups[0].objectGroups[0].objectGrpColor
p243
assVdynamics
p244
(dp245
S'isArray'
p246
I00
sg23
Vbool
p247
sS'attrChildrenNames'
p248
(lp249
sS'isMulti'
p250
I00
sS'isCompound'
p251
I00
sg27
I01
sg28
(lp252
sS'isElement'
p253
I00
ssVmaxTransLimit.maxTransZLimit
p254
(dp255
g33
I00
sg34
VdoubleLinear
p256
sg36
I00
sg37
I00
sg38
I01
sg39
(lp257
ssVrotatePivot
p258
(dp259
S'isArray'
p260
I00
sg23
Vdouble3
p261
sS'attrChildrenNames'
p262
(lp263
VrotatePivot.rotatePivotX
p264
aVrotatePivot.rotatePivotY
p265
aVrotatePivot.rotatePivotZ
p266
asS'isMulti'
p267
I00
sS'isCompound'
p268
I01
sg27
I01
sg28
(lp269
VrotatePivot.rotatePivotX
p270
aVrotatePivot.rotatePivotY
p271
aVrotatePivot.rotatePivotZ
p272
asS'isElement'
p273
I00
ssVtemplate
p274
(dp275
S'isArray'
p276
I00
sg23
Vbool
p277
sS'attrChildrenNames'
p278
(lp279
sS'isMulti'
p280
I00
sS'isCompound'
p281
I00
sg27
I01
sg28
(lp282
sS'isElement'
p283
I00
ssVparentInverseMatrix[1]
p284
(dp285
g221
I00
sg13
(lp286
sg226
(lp287
sS'isSimple'
p288
I00
sg11
Vpim[1]
p289
ssg201
(dp290
g33
I00
sg34
VdoubleLinear
p291
sg36
I00
sg37
I00
sg38
I01
sg39
(lp292
ssVdisplayScalePivot
p293
(dp294
S'isArray'
p295
I00
sg23
Vbool
p296
sS'attrChildrenNames'
p297
(lp298
sS'isMulti'
p299
I00
sS'isCompound'
p300
I00
sg27
I01
sg28
(lp301
sS'isElement'
p302
I00
ssVmentalRayControls.miHide
p303
(dp304
S'isArray'
p305
I00
sS'attrParentLongName'
p306
VmentalRayControls
p307
sS'attrChildrenNames'
p308
(lp309
sg23
Vbool
p310
sS'isMulti'
p311
I00
sS'isCompound'
p312
I00
sg27
I01
sg28
(lp313
sS'isElement'
p314
I00
ssVinstObjGroups.objectGroups
p315
(dp316
g43
VinstObjGroups
p317
ssVpublishedNodeInfo
p318
(dp319
S'isArray'
p320
I01
sS'isElement'
p321
I00
sg23
VTdataCompound
p322
sg27
I00
sS'isMulti'
p323
I01
ssVdrawOverride.overrideTexturing
p324
(dp325
S'isArray'
p326
I00
sS'attrParentLongName'
p327
VdrawOverride
p328
sS'attrChildrenNames'
p329
(lp330
sg23
Vbool
p331
sS'isMulti'
p332
I00
sS'isCompound'
p333
I00
sg27
I01
sg28
(lp334
sS'isElement'
p335
I00
ssVstiffness
p336
(dp337
S'isArray'
p338
I00
sg23
Vdouble3
p339
sS'attrChildrenNames'
p340
(lp341
Vstiffness.stiffnessX
p342
aVstiffness.stiffnessY
p343
aVstiffness.stiffnessZ
p344
asS'isMulti'
p345
I00
sS'isCompound'
p346
I01
sg27
I01
sg28
(lp347
Vstiffness.stiffnessX
p348
aVstiffness.stiffnessY
p349
aVstiffness.stiffnessZ
p350
asS'isElement'
p351
I00
ssVdisplayHandle
p352
(dp353
S'isArray'
p354
I00
sg23
Vbool
p355
sS'attrChildrenNames'
p356
(lp357
sS'isMulti'
p358
I00
sS'isCompound'
p359
I00
sg27
I01
sg28
(lp360
sS'isElement'
p361
I00
ssVminRotLimitEnable.minRotXLimitEnable
p362
(dp363
g33
I00
sg34
Vbool
p364
sg36
I00
sg37
I00
sg38
I01
sg39
(lp365
ssVinverseScale.inverseScaleX
p366
(dp367
S'isArray'
p368
I00
sS'attrType'
p369
Vdouble
p370
sS'isMulti'
p371
I00
sS'isCompound'
p372
I00
sS'isSimple'
p373
I01
sg11
Visx
p374
sg13
(lp375
ssVinverseScale.inverseScaleY
p376
(dp377
g368
I00
sg369
Vdouble
p378
sg371
I00
sg372
I00
sg373
I01
sg11
Visy
p379
sg13
(lp380
ssVstiffness.stiffnessX
p381
(dp382
S'isArray'
p383
I00
sS'attrParentLongName'
p384
Vstiffness
p385
sS'attrChildrenNames'
p386
(lp387
sg23
Vdouble
p388
sS'isMulti'
p389
I00
sS'isCompound'
p390
I00
sg27
I01
sg28
(lp391
sS'isElement'
p392
I00
ssVstiffness.stiffnessY
p393
(dp394
S'isArray'
p395
I00
sS'attrParentLongName'
p396
Vstiffness
p397
sS'attrChildrenNames'
p398
(lp399
sg23
Vdouble
p400
sS'isMulti'
p401
I00
sS'isCompound'
p402
I00
sg27
I01
sg28
(lp403
sS'isElement'
p404
I00
ssVrotateQuaternion
p405
(dp406
S'isArray'
p407
I00
sg23
Vdouble4
p408
sS'attrChildrenNames'
p409
(lp410
VrotateQuaternion.rotateQuaternionX
p411
aVrotateQuaternion.rotateQuaternionY
p412
aVrotateQuaternion.rotateQuaternionZ
p413
aVrotateQuaternion.rotateQuaternionW
p414
asS'isMulti'
p415
I00
sS'isCompound'
p416
I01
sg27
I00
sg28
(lp417
VrotateQuaternion.rotateQuaternionX
p418
aVrotateQuaternion.rotateQuaternionY
p419
aVrotateQuaternion.rotateQuaternionZ
p420
aVrotateQuaternion.rotateQuaternionW
p421
asS'isElement'
p422
I00
ssVtransMinusRotatePivot.transMinusRotatePivotZ
p423
(dp424
S'isArray'
p425
I00
sS'attrParentLongName'
p426
VtransMinusRotatePivot
p427
sS'attrChildrenNames'
p428
(lp429
sg23
VdoubleLinear
p430
sS'isMulti'
p431
I00
sS'isCompound'
p432
I00
sg27
I01
sg28
(lp433
sS'isElement'
p434
I00
ssVtransMinusRotatePivot.transMinusRotatePivotX
p435
(dp436
S'isArray'
p437
I00
sS'attrParentLongName'
p438
VtransMinusRotatePivot
p439
sS'attrChildrenNames'
p440
(lp441
sg23
VdoubleLinear
p442
sS'isMulti'
p443
I00
sS'isCompound'
p444
I00
sg27
I01
sg28
(lp445
sS'isElement'
p446
I00
ssVtransMinusRotatePivot.transMinusRotatePivotY
p447
(dp448
S'isArray'
p449
I00
sS'attrParentLongName'
p450
VtransMinusRotatePivot
p451
sS'attrChildrenNames'
p452
(lp453
sg23
VdoubleLinear
p454
sS'isMulti'
p455
I00
sS'isCompound'
p456
I00
sg27
I01
sg28
(lp457
sS'isElement'
p458
I00
ssVrotationInterpolation
p459
(dp460
S'isArray'
p461
I00
sg23
Venum
p462
sS'attrChildrenNames'
p463
(lp464
sS'isMulti'
p465
I00
sS'isCompound'
p466
I00
sg27
I01
sg28
(lp467
sS'isElement'
p468
I00
ssVminScaleLimit.minScaleYLimit
p469
(dp470
g33
I00
sg34
Vdouble
p471
sg36
I00
sg37
I00
sg38
I01
sg39
(lp472
ssVscaleX
p473
(dp474
S'isArray'
p475
I00
sS'attrParentLongName'
p476
Vscale
p477
sS'attrChildrenNames'
p478
(lp479
sg4
Vdouble
p480
sS'isMulti'
p481
I00
sS'isCompound'
p482
I00
sg10
I01
sS'isElement'
p483
I00
ssVinstObjGroups[2].objectGroups
p484
(dp485
S'isArray'
p486
I01
ssVscaleZ
p487
(dp488
S'isArray'
p489
I00
sS'attrParentLongName'
p490
Vscale
p491
sS'attrChildrenNames'
p492
(lp493
sg4
Vdouble
p494
sS'isMulti'
p495
I00
sS'isCompound'
p496
I00
sg10
I01
sS'isElement'
p497
I00
ssVmaxRotateDampRange.maxRotateDampRangeX
p498
(dp499
S'isArray'
p500
I00
sS'attrParentLongName'
p501
VmaxRotateDampRange
p502
sS'attrChildrenNames'
p503
(lp504
sg23
VdoubleAngle
p505
sS'isMulti'
p506
I00
sS'isCompound'
p507
I00
sg27
I01
sg28
(lp508
sS'isElement'
p509
I00
ssVmaxRotateDampRange.maxRotateDampRangeY
p510
(dp511
S'isArray'
p512
I00
sS'attrParentLongName'
p513
VmaxRotateDampRange
p514
sS'attrChildrenNames'
p515
(lp516
sg23
VdoubleAngle
p517
sS'isMulti'
p518
I00
sS'isCompound'
p519
I00
sg27
I01
sg28
(lp520
sS'isElement'
p521
I00
ssVmaxRotateDampRange.maxRotateDampRangeZ
p522
(dp523
S'isArray'
p524
I00
sS'attrParentLongName'
p525
VmaxRotateDampRange
p526
sS'attrChildrenNames'
p527
(lp528
sg23
VdoubleAngle
p529
sS'isMulti'
p530
I00
sS'isCompound'
p531
I00
sg27
I01
sg28
(lp532
sS'isElement'
p533
I00
ssVpreferredAngle
p534
(dp535
S'isArray'
p536
I00
sg4
Vdouble3
p537
sS'attrChildrenNames'
p538
(lp539
VpreferredAngleX
p540
aVpreferredAngleY
p541
aVpreferredAngleZ
p542
asS'isMulti'
p543
I00
sS'isCompound'
p544
I01
sg10
I01
sg11
Vpa
p545
sg13
(lp546
VpreferredAngle.preferredAngleX
p547
aVpreferredAngle.preferredAngleY
p548
aVpreferredAngle.preferredAngleZ
p549
asS'isElement'
p550
I00
ssVtype
p551
(dp552
g33
I00
sg34
Venum
p553
sg36
I00
sg37
I00
sg38
I01
sg39
(lp554
ssVshear.shearXZ
p555
(dp556
g368
I00
sg369
Vdouble
p557
sg371
I00
sg372
I00
sg373
I01
sg11
Vshxz
p558
sg13
(lp559
ssVshear.shearXY
p560
(dp561
g368
I00
sg369
Vdouble
p562
sg371
I00
sg372
I00
sg373
I01
sg11
Vshxy
p563
sg13
(lp564
ssVvisibility
p565
(dp566
S'isArray'
p567
I00
sg4
Vbool
p568
sS'attrChildrenNames'
p569
(lp570
sS'isMulti'
p571
I00
sS'isCompound'
p572
I00
sg10
I01
sg11
Vv
p573
sg13
(lp574
sS'isElement'
p575
I00
ssVbindRotateAxis.bindRotateAxisZ
p576
(dp577
g33
I00
sg34
VdoubleAngle
p578
sg36
I00
sg37
I00
sg38
I01
sg39
(lp579
ssVbindRotateAxis.bindRotateAxisX
p580
(dp581
g33
I00
sg34
VdoubleAngle
p582
sg36
I00
sg37
I00
sg38
I01
sg39
(lp583
ssVbindRotateAxis.bindRotateAxisY
p584
(dp585
g33
I00
sg34
VdoubleAngle
p586
sg36
I00
sg37
I00
sg38
I01
sg39
(lp587
ssVrenderInfo.layerOverrideColor
p588
(dp589
S'isArray'
p590
I00
sS'attrParentLongName'
p591
VrenderInfo
p592
sS'attrChildrenNames'
p593
(lp594
sg23
Vbyte
p595
sS'isMulti'
p596
I00
sS'isCompound'
p597
I00
sg27
I00
sg28
(lp598
sS'isElement'
p599
I00
ssVgeometry
p600
(dp601
S'isArray'
p602
I00
sg23
NsS'attrChildrenNames'
p603
(lp604
sS'isMulti'
p605
I00
sS'isCompound'
p606
I00
sg27
I00
sg28
(lp607
sS'isElement'
p608
I00
ssVdisplayRotatePivot
p609
(dp610
S'isArray'
p611
I00
sg23
Vbool
p612
sS'attrChildrenNames'
p613
(lp614
sS'isMulti'
p615
I00
sS'isCompound'
p616
I00
sg27
I01
sg28
(lp617
sS'isElement'
p618
I00
ssVmaxTransLimitEnable.maxTransXLimitEnable
p619
(dp620
g33
I00
sg34
Vbool
p621
sg36
I00
sg37
I00
sg38
I01
sg39
(lp622
ssVinstObjGroups[0]
p623
(dp624
g234
I00
sg23
VTdataCompound
p625
sg235
(lp626
VinstObjGroups[0].objectGroups
p627
asS'isMulti'
p628
I00
sg27
I00
sg28
(lp629
VinstObjGroups[0].objectGroups
p630
assVmentalRayControls.miCaustic
p631
(dp632
S'isArray'
p633
I00
sS'attrParentLongName'
p634
VmentalRayControls
p635
sS'attrChildrenNames'
p636
(lp637
sg23
Venum
p638
sS'isMulti'
p639
I00
sS'isCompound'
p640
I00
sg27
I01
sg28
(lp641
sS'isElement'
p642
I00
ssVpublishedNodeInfo[0].isHierarchicalNode
p643
(dp644
S'isArray'
p645
I00
sS'attrParentLongName'
p646
VpublishedNodeInfo[0]
p647
sS'attrChildrenNames'
p648
(lp649
sg38
I00
sg28
(lp650
sS'isElement'
p651
I00
ssVboundingBox.boundingBoxSize.boundingBoxSizeY
p652
(dp653
S'isArray'
p654
I00
sS'attrParentLongName'
p655
VboundingBox.boundingBoxSize
p656
sS'attrChildrenNames'
p657
(lp658
sg23
VdoubleLinear
p659
sS'isMulti'
p660
I00
sS'isCompound'
p661
I00
sg27
I01
sg28
(lp662
sS'isElement'
p663
I00
ssVboundingBox.boundingBoxSize.boundingBoxSizeX
p664
(dp665
S'isArray'
p666
I00
sS'attrParentLongName'
p667
VboundingBox.boundingBoxSize
p668
sS'attrChildrenNames'
p669
(lp670
sg23
VdoubleLinear
p671
sS'isMulti'
p672
I00
sS'isCompound'
p673
I00
sg27
I01
sg28
(lp674
sS'isElement'
p675
I00
ssVmentalRayControls.miExportGeoShader
p676
(dp677
S'isArray'
p678
I00
sS'attrParentLongName'
p679
VmentalRayControls
p680
sS'attrChildrenNames'
p681
(lp682
sg23
Vbool
p683
sS'isMulti'
p684
I00
sS'isCompound'
p685
I00
sg27
I01
sg28
(lp686
sS'isElement'
p687
I00
ssVboundingBox.boundingBoxSize.boundingBoxSizeZ
p688
(dp689
S'isArray'
p690
I00
sS'attrParentLongName'
p691
VboundingBox.boundingBoxSize
p692
sS'attrChildrenNames'
p693
(lp694
sg23
VdoubleLinear
p695
sS'isMulti'
p696
I00
sS'isCompound'
p697
I00
sg27
I01
sg28
(lp698
sS'isElement'
p699
I00
ssVtemplateName
p700
(dp701
S'isArray'
p702
I00
sg23
Vstring
p703
sS'attrChildrenNames'
p704
(lp705
sS'isMulti'
p706
I00
sS'isCompound'
p707
I00
sg27
I01
sg28
(lp708
sS'isElement'
p709
I00
ssVghostingControl
p710
(dp711
S'isArray'
p712
I00
sg23
Venum
p713
sS'attrChildrenNames'
p714
(lp715
sS'isMulti'
p716
I00
sS'isCompound'
p717
I00
sg27
I01
sg28
(lp718
sS'isElement'
p719
I00
ssVinverseScale.inverseScaleZ
p720
(dp721
g368
I00
sg369
Vdouble
p722
sg371
I00
sg372
I00
sg373
I01
sg11
Visz
p723
sg13
(lp724
ssVminScaleLimitEnable
p725
(dp726
g33
I00
sg34
VTdataCompound
p727
sg36
I00
sg38
I00
sg39
(lp728
VminScaleLimitEnable.minScaleXLimitEnable
p729
aVminScaleLimitEnable.minScaleYLimitEnable
p730
aVminScaleLimitEnable.minScaleZLimitEnable
p731
assVmentalRayControls.miDeriveFromMaya
p732
(dp733
S'isArray'
p734
I00
sS'attrParentLongName'
p735
VmentalRayControls
p736
sS'attrChildrenNames'
p737
(lp738
sg23
Vbool
p739
sS'isMulti'
p740
I00
sS'isCompound'
p741
I00
sg27
I01
sg28
(lp742
sS'isElement'
p743
I00
ssVdrawOverride.overrideDisplayType
p744
(dp745
S'isArray'
p746
I00
sS'attrParentLongName'
p747
VdrawOverride
p748
sS'attrChildrenNames'
p749
(lp750
sg23
Venum
p751
sS'isMulti'
p752
I00
sS'isCompound'
p753
I00
sg27
I01
sg28
(lp754
sS'isElement'
p755
I00
ssVfkRotate.fkRotateX
p756
(dp757
g33
I00
sg34
VdoubleAngle
p758
sg36
I00
sg37
I00
sg38
I01
sg39
(lp759
ssVfkRotate.fkRotateY
p760
(dp761
g33
I00
sg34
VdoubleAngle
p762
sg36
I00
sg37
I00
sg38
I01
sg39
(lp763
ssVfkRotate.fkRotateZ
p764
(dp765
g33
I00
sg34
VdoubleAngle
p766
sg36
I00
sg37
I00
sg38
I01
sg39
(lp767
ssVminRotLimitEnable
p768
(dp769
g33
I00
sg34
VTdataCompound
p770
sg36
I00
sg38
I00
sg39
(lp771
g362
ag104
aVminRotLimitEnable.minRotZLimitEnable
p772
assVworldMatrix[1]
p773
(dp774
g221
I00
sg13
(lp775
sg226
(lp776
sg288
I00
sg11
Vwm[1]
p777
ssVscalePivotTranslate.scalePivotTranslateZ
p778
(dp779
S'isArray'
p780
I00
sS'attrParentLongName'
p781
VscalePivotTranslate
p782
sS'attrChildrenNames'
p783
(lp784
sg23
VdoubleLinear
p785
sS'isMulti'
p786
I00
sS'isCompound'
p787
I00
sg27
I01
sg28
(lp788
sS'isElement'
p789
I00
ssVscalePivotTranslate.scalePivotTranslateX
p790
(dp791
S'isArray'
p792
I00
sS'attrParentLongName'
p793
VscalePivotTranslate
p794
sS'attrChildrenNames'
p795
(lp796
sg23
VdoubleLinear
p797
sS'isMulti'
p798
I00
sS'isCompound'
p799
I00
sg27
I01
sg28
(lp800
sS'isElement'
p801
I00
ssVscalePivotTranslate.scalePivotTranslateY
p802
(dp803
S'isArray'
p804
I00
sS'attrParentLongName'
p805
VscalePivotTranslate
p806
sS'attrChildrenNames'
p807
(lp808
sg23
VdoubleLinear
p809
sS'isMulti'
p810
I00
sS'isCompound'
p811
I00
sg27
I01
sg28
(lp812
sS'isElement'
p813
I00
ssVminTransLimitEnable
p814
(dp815
g33
I00
sg34
VTdataCompound
p816
sg36
I00
sg38
I00
sg39
(lp817
VminTransLimitEnable.minTransXLimitEnable
p818
ag31
aVminTransLimitEnable.minTransZLimitEnable
p819
assVparentInverseMatrix[2]
p820
(dp821
g234
I00
sg235
(lp822
sS'isSimple'
p823
I00
sg13
(lp824
ssVghostFrames
p825
(dp826
S'isArray'
p827
I00
sg23
NsS'attrChildrenNames'
p828
(lp829
sS'isMulti'
p830
I00
sS'isCompound'
p831
I00
sg27
I00
sg28
(lp832
sS'isElement'
p833
I00
ssVpreferredAngleZ
p834
(dp835
S'isArray'
p836
I00
sS'attrParentLongName'
p837
VpreferredAngle
p838
sS'attrChildrenNames'
p839
(lp840
sg4
VdoubleAngle
p841
sS'isMulti'
p842
I00
sS'isCompound'
p843
I00
sg10
I01
sS'isElement'
p844
I00
ssVpreferredAngleY
p845
(dp846
S'isArray'
p847
I00
sS'attrParentLongName'
p848
VpreferredAngle
p849
sS'attrChildrenNames'
p850
(lp851
sg4
VdoubleAngle
p852
sS'isMulti'
p853
I00
sS'isCompound'
p854
I00
sg10
I01
sS'isElement'
p855
I00
ssVpreferredAngleX
p856
(dp857
S'isArray'
p858
I00
sS'attrParentLongName'
p859
VpreferredAngle
p860
sS'attrChildrenNames'
p861
(lp862
sg4
VdoubleAngle
p863
sS'isMulti'
p864
I00
sS'isCompound'
p865
I00
sg10
I01
sS'isElement'
p866
I00
ssVdrawOverride.overrideColor
p867
(dp868
S'isArray'
p869
I00
sS'attrParentLongName'
p870
VdrawOverride
p871
sS'attrChildrenNames'
p872
(lp873
sg23
Vbyte
p874
sS'isMulti'
p875
I00
sS'isCompound'
p876
I00
sg27
I00
sg28
(lp877
sS'isElement'
p878
I00
ssVrenderLayerInfo.renderLayerId
p879
(dp880
g43
VrenderLayerInfo
p881
ssVbindPose
p882
(dp883
S'isArray'
p884
I00
sg23
Vmatrix
p885
sS'attrChildrenNames'
p886
(lp887
sS'isMulti'
p888
I00
sS'isCompound'
p889
I00
sg27
I00
sg28
(lp890
sS'isElement'
p891
I00
ssVminScaleLimit.minScaleXLimit
p892
(dp893
g33
I00
sg34
Vdouble
p894
sg36
I00
sg37
I00
sg38
I01
sg39
(lp895
ssVcustomTreatment
p896
(dp897
S'isArray'
p898
I00
sg23
Vstring
p899
sS'attrChildrenNames'
p900
(lp901
sS'isMulti'
p902
I00
sS'isCompound'
p903
I00
sg27
I01
sg28
(lp904
sS'isElement'
p905
I00
ssVtemplatePath
p906
(dp907
S'isArray'
p908
I00
sg23
Vstring
p909
sS'attrChildrenNames'
p910
(lp911
sS'isMulti'
p912
I00
sS'isCompound'
p913
I00
sg27
I01
sg28
(lp914
sS'isElement'
p915
I00
ssVshear
p916
(dp917
S'isArray'
p918
I00
sg4
Vdouble3
p919
sS'attrChildrenNames'
p920
(lp921
VshearXY
p922
aVshearXZ
p923
aVshearYZ
p924
asS'isMulti'
p925
I00
sS'isCompound'
p926
I01
sg10
I01
sg11
Vsh
p927
sg13
(lp928
g560
ag555
aVshear.shearYZ
p929
asS'isElement'
p930
I00
ssVdrawStyle
p931
(dp932
g33
I00
sg34
Venum
p933
sg36
I00
sg37
I00
sg38
I01
sg39
(lp934
ssVinstObjGroups.objectGroups.objectGrpColor
p935
(dp936
g43
VinstObjGroups.objectGroups
p937
ssVcreationDate
p938
(dp939
S'isArray'
p940
I00
sg23
Vstring
p941
sS'attrChildrenNames'
p942
(lp943
sS'isMulti'
p944
I00
sS'isCompound'
p945
I00
sg27
I01
sg28
(lp946
sS'isElement'
p947
I00
ssVjointTypeZ
p948
(dp949
S'isArray'
p950
I00
sg23
Vbool
p951
sS'attrChildrenNames'
p952
(lp953
sS'isMulti'
p954
I00
sS'isCompound'
p955
I00
sg27
I01
sg28
(lp956
sS'isElement'
p957
I00
ssVjointTypeX
p958
(dp959
S'isArray'
p960
I00
sg23
Vbool
p961
sS'attrChildrenNames'
p962
(lp963
sS'isMulti'
p964
I00
sS'isCompound'
p965
I00
sg27
I01
sg28
(lp966
sS'isElement'
p967
I00
ssVjointTypeY
p968
(dp969
S'isArray'
p970
I00
sg23
Vbool
p971
sS'attrChildrenNames'
p972
(lp973
sS'isMulti'
p974
I00
sS'isCompound'
p975
I00
sg27
I01
sg28
(lp976
sS'isElement'
p977
I00
ssVisHierarchicalConnection[1]
p978
(dp979
g33
I00
sg38
I00
sg39
(lp980
ssg210
(dp981
g33
I00
sg34
VdoubleAngle
p982
sS'isMulti'
p983
I00
sS'isCompound'
p984
I00
sg38
I01
sg39
(lp985
ssVrotatePivot.rotatePivotZ
p986
(dp987
S'isArray'
p988
I00
sS'attrParentLongName'
p989
VrotatePivot
p990
sS'attrChildrenNames'
p991
(lp992
sg23
VdoubleLinear
p993
sS'isMulti'
p994
I00
sS'isCompound'
p995
I00
sg27
I01
sg28
(lp996
sS'isElement'
p997
I00
ssVside
p998
(dp999
g33
I00
sg34
Venum
p1000
sg36
I00
sg37
I00
sg38
I01
sg39
(lp1001
ssVrotatePivot.rotatePivotX
p1002
(dp1003
S'isArray'
p1004
I00
sS'attrParentLongName'
p1005
VrotatePivot
p1006
sS'attrChildrenNames'
p1007
(lp1008
sg23
VdoubleLinear
p1009
sS'isMulti'
p1010
I00
sS'isCompound'
p1011
I00
sg27
I01
sg28
(lp1012
sS'isElement'
p1013
I00
ssVrotatePivot.rotatePivotY
p1014
(dp1015
S'isArray'
p1016
I00
sS'attrParentLongName'
p1017
VrotatePivot
p1018
sS'attrChildrenNames'
p1019
(lp1020
sg23
VdoubleLinear
p1021
sS'isMulti'
p1022
I00
sS'isCompound'
p1023
I00
sg27
I01
sg28
(lp1024
sS'isElement'
p1025
I00
ssVinverseScaleZ
p1026
(dp1027
S'isArray'
p1028
I00
sS'attrParentLongName'
p1029
VinverseScale
p1030
sS'attrChildrenNames'
p1031
(lp1032
sg4
Vdouble
p1033
sS'isMulti'
p1034
I00
sS'isCompound'
p1035
I00
sg10
I01
sS'isElement'
p1036
I00
ssVinverseScaleY
p1037
(dp1038
S'isArray'
p1039
I00
sS'attrParentLongName'
p1040
VinverseScale
p1041
sS'attrChildrenNames'
p1042
(lp1043
sg4
Vdouble
p1044
sS'isMulti'
p1045
I00
sS'isCompound'
p1046
I00
sg10
I01
sS'isElement'
p1047
I00
ssVinverseScaleX
p1048
(dp1049
S'isArray'
p1050
I00
sS'attrParentLongName'
p1051
VinverseScale
p1052
sS'attrChildrenNames'
p1053
(lp1054
sg4
Vdouble
p1055
sS'isMulti'
p1056
I00
sS'isCompound'
p1057
I00
sg10
I01
sS'isElement'
p1058
I00
ssVnodeState
p1059
(dp1060
S'isArray'
p1061
I00
sg23
Venum
p1062
sS'attrChildrenNames'
p1063
(lp1064
sS'isMulti'
p1065
I00
sS'isCompound'
p1066
I00
sg27
I01
sg28
(lp1067
sS'isElement'
p1068
I00
ssVworldMatrix[2]
p1069
(dp1070
S'isArray'
p1071
I00
sS'attrChildrenNames'
p1072
(lp1073
sg288
I00
sg13
(lp1074
ssVinstObjGroups[1].objectGroups
p1075
(dp1076
g486
I01
sg38
I00
ssVmatrix
p1077
(dp1078
S'isArray'
p1079
I00
sg4
Vmatrix
p1080
sS'attrChildrenNames'
p1081
(lp1082
sS'isMulti'
p1083
I00
sS'isCompound'
p1084
I00
sg10
I00
sg11
Vm
p1085
sg13
(lp1086
sS'isElement'
p1087
I00
ssVworldInverseMatrix[2]
p1088
(dp1089
S'isArray'
p1090
I00
sS'attrChildrenNames'
p1091
(lp1092
sS'attrChildrenLongNames'
p1093
(lp1094
ssVselectHandle.selectHandleX
p1095
(dp1096
S'isArray'
p1097
I00
sS'attrParentLongName'
p1098
VselectHandle
p1099
sS'attrChildrenNames'
p1100
(lp1101
sg23
VdoubleLinear
p1102
sS'isMulti'
p1103
I00
sS'isCompound'
p1104
I00
sg27
I01
sg28
(lp1105
sS'isElement'
p1106
I00
ssVghostCustomSteps
p1107
(dp1108
S'isArray'
p1109
I00
sg23
VTdataCompound
p1110
sS'attrChildrenNames'
p1111
(lp1112
VghostCustomSteps.ghostPreSteps
p1113
aVghostCustomSteps.ghostPostSteps
p1114
aVghostCustomSteps.ghostStepSize
p1115
asS'isMulti'
p1116
I00
sS'isCompound'
p1117
I01
sg27
I00
sg28
(lp1118
VghostCustomSteps.ghostPreSteps
p1119
aVghostCustomSteps.ghostPostSteps
p1120
aVghostCustomSteps.ghostStepSize
p1121
asS'isElement'
p1122
I00
ssVselectHandle.selectHandleZ
p1123
(dp1124
S'isArray'
p1125
I00
sS'attrParentLongName'
p1126
VselectHandle
p1127
sS'attrChildrenNames'
p1128
(lp1129
sg23
VdoubleLinear
p1130
sS'isMulti'
p1131
I00
sS'isCompound'
p1132
I00
sg27
I01
sg28
(lp1133
sS'isElement'
p1134
I00
ssVmaxRotLimitEnable.maxRotZLimitEnable
p1135
(dp1136
g33
I00
sg34
Vbool
p1137
sg36
I00
sg37
I00
sg38
I01
sg39
(lp1138
ssVworldMatrix
p1139
(dp1140
S'isArray'
p1141
I01
sg4
Vmatrix
p1142
sS'isMulti'
p1143
I01
sg10
I00
sg11
Vwm
p1144
sS'isElement'
p1145
I00
ssVcontainerType
p1146
(dp1147
S'isArray'
p1148
I00
sg23
Vstring
p1149
sS'attrChildrenNames'
p1150
(lp1151
sS'isMulti'
p1152
I00
sS'isCompound'
p1153
I00
sg27
I01
sg28
(lp1154
sS'isElement'
p1155
I00
ssVminScaleLimit.minScaleZLimit
p1156
(dp1157
g33
I00
sg34
Vdouble
p1158
sg36
I00
sg37
I00
sg38
I01
sg39
(lp1159
ssVparentInverseMatrix
p1160
(dp1161
S'isArray'
p1162
I01
sg4
Vmatrix
p1163
sS'isMulti'
p1164
I01
sg10
I00
sg11
Vpim
p1165
sS'isElement'
p1166
I00
ssVminRotateDampRange.minRotateDampRangeX
p1167
(dp1168
S'isArray'
p1169
I00
sS'attrParentLongName'
p1170
VminRotateDampRange
p1171
sS'attrChildrenNames'
p1172
(lp1173
sg23
VdoubleAngle
p1174
sS'isMulti'
p1175
I00
sS'isCompound'
p1176
I00
sg27
I01
sg28
(lp1177
sS'isElement'
p1178
I00
ssVminRotateDampRange.minRotateDampRangeY
p1179
(dp1180
S'isArray'
p1181
I00
sS'attrParentLongName'
p1182
VminRotateDampRange
p1183
sS'attrChildrenNames'
p1184
(lp1185
sg23
VdoubleAngle
p1186
sS'isMulti'
p1187
I00
sS'isCompound'
p1188
I00
sg27
I01
sg28
(lp1189
sS'isElement'
p1190
I00
ssVminRotateDampRange.minRotateDampRangeZ
p1191
(dp1192
S'isArray'
p1193
I00
sS'attrParentLongName'
p1194
VminRotateDampRange
p1195
sS'attrChildrenNames'
p1196
(lp1197
sg23
VdoubleAngle
p1198
sS'isMulti'
p1199
I00
sS'isCompound'
p1200
I00
sg27
I01
sg28
(lp1201
sS'isElement'
p1202
I00
ssVrenderInfo.layerRenderable
p1203
(dp1204
S'isArray'
p1205
I00
sS'attrParentLongName'
p1206
VrenderInfo
p1207
sS'attrChildrenNames'
p1208
(lp1209
sg23
Vbool
p1210
sS'isMulti'
p1211
I00
sS'isCompound'
p1212
I00
sg27
I01
sg28
(lp1213
sS'isElement'
p1214
I00
ssVjointOrient
p1215
(dp1216
S'isArray'
p1217
I00
sg4
Vdouble3
p1218
sS'attrChildrenNames'
p1219
(lp1220
VjointOrientX
p1221
aVjointOrientY
p1222
aVjointOrientZ
p1223
asS'isMulti'
p1224
I00
sS'isCompound'
p1225
I01
sg10
I01
sg11
Vjo
p1226
sg13
(lp1227
VjointOrient.jointOrientX
p1228
aVjointOrient.jointOrientY
p1229
aVjointOrient.jointOrientZ
p1230
asS'isElement'
p1231
I00
ssVrmbCommand
p1232
(dp1233
g33
I00
sg34
Vstring
p1234
sg36
I00
sg37
I00
sg38
I01
sg39
(lp1235
ssVghostCustomSteps.ghostPreSteps
p1236
(dp1237
S'isArray'
p1238
I00
sS'attrParentLongName'
p1239
VghostCustomSteps
p1240
sS'attrChildrenNames'
p1241
(lp1242
sg23
Vlong
p1243
sS'isMulti'
p1244
I00
sS'isCompound'
p1245
I00
sg27
I01
sg28
(lp1246
sS'isElement'
p1247
I00
ssVpublishedNodeInfo[1].publishedNodeType
p1248
(dp1249
g486
I00
sg38
I00
sg28
(lp1250
ssVminRotateDampRange
p1251
(dp1252
S'isArray'
p1253
I00
sg23
Vdouble3
p1254
sS'attrChildrenNames'
p1255
(lp1256
VminRotateDampRange.minRotateDampRangeX
p1257
aVminRotateDampRange.minRotateDampRangeY
p1258
aVminRotateDampRange.minRotateDampRangeZ
p1259
asS'isMulti'
p1260
I00
sS'isCompound'
p1261
I01
sg27
I01
sg28
(lp1262
VminRotateDampRange.minRotateDampRangeX
p1263
aVminRotateDampRange.minRotateDampRangeY
p1264
aVminRotateDampRange.minRotateDampRangeZ
p1265
asS'isElement'
p1266
I00
ssVisHierarchicalConnection
p1267
(dp1268
g33
I01
sg34
VTdataCompound
p1269
sg38
I00
sg36
I01
ssg929
(dp1270
g368
I00
sg369
Vdouble
p1271
sg371
I00
sg372
I00
sg373
I01
sg11
Vshyz
p1272
sg13
(lp1273
ssVscaleY
p1274
(dp1275
S'isArray'
p1276
I00
sS'attrParentLongName'
p1277
Vscale
p1278
sS'attrChildrenNames'
p1279
(lp1280
sg4
Vdouble
p1281
sS'isMulti'
p1282
I00
sS'isCompound'
p1283
I00
sg10
I01
sS'isElement'
p1284
I00
ssVmessage
p1285
(dp1286
g234
I00
sg235
(lp1287
ssg208
(dp1288
g33
I00
sg34
VdoubleAngle
p1289
sg983
I00
sg984
I00
sg38
I01
sg39
(lp1290
ssVshearYZ
p1291
(dp1292
S'isArray'
p1293
I00
sS'attrParentLongName'
p1294
Vshear
p1295
sS'attrChildrenNames'
p1296
(lp1297
sg4
Vdouble
p1298
sS'isMulti'
p1299
I00
sS'isCompound'
p1300
I00
sg10
I01
sS'isElement'
p1301
I00
ssVcreator
p1302
(dp1303
S'isArray'
p1304
I00
sg23
Vstring
p1305
sS'attrChildrenNames'
p1306
(lp1307
sS'isMulti'
p1308
I00
sS'isCompound'
p1309
I00
sg27
I01
sg28
(lp1310
sS'isElement'
p1311
I00
ssVxformMatrix
p1312
(dp1313
S'isArray'
p1314
I00
sg23
Vmatrix
p1315
sS'attrChildrenNames'
p1316
(lp1317
sS'isMulti'
p1318
I00
sS'isCompound'
p1319
I00
sg27
I00
sg28
(lp1320
sS'isElement'
p1321
I00
ssVinstObjGroups[1]
p1322
(dp1323
g234
I00
sg235
(lp1324
VinstObjGroups[1].objectGroups
p1325
asg38
I00
sg28
(lp1326
g1075
assVparentMatrix[1]
p1327
(dp1328
g221
I00
sg13
(lp1329
sg226
(lp1330
sg288
I00
sg11
Vpm[1]
p1331
ssVrenderInfo
p1332
(dp1333
S'isArray'
p1334
I00
sg23
VTdataCompound
p1335
sS'attrChildrenNames'
p1336
(lp1337
VrenderInfo.identification
p1338
aVrenderInfo.layerRenderable
p1339
aVrenderInfo.layerOverrideColor
p1340
asS'isMulti'
p1341
I00
sS'isCompound'
p1342
I01
sg27
I00
sg28
(lp1343
VrenderInfo.identification
p1344
aVrenderInfo.layerRenderable
p1345
aVrenderInfo.layerOverrideColor
p1346
asS'isElement'
p1347
I00
ssVisIKDirtyFlag
p1348
(dp1349
g33
I00
sg34
Vbool
p1350
sg983
I00
sg984
I00
sg38
I01
sg39
(lp1351
ssVmaxScaleLimit.maxScaleZLimit
p1352
(dp1353
g33
I00
sg34
Vdouble
p1354
sg36
I00
sg37
I00
sg38
I01
sg39
(lp1355
ssVcenter
p1356
(dp1357
S'isArray'
p1358
I00
sg23
Vdouble3
p1359
sS'attrChildrenNames'
p1360
(lp1361
Vcenter.boundingBoxCenterX
p1362
aVcenter.boundingBoxCenterY
p1363
aVcenter.boundingBoxCenterZ
p1364
asS'isMulti'
p1365
I00
sS'isCompound'
p1366
I01
sg27
I01
sg28
(lp1367
Vcenter.boundingBoxCenterX
p1368
aVcenter.boundingBoxCenterY
p1369
aVcenter.boundingBoxCenterZ
p1370
asS'isElement'
p1371
I00
ssVshearXZ
p1372
(dp1373
S'isArray'
p1374
I00
sS'attrParentLongName'
p1375
Vshear
p1376
sS'attrChildrenNames'
p1377
(lp1378
sg4
Vdouble
p1379
sS'isMulti'
p1380
I00
sS'isCompound'
p1381
I00
sg10
I01
sS'isElement'
p1382
I00
ssVmaxScaleLimit.maxScaleXLimit
p1383
(dp1384
g33
I00
sg34
Vdouble
p1385
sg36
I00
sg37
I00
sg38
I01
sg39
(lp1386
ssVinverseScale
p1387
(dp1388
S'isArray'
p1389
I00
sg4
Vdouble3
p1390
sS'attrChildrenNames'
p1391
(lp1392
VinverseScaleX
p1393
aVinverseScaleY
p1394
aVinverseScaleZ
p1395
asS'isMulti'
p1396
I00
sS'isCompound'
p1397
I01
sg10
I01
sg11
Vis
p1398
sg13
(lp1399
g366
ag376
ag720
asS'isElement'
p1400
I00
ssVscalePivot
p1401
(dp1402
S'isArray'
p1403
I00
sg23
Vdouble3
p1404
sS'attrChildrenNames'
p1405
(lp1406
VscalePivot.scalePivotX
p1407
aVscalePivot.scalePivotY
p1408
aVscalePivot.scalePivotZ
p1409
asS'isMulti'
p1410
I00
sS'isCompound'
p1411
I01
sg27
I01
sg28
(lp1412
VscalePivot.scalePivotX
p1413
aVscalePivot.scalePivotY
p1414
aVscalePivot.scalePivotZ
p1415
asS'isElement'
p1416
I00
ssVworldInverseMatrix[0]
p1417
(dp1418
g221
I00
sg222
Vmatrix
p1419
sg226
(lp1420
sg228
I00
sg229
I00
sg11
Vwim[0]
p1421
sg13
(lp1422
ssVboundingBox.boundingBoxMax.boundingBoxMaxY
p1423
(dp1424
S'isArray'
p1425
I00
sS'attrParentLongName'
p1426
VboundingBox.boundingBoxMax
p1427
sS'attrChildrenNames'
p1428
(lp1429
sg23
VdoubleLinear
p1430
sS'isMulti'
p1431
I00
sS'isCompound'
p1432
I00
sg27
I01
sg28
(lp1433
sS'isElement'
p1434
I00
ssVboundingBox.boundingBoxMax.boundingBoxMaxX
p1435
(dp1436
S'isArray'
p1437
I00
sS'attrParentLongName'
p1438
VboundingBox.boundingBoxMax
p1439
sS'attrChildrenNames'
p1440
(lp1441
sg23
VdoubleLinear
p1442
sS'isMulti'
p1443
I00
sS'isCompound'
p1444
I00
sg27
I01
sg28
(lp1445
sS'isElement'
p1446
I00
ssVboundingBox.boundingBoxMax.boundingBoxMaxZ
p1447
(dp1448
S'isArray'
p1449
I00
sS'attrParentLongName'
p1450
VboundingBox.boundingBoxMax
p1451
sS'attrChildrenNames'
p1452
(lp1453
sg23
VdoubleLinear
p1454
sS'isMulti'
p1455
I00
sS'isCompound'
p1456
I00
sg27
I01
sg28
(lp1457
sS'isElement'
p1458
I00
ssVinstObjGroups[0].objectGroups[1].objectGrpColor
p1459
(dp1460
g486
I00
sg38
I00
sg28
(lp1461
ssVisCollapsed
p1462
(dp1463
S'isArray'
p1464
I00
sg23
Vbool
p1465
sS'attrChildrenNames'
p1466
(lp1467
sS'isMulti'
p1468
I00
sS'isCompound'
p1469
I00
sg27
I01
sg28
(lp1470
sS'isElement'
p1471
I00
ssVbindScale
p1472
(dp1473
g33
I00
sg34
Vdouble3
p1474
sg36
I00
sg37
I01
sg38
I01
sg39
(lp1475
VbindScale.bindScaleX
p1476
aVbindScale.bindScaleY
p1477
aVbindScale.bindScaleZ
p1478
assVboundingBox
p1479
(dp1480
S'isArray'
p1481
I00
sg23
VTdataCompound
p1482
sS'attrChildrenNames'
p1483
(lp1484
VboundingBox.boundingBoxMin
p1485
aVboundingBox.boundingBoxMax
p1486
aVboundingBox.boundingBoxSize
p1487
asS'isMulti'
p1488
I00
sS'isCompound'
p1489
I01
sg27
I00
sg28
(lp1490
VboundingBox.boundingBoxMin
p1491
aVboundingBox.boundingBoxMax
p1492
aVboundingBox.boundingBoxSize
p1493
asS'isElement'
p1494
I00
ssVjointType
p1495
(dp1496
g33
I00
sg34
Vstring
p1497
sg36
I00
sg37
I00
sg38
I01
sg39
(lp1498
ssVmaxTransLimit.maxTransXLimit
p1499
(dp1500
g33
I00
sg34
VdoubleLinear
p1501
sg36
I00
sg37
I00
sg38
I01
sg39
(lp1502
ssVmaxScaleLimit.maxScaleYLimit
p1503
(dp1504
g33
I00
sg34
Vdouble
p1505
sg36
I00
sg37
I00
sg38
I01
sg39
(lp1506
ssVmaxRotateDampStrength.maxRotateDampStrengthZ
p1507
(dp1508
S'isArray'
p1509
I00
sS'attrParentLongName'
p1510
VmaxRotateDampStrength
p1511
sS'attrChildrenNames'
p1512
(lp1513
sg23
Vdouble
p1514
sS'isMulti'
p1515
I00
sS'isCompound'
p1516
I00
sg27
I01
sg28
(lp1517
sS'isElement'
p1518
I00
ssVmaxRotateDampStrength.maxRotateDampStrengthX
p1519
(dp1520
S'isArray'
p1521
I00
sS'attrParentLongName'
p1522
VmaxRotateDampStrength
p1523
sS'attrChildrenNames'
p1524
(lp1525
sg23
Vdouble
p1526
sS'isMulti'
p1527
I00
sS'isCompound'
p1528
I00
sg27
I01
sg28
(lp1529
sS'isElement'
p1530
I00
ssVmaxRotateDampStrength.maxRotateDampStrengthY
p1531
(dp1532
S'isArray'
p1533
I00
sS'attrParentLongName'
p1534
VmaxRotateDampStrength
p1535
sS'attrChildrenNames'
p1536
(lp1537
sg23
Vdouble
p1538
sS'isMulti'
p1539
I00
sS'isCompound'
p1540
I00
sg27
I01
sg28
(lp1541
sS'isElement'
p1542
I00
ssVuiTreatment
p1543
(dp1544
S'isArray'
p1545
I00
sg23
Venum
p1546
sS'attrChildrenNames'
p1547
(lp1548
sS'isMulti'
p1549
I00
sS'isCompound'
p1550
I00
sg27
I01
sg28
(lp1551
sS'isElement'
p1552
I00
ssVmaxRotateDampRange
p1553
(dp1554
S'isArray'
p1555
I00
sg23
Vdouble3
p1556
sS'attrChildrenNames'
p1557
(lp1558
VmaxRotateDampRange.maxRotateDampRangeX
p1559
aVmaxRotateDampRange.maxRotateDampRangeY
p1560
aVmaxRotateDampRange.maxRotateDampRangeZ
p1561
asS'isMulti'
p1562
I00
sS'isCompound'
p1563
I01
sg27
I01
sg28
(lp1564
VmaxRotateDampRange.maxRotateDampRangeX
p1565
aVmaxRotateDampRange.maxRotateDampRangeY
p1566
aVmaxRotateDampRange.maxRotateDampRangeZ
p1567
asS'isElement'
p1568
I00
ssVrotate.rotateZ
p1569
(dp1570
g368
I00
sg369
VdoubleAngle
p1571
sg371
I00
sS'isWritable'
p1572
I01
sg372
I00
sg373
I01
sg11
Vrz
p1573
sg13
(lp1574
ssVinstObjGroups[0].objectGroups[0].objectGrpColor
p1575
(dp1576
S'isArray'
p1577
I00
sS'attrParentLongName'
p1578
VinstObjGroups[0].objectGroups[0]
p1579
sS'attrChildrenNames'
p1580
(lp1581
sg38
I00
sg28
(lp1582
sS'isElement'
p1583
I00
ssVrotate.rotateX
p1584
(dp1585
g368
I00
sg369
VdoubleAngle
p1586
sg371
I00
sg372
I00
sg373
I01
sg11
Vrx
p1587
sg13
(lp1588
ssVrotate.rotateY
p1589
(dp1590
g368
I00
sg369
VdoubleAngle
p1591
sg371
I00
sg372
I00
sg373
I01
sg11
Vry
p1592
sg13
(lp1593
ssVcaching
p1594
(dp1595
S'isArray'
p1596
I00
sg23
Vbool
p1597
sS'attrChildrenNames'
p1598
(lp1599
sS'isMulti'
p1600
I00
sS'isCompound'
p1601
I00
sg27
I01
sg28
(lp1602
sS'isElement'
p1603
I00
ssVrenderLayerInfo[1].renderLayerRenderable
p1604
(dp1605
g486
I00
sg38
I00
sg28
(lp1606
ssVtranslate.translateZ
p1607
(dp1608
g368
I00
sg369
VdoubleLinear
p1609
sg371
I00
sg372
I00
sg373
I01
sg11
Vtz
p1610
sg13
(lp1611
ssVtranslate.translateX
p1612
(dp1613
g368
I00
sg369
VdoubleLinear
p1614
sS'attrParentLongName'
p1615
Vtranslate
p1616
sg371
I00
sg372
I00
sg373
I01
sg11
Vtx
p1617
sg13
(lp1618
ssVtranslate.translateY
p1619
(dp1620
g368
I00
sg369
VdoubleLinear
p1621
sS'attrParentLongName'
p1622
Vtranslate
p1623
sg371
I00
sg372
I00
sg373
I01
sg11
Vty
p1624
sg13
(lp1625
ssVinstObjGroups[0].objectGroups[1].objectGroupId
p1626
(dp1627
g486
I00
sg38
I00
sg28
(lp1628
ssVmentalRayControls.miVisible
p1629
(dp1630
S'isArray'
p1631
I00
sS'attrParentLongName'
p1632
VmentalRayControls
p1633
sS'attrChildrenNames'
p1634
(lp1635
sg23
Venum
p1636
sS'isMulti'
p1637
I00
sS'isCompound'
p1638
I00
sg27
I01
sg28
(lp1639
sS'isElement'
p1640
I00
ssVuseObjectColor
p1641
(dp1642
S'isArray'
p1643
I00
sg23
Vbool
p1644
sS'attrChildrenNames'
p1645
(lp1646
sS'isMulti'
p1647
I00
sS'isCompound'
p1648
I00
sg27
I01
sg28
(lp1649
sS'isElement'
p1650
I00
ssVdrawOverride.overrideLevelOfDetail
p1651
(dp1652
S'isArray'
p1653
I00
sS'attrParentLongName'
p1654
VdrawOverride
p1655
sS'attrChildrenNames'
p1656
(lp1657
sg23
Venum
p1658
sS'isMulti'
p1659
I00
sS'isCompound'
p1660
I00
sg27
I01
sg28
(lp1661
sS'isElement'
p1662
I00
ssVinstObjGroups[0].objectGroups[0].objectGroupId
p1663
(dp1664
S'isArray'
p1665
I00
sS'attrParentLongName'
p1666
VinstObjGroups[0].objectGroups[0]
p1667
sS'attrChildrenNames'
p1668
(lp1669
sg38
I00
sg28
(lp1670
sS'isElement'
p1671
I00
ssVmaxRotLimitEnable.maxRotXLimitEnable
p1672
(dp1673
g33
I00
sg34
Vbool
p1674
sg36
I00
sg37
I00
sg38
I01
sg39
(lp1675
ssVparentMatrix[2]
p1676
(dp1677
g1090
I00
sg1091
(lp1678
sg823
I00
sg13
(lp1679
ssVtransMinusRotatePivot
p1680
(dp1681
S'isArray'
p1682
I00
sg23
Vdouble3
p1683
sS'attrChildrenNames'
p1684
(lp1685
VtransMinusRotatePivot.transMinusRotatePivotX
p1686
aVtransMinusRotatePivot.transMinusRotatePivotY
p1687
aVtransMinusRotatePivot.transMinusRotatePivotZ
p1688
asS'isMulti'
p1689
I00
sS'isCompound'
p1690
I01
sg27
I01
sg28
(lp1691
VtransMinusRotatePivot.transMinusRotatePivotX
p1692
aVtransMinusRotatePivot.transMinusRotatePivotY
p1693
aVtransMinusRotatePivot.transMinusRotatePivotZ
p1694
asS'isElement'
p1695
I00
ssVbinMembership
p1696
(dp1697
g33
I00
sg34
Vstring
p1698
sg36
I00
sg37
I00
sg38
I01
sg39
(lp1699
ssVrenderLayerInfo[0].renderLayerRenderable
p1700
(dp1701
S'isArray'
p1702
I00
sS'attrParentLongName'
p1703
VrenderLayerInfo[0]
p1704
sS'attrChildrenNames'
p1705
(lp1706
sg38
I00
sg28
(lp1707
sS'isElement'
p1708
I00
ssVmaxScaleLimitEnable.maxScaleXLimitEnable
p1709
(dp1710
g33
I00
sg34
Vbool
p1711
sg36
I00
sg37
I00
sg38
I01
sg39
(lp1712
ssVbindSegmentScaleCompensate
p1713
(dp1714
g33
I00
sg34
Vbool
p1715
sg36
I00
sg37
I00
sg38
I01
sg39
(lp1716
ssVparentMatrix
p1717
(dp1718
S'isArray'
p1719
I01
sg4
Vmatrix
p1720
sS'isMulti'
p1721
I01
sg10
I00
sg11
Vpm
p1722
sS'isElement'
p1723
I00
ssg819
(dp1724
g33
I00
sg34
Vbool
p1725
sg36
I00
sg37
I00
sg38
I01
sg39
(lp1726
ssVscalePivotTranslate
p1727
(dp1728
S'isArray'
p1729
I00
sg23
Vdouble3
p1730
sS'attrChildrenNames'
p1731
(lp1732
VscalePivotTranslate.scalePivotTranslateX
p1733
aVscalePivotTranslate.scalePivotTranslateY
p1734
aVscalePivotTranslate.scalePivotTranslateZ
p1735
asS'isMulti'
p1736
I00
sS'isCompound'
p1737
I01
sg27
I01
sg28
(lp1738
VscalePivotTranslate.scalePivotTranslateX
p1739
aVscalePivotTranslate.scalePivotTranslateY
p1740
aVscalePivotTranslate.scalePivotTranslateZ
p1741
asS'isElement'
p1742
I00
ssVsegmentScaleCompensate
p1743
(dp1744
S'isArray'
p1745
I00
sg4
Vbool
p1746
sS'attrChildrenNames'
p1747
(lp1748
sS'isMulti'
p1749
I00
sS'isCompound'
p1750
I00
sg10
I01
sg11
Vssc
p1751
sg13
(lp1752
sS'isElement'
p1753
I00
ssVdrawOverride.overrideEnabled
p1754
(dp1755
S'isArray'
p1756
I00
sS'attrParentLongName'
p1757
VdrawOverride
p1758
sS'attrChildrenNames'
p1759
(lp1760
sg23
Vbool
p1761
sS'isMulti'
p1762
I00
sS'isCompound'
p1763
I00
sg27
I01
sg28
(lp1764
sS'isElement'
p1765
I00
ssVboundingBox.boundingBoxMax
p1766
(dp1767
S'isArray'
p1768
I00
sS'attrParentLongName'
p1769
VboundingBox
p1770
sS'attrChildrenNames'
p1771
(lp1772
VboundingBox.boundingBoxMax.boundingBoxMaxX
p1773
aVboundingBox.boundingBoxMax.boundingBoxMaxY
p1774
aVboundingBox.boundingBoxMax.boundingBoxMaxZ
p1775
asg23
Vdouble3
p1776
sS'isMulti'
p1777
I00
sS'isCompound'
p1778
I01
sg27
I01
sg28
(lp1779
VboundingBox.boundingBoxMax.boundingBoxMaxX
p1780
aVboundingBox.boundingBoxMax.boundingBoxMaxY
p1781
aVboundingBox.boundingBoxMax.boundingBoxMaxZ
p1782
asS'isElement'
p1783
I00
ssVrotateAxis
p1784
(dp1785
S'isArray'
p1786
I00
sg23
Vdouble3
p1787
sS'attrChildrenNames'
p1788
(lp1789
VrotateAxis.rotateAxisX
p1790
aVrotateAxis.rotateAxisY
p1791
aVrotateAxis.rotateAxisZ
p1792
asS'isMulti'
p1793
I00
sS'isCompound'
p1794
I01
sg27
I01
sg28
(lp1795
VrotateAxis.rotateAxisX
p1796
aVrotateAxis.rotateAxisY
p1797
aVrotateAxis.rotateAxisZ
p1798
asS'isElement'
p1799
I00
ssVbindInverseScale
p1800
(dp1801
g33
I00
sg34
Vdouble3
p1802
sg36
I00
sg37
I01
sg38
I01
sg39
(lp1803
VbindInverseScale.bindInverseScaleX
p1804
aVbindInverseScale.bindInverseScaleY
p1805
aVbindInverseScale.bindInverseScaleZ
p1806
assVrotateAxis.rotateAxisX
p1807
(dp1808
S'isArray'
p1809
I00
sS'attrParentLongName'
p1810
VrotateAxis
p1811
sS'attrChildrenNames'
p1812
(lp1813
sg23
VdoubleAngle
p1814
sS'isMulti'
p1815
I00
sS'isCompound'
p1816
I00
sg27
I01
sg28
(lp1817
sS'isElement'
p1818
I00
ssVrotateAxis.rotateAxisY
p1819
(dp1820
S'isArray'
p1821
I00
sS'attrParentLongName'
p1822
VrotateAxis
p1823
sS'attrChildrenNames'
p1824
(lp1825
sg23
VdoubleAngle
p1826
sS'isMulti'
p1827
I00
sS'isCompound'
p1828
I00
sg27
I01
sg28
(lp1829
sS'isElement'
p1830
I00
ssVrotateAxis.rotateAxisZ
p1831
(dp1832
S'isArray'
p1833
I00
sS'attrParentLongName'
p1834
VrotateAxis
p1835
sS'attrChildrenNames'
p1836
(lp1837
sg23
VdoubleAngle
p1838
sS'isMulti'
p1839
I00
sS'isCompound'
p1840
I00
sg27
I01
sg28
(lp1841
sS'isElement'
p1842
I00
ssVghostRangeEnd
p1843
(dp1844
S'isArray'
p1845
I00
sg23
Vtime
p1846
sS'attrChildrenNames'
p1847
(lp1848
sS'isMulti'
p1849
I00
sS'isCompound'
p1850
I00
sg27
I01
sg28
(lp1851
sS'isElement'
p1852
I00
ssVradius
p1853
(dp1854
S'isArray'
p1855
I00
sg4
Vdouble
p1856
sS'attrChildrenNames'
p1857
(lp1858
sS'isMulti'
p1859
I00
sS'isCompound'
p1860
I00
sg10
I01
sg11
Vradi
p1861
sg13
(lp1862
sS'isElement'
p1863
I00
ssVtemplateVersion
p1864
(dp1865
S'isArray'
p1866
I00
sg23
Vlong
p1867
sS'attrChildrenNames'
p1868
(lp1869
sS'isMulti'
p1870
I00
sS'isCompound'
p1871
I00
sg27
I01
sg28
(lp1872
sS'isElement'
p1873
I00
ssVminRotateDampStrength.minRotateDampStrengthZ
p1874
(dp1875
S'isArray'
p1876
I00
sS'attrParentLongName'
p1877
VminRotateDampStrength
p1878
sS'attrChildrenNames'
p1879
(lp1880
sg23
Vdouble
p1881
sS'isMulti'
p1882
I00
sS'isCompound'
p1883
I00
sg27
I01
sg28
(lp1884
sS'isElement'
p1885
I00
ssVminRotateDampStrength.minRotateDampStrengthX
p1886
(dp1887
S'isArray'
p1888
I00
sS'attrParentLongName'
p1889
VminRotateDampStrength
p1890
sS'attrChildrenNames'
p1891
(lp1892
sg23
Vdouble
p1893
sS'isMulti'
p1894
I00
sS'isCompound'
p1895
I00
sg27
I01
sg28
(lp1896
sS'isElement'
p1897
I00
ssVminRotateDampStrength.minRotateDampStrengthY
p1898
(dp1899
S'isArray'
p1900
I00
sS'attrParentLongName'
p1901
VminRotateDampStrength
p1902
sS'attrChildrenNames'
p1903
(lp1904
sg23
Vdouble
p1905
sS'isMulti'
p1906
I00
sS'isCompound'
p1907
I00
sg27
I01
sg28
(lp1908
sS'isElement'
p1909
I00
ssg730
(dp1910
g33
I00
sg34
Vbool
p1911
sg36
I00
sg37
I00
sg38
I01
sg39
(lp1912
ssg51
(dp1913
g33
I00
sg34
VdoubleAngle
p1914
sg36
I00
sg37
I00
sg38
I01
sg39
(lp1915
ssg49
(dp1916
g33
I00
sg34
VdoubleAngle
p1917
sg36
I00
sg37
I00
sg38
I01
sg39
(lp1918
ssg50
(dp1919
g33
I00
sg34
VdoubleAngle
p1920
sg36
I00
sg37
I00
sg38
I01
sg39
(lp1921
ssVscalePivot.scalePivotX
p1922
(dp1923
S'isArray'
p1924
I00
sS'attrParentLongName'
p1925
VscalePivot
p1926
sS'attrChildrenNames'
p1927
(lp1928
sg23
VdoubleLinear
p1929
sS'isMulti'
p1930
I00
sS'isCompound'
p1931
I00
sg27
I01
sg28
(lp1932
sS'isElement'
p1933
I00
ssVscalePivot.scalePivotY
p1934
(dp1935
S'isArray'
p1936
I00
sS'attrParentLongName'
p1937
VscalePivot
p1938
sS'attrChildrenNames'
p1939
(lp1940
sg23
VdoubleLinear
p1941
sS'isMulti'
p1942
I00
sS'isCompound'
p1943
I00
sg27
I01
sg28
(lp1944
sS'isElement'
p1945
I00
ssVscalePivot.scalePivotZ
p1946
(dp1947
S'isArray'
p1948
I00
sS'attrParentLongName'
p1949
VscalePivot
p1950
sS'attrChildrenNames'
p1951
(lp1952
sg23
VdoubleLinear
p1953
sS'isMulti'
p1954
I00
sS'isCompound'
p1955
I00
sg27
I01
sg28
(lp1956
sS'isElement'
p1957
I00
ssVinstObjGroups.objectGroups.objectGrpCompList
p1958
(dp1959
S'attrParentLongName'
p1960
VinstObjGroups.objectGroups
p1961
ssVpublishedNodeInfo.publishedNodeType
p1962
(dp1963
g1960
VpublishedNodeInfo
p1964
ssVpublishedNodeInfo[1]
p1965
(dp1966
g234
I00
sg235
(lp1967
VpublishedNodeInfo[1].publishedNode
p1968
aVpublishedNodeInfo[1].isHierarchicalNode
p1969
aVpublishedNodeInfo[1].publishedNodeType
p1970
asg38
I00
sg28
(lp1971
VpublishedNodeInfo[1].publishedNode
p1972
aVpublishedNodeInfo[1].isHierarchicalNode
p1973
ag1248
assVmaxTransLimit
p1974
(dp1975
g33
I00
sg34
Vdouble3
p1976
sg36
I00
sg37
I01
sg38
I01
sg39
(lp1977
g1499
aVmaxTransLimit.maxTransYLimit
p1978
ag254
assVhikNodeID
p1979
(dp1980
S'isArray'
p1981
I00
sg23
Vlong
p1982
sS'attrChildrenNames'
p1983
(lp1984
sS'isMulti'
p1985
I00
sS'isCompound'
p1986
I00
sg27
I01
sg28
(lp1987
sS'isElement'
p1988
I00
ssVscale.scaleZ
p1989
(dp1990
g368
I00
sg369
Vdouble
p1991
sg371
I00
sg372
I00
sg373
I01
sg11
Vsz
p1992
sg13
(lp1993
ssVscale.scaleX
p1994
(dp1995
g368
I00
sg369
Vdouble
p1996
sg371
I00
sg372
I00
sg373
I01
sg11
Vsx
p1997
sg13
(lp1998
ssVscale.scaleY
p1999
(dp2000
g368
I00
sg369
Vdouble
p2001
sg371
I00
sg372
I00
sg373
I01
sg11
Vsy
p2002
sg13
(lp2003
ssg1478
(dp2004
g33
I00
sg34
VdoubleAngle
p2005
sg36
I00
sg37
I00
sg38
I01
sg39
(lp2006
ssg1476
(dp2007
g33
I00
sg34
VdoubleAngle
p2008
sg36
I00
sg37
I00
sg38
I01
sg39
(lp2009
ssg1477
(dp2010
g33
I00
sg34
VdoubleAngle
p2011
sg36
I00
sg37
I00
sg38
I01
sg39
(lp2012
ssVrenderLayerInfo[1].renderLayerColor
p2013
(dp2014
g486
I00
sg38
I00
sg28
(lp2015
ssVpublishedNodeInfo[0].publishedNodeType
p2016
(dp2017
S'isArray'
p2018
I00
sS'attrParentLongName'
p2019
VpublishedNodeInfo[0]
p2020
sS'attrChildrenNames'
p2021
(lp2022
sg38
I00
sg28
(lp2023
sS'isElement'
p2024
I00
ssVmentalRayControls.miTrace
p2025
(dp2026
S'isArray'
p2027
I00
sS'attrParentLongName'
p2028
VmentalRayControls
p2029
sS'attrChildrenNames'
p2030
(lp2031
sg23
Venum
p2032
sS'isMulti'
p2033
I00
sS'isCompound'
p2034
I00
sg27
I01
sg28
(lp2035
sS'isElement'
p2036
I00
ssg1978
(dp2037
g33
I00
sg34
VdoubleLinear
p2038
sg36
I00
sg37
I00
sg38
I01
sg39
(lp2039
ssVmaxTransLimitEnable
p2040
(dp2041
g33
I00
sg34
VTdataCompound
p2042
sg36
I00
sg38
I00
sg39
(lp2043
g619
ag211
aVmaxTransLimitEnable.maxTransZLimitEnable
p2044
assVmaxScaleLimit
p2045
(dp2046
g33
I00
sg34
Vdouble3
p2047
sg36
I00
sg37
I01
sg38
I01
sg39
(lp2048
g1383
ag1503
ag1352
assVdofMask
p2049
(dp2050
g33
I00
sg34
Vlong
p2051
sg983
I00
sg984
I00
sg38
I01
sg39
(lp2052
ssVinheritsTransform
p2053
(dp2054
S'isArray'
p2055
I00
sg4
Vbool
p2056
sS'attrChildrenNames'
p2057
(lp2058
sS'isMulti'
p2059
I00
sS'isCompound'
p2060
I00
sg10
I01
sg11
Vit
p2061
sg13
(lp2062
sS'isElement'
p2063
I00
ssVisHistoricallyInteresting
p2064
(dp2065
S'isArray'
p2066
I00
sg23
Vbyte
p2067
sS'attrChildrenNames'
p2068
(lp2069
sS'isMulti'
p2070
I00
sS'isCompound'
p2071
I00
sg27
I00
sg28
(lp2072
sS'isElement'
p2073
I00
ssVjointOrientType
p2074
(dp2075
g33
I00
sg34
Vstring
p2076
sg36
I00
sg37
I00
sg38
I01
sg39
(lp2077
ssVdrawOverride
p2078
(dp2079
S'isArray'
p2080
I00
sg23
VTdataCompound
p2081
sS'attrChildrenNames'
p2082
(lp2083
VdrawOverride.overrideDisplayType
p2084
aVdrawOverride.overrideLevelOfDetail
p2085
aVdrawOverride.overrideShading
p2086
aVdrawOverride.overrideTexturing
p2087
aVdrawOverride.overridePlayback
p2088
aVdrawOverride.overrideEnabled
p2089
aVdrawOverride.overrideVisibility
p2090
aVdrawOverride.overrideColor
p2091
asS'isMulti'
p2092
I00
sS'isCompound'
p2093
I01
sg27
I00
sg28
(lp2094
VdrawOverride.overrideDisplayType
p2095
aVdrawOverride.overrideLevelOfDetail
p2096
aVdrawOverride.overrideShading
p2097
aVdrawOverride.overrideTexturing
p2098
aVdrawOverride.overridePlayback
p2099
aVdrawOverride.overrideEnabled
p2100
aVdrawOverride.overrideVisibility
p2101
aVdrawOverride.overrideColor
p2102
asS'isElement'
p2103
I00
ssVinstObjGroups.objectGroups.objectGroupId
p2104
(dp2105
g43
VinstObjGroups.objectGroups
p2106
ssg818
(dp2107
g33
I00
sg34
Vbool
p2108
sg36
I00
sg37
I00
sg38
I01
sg39
(lp2109
ssVmaxRotLimit.maxRotXLimit
p2110
(dp2111
g33
I00
sg34
VdoubleAngle
p2112
sg983
I00
sg984
I00
sg38
I01
sg39
(lp2113
ssVboundingBox.boundingBoxSize
p2114
(dp2115
S'isArray'
p2116
I00
sS'attrParentLongName'
p2117
VboundingBox
p2118
sS'attrChildrenNames'
p2119
(lp2120
VboundingBox.boundingBoxSize.boundingBoxSizeX
p2121
aVboundingBox.boundingBoxSize.boundingBoxSizeY
p2122
aVboundingBox.boundingBoxSize.boundingBoxSizeZ
p2123
asg23
Vdouble3
p2124
sS'isMulti'
p2125
I00
sS'isCompound'
p2126
I01
sg27
I01
sg28
(lp2127
VboundingBox.boundingBoxSize.boundingBoxSizeX
p2128
aVboundingBox.boundingBoxSize.boundingBoxSizeY
p2129
aVboundingBox.boundingBoxSize.boundingBoxSizeZ
p2130
asS'isElement'
p2131
I00
ssVrenderLayerInfo[0]
p2132
(dp2133
g234
I00
sg235
(lp2134
VrenderLayerInfo[0].renderLayerId
p2135
aVrenderLayerInfo[0].renderLayerRenderable
p2136
aVrenderLayerInfo[0].renderLayerColor
p2137
asg38
I00
sg28
(lp2138
VrenderLayerInfo[0].renderLayerId
p2139
aVrenderLayerInfo[0].renderLayerRenderable
p2140
aVrenderLayerInfo[0].renderLayerColor
p2141
assg731
(dp2142
g33
I00
sg34
Vbool
p2143
sg36
I00
sg37
I00
sg38
I01
sg39
(lp2144
ssVminRotateDampStrength
p2145
(dp2146
S'isArray'
p2147
I00
sg23
Vdouble3
p2148
sS'attrChildrenNames'
p2149
(lp2150
VminRotateDampStrength.minRotateDampStrengthX
p2151
aVminRotateDampStrength.minRotateDampStrengthY
p2152
aVminRotateDampStrength.minRotateDampStrengthZ
p2153
asS'isMulti'
p2154
I00
sS'isCompound'
p2155
I01
sg27
I01
sg28
(lp2156
VminRotateDampStrength.minRotateDampStrengthX
p2157
aVminRotateDampStrength.minRotateDampStrengthY
p2158
aVminRotateDampStrength.minRotateDampStrengthZ
p2159
asS'isElement'
p2160
I00
ssVmaxScaleLimitEnable
p2161
(dp2162
g33
I00
sg34
VTdataCompound
p2163
sg36
I00
sg38
I00
sg39
(lp2164
g1709
ag215
aVmaxScaleLimitEnable.maxScaleZLimitEnable
p2165
assg2165
(dp2166
g33
I00
sg34
Vbool
p2167
sg36
I00
sg37
I00
sg38
I01
sg39
(lp2168
ssVspecifiedManipLocation
p2169
(dp2170
S'isArray'
p2171
I00
sg23
NsS'attrChildrenNames'
p2172
(lp2173
sS'isMulti'
p2174
I00
sS'isCompound'
p2175
I00
sg27
I00
sg28
(lp2176
sS'isElement'
p2177
I00
ssVinstObjGroups[0].objectGroups
p2178
(dp2179
S'isArray'
p2180
I01
sS'attrParentLongName'
p2181
VinstObjGroups[0]
p2182
sg23
VTdataCompound
p2183
sg628
I01
sg27
I00
sS'isElement'
p2184
I00
ssg1806
(dp2185
g33
I00
sg34
Vdouble
p2186
sg36
I00
sg37
I00
sg38
I01
sg39
(lp2187
ssg1804
(dp2188
g33
I00
sg34
Vdouble
p2189
sg36
I00
sg37
I00
sg38
I01
sg39
(lp2190
ssg1805
(dp2191
g33
I00
sg34
Vdouble
p2192
sg36
I00
sg37
I00
sg38
I01
sg39
(lp2193
ssVmaxRotLimitEnable.maxRotYLimitEnable
p2194
(dp2195
g33
I00
sg34
Vbool
p2196
sg36
I00
sg37
I00
sg38
I01
sg39
(lp2197
ssVminScaleLimit
p2198
(dp2199
g33
I00
sg34
Vdouble3
p2200
sg36
I00
sg37
I01
sg38
I01
sg39
(lp2201
g892
ag469
ag1156
assVlodVisibility
p2202
(dp2203
S'isArray'
p2204
I00
sg23
Vbool
p2205
sS'attrChildrenNames'
p2206
(lp2207
sS'isMulti'
p2208
I00
sS'isCompound'
p2209
I00
sg27
I01
sg28
(lp2210
sS'isElement'
p2211
I00
ssg547
(dp2212
g368
I00
sg369
VdoubleAngle
p2213
sg371
I00
sg372
I00
sg373
I01
sg11
Vpax
p2214
sg13
(lp2215
ssg548
(dp2216
g368
I00
sg369
VdoubleAngle
p2217
sg371
I00
sg372
I00
sg373
I01
sg11
Vpay
p2218
sg13
(lp2219
ssg549
(dp2220
g368
I00
sg369
VdoubleAngle
p2221
sg371
I00
sg372
I00
sg373
I01
sg11
Vpaz
p2222
sg13
(lp2223
ssVpublishedNodeInfo.isHierarchicalNode
p2224
(dp2225
g1960
VpublishedNodeInfo
p2226
ssVinstObjGroups[0].objectGroups[1].objectGrpCompList
p2227
(dp2228
g486
I00
sg38
I00
sg28
(lp2229
ssVghostRangeStart
p2230
(dp2231
S'isArray'
p2232
I00
sg23
Vtime
p2233
sS'attrChildrenNames'
p2234
(lp2235
sS'isMulti'
p2236
I00
sS'isCompound'
p2237
I00
sg27
I01
sg28
(lp2238
sS'isElement'
p2239
I00
ssVdrawOverride.overridePlayback
p2240
(dp2241
S'isArray'
p2242
I00
sS'attrParentLongName'
p2243
VdrawOverride
p2244
sS'attrChildrenNames'
p2245
(lp2246
sg23
Vbool
p2247
sS'isMulti'
p2248
I00
sS'isCompound'
p2249
I00
sg27
I01
sg28
(lp2250
sS'isElement'
p2251
I00
ssVshearXY
p2252
(dp2253
S'isArray'
p2254
I00
sS'attrParentLongName'
p2255
Vshear
p2256
sS'attrChildrenNames'
p2257
(lp2258
sg4
Vdouble
p2259
sS'isMulti'
p2260
I00
sS'isCompound'
p2261
I00
sg10
I01
sS'isElement'
p2262
I00
ssVdrawOverride.overrideShading
p2263
(dp2264
S'isArray'
p2265
I00
sS'attrParentLongName'
p2266
VdrawOverride
p2267
sS'attrChildrenNames'
p2268
(lp2269
sg23
Vbool
p2270
sS'isMulti'
p2271
I00
sS'isCompound'
p2272
I00
sg27
I01
sg28
(lp2273
sS'isElement'
p2274
I00
ssVrenderLayerInfo.renderLayerColor
p2275
(dp2276
g43
VrenderLayerInfo
p2277
ssVinstObjGroups[2]
p2278
(dp2279
g486
I00
sg28
(lp2280
g484
assVviewMode
p2281
(dp2282
S'isArray'
p2283
I00
sg23
Venum
p2284
sS'attrChildrenNames'
p2285
(lp2286
sS'isMulti'
p2287
I00
sS'isCompound'
p2288
I00
sg27
I01
sg28
(lp2289
sS'isElement'
p2290
I00
ssVrotatePivotTranslate
p2291
(dp2292
S'isArray'
p2293
I00
sg23
Vdouble3
p2294
sS'attrChildrenNames'
p2295
(lp2296
VrotatePivotTranslate.rotatePivotTranslateX
p2297
aVrotatePivotTranslate.rotatePivotTranslateY
p2298
aVrotatePivotTranslate.rotatePivotTranslateZ
p2299
asS'isMulti'
p2300
I00
sS'isCompound'
p2301
I01
sg27
I01
sg28
(lp2302
VrotatePivotTranslate.rotatePivotTranslateX
p2303
aVrotatePivotTranslate.rotatePivotTranslateY
p2304
aVrotatePivotTranslate.rotatePivotTranslateZ
p2305
asS'isElement'
p2306
I00
ssVikRotate
p2307
(dp2308
g33
I00
sg34
Vdouble3
p2309
sg36
I00
sg37
I01
sg38
I01
sg39
(lp2310
VikRotate.ikRotateX
p2311
aVikRotate.ikRotateY
p2312
aVikRotate.ikRotateZ
p2313
assVintermediateObject
p2314
(dp2315
S'isArray'
p2316
I00
sg23
Vbool
p2317
sS'attrChildrenNames'
p2318
(lp2319
sS'isMulti'
p2320
I00
sS'isCompound'
p2321
I00
sg27
I01
sg28
(lp2322
sS'isElement'
p2323
I00
ssVjointOrientY
p2324
(dp2325
S'isArray'
p2326
I00
sS'attrParentLongName'
p2327
VjointOrient
p2328
sS'attrChildrenNames'
p2329
(lp2330
sg4
VdoubleAngle
p2331
sS'isMulti'
p2332
I00
sS'isCompound'
p2333
I00
sg10
I01
sS'isElement'
p2334
I00
ssVjointOrientX
p2335
(dp2336
S'isArray'
p2337
I00
sS'attrParentLongName'
p2338
VjointOrient
p2339
sS'attrChildrenNames'
p2340
(lp2341
sg4
VdoubleAngle
p2342
sS'isMulti'
p2343
I00
sS'isCompound'
p2344
I00
sg10
I01
sS'isElement'
p2345
I00
ssVjointOrientZ
p2346
(dp2347
S'isArray'
p2348
I00
sS'attrParentLongName'
p2349
VjointOrient
p2350
sS'attrChildrenNames'
p2351
(lp2352
sg4
VdoubleAngle
p2353
sS'isMulti'
p2354
I00
sS'isCompound'
p2355
I00
sg10
I01
sS'isElement'
p2356
I00
ssVotherType
p2357
(dp2358
g33
I00
sg34
Vstring
p2359
sg36
I00
sg37
I00
sg38
I01
sg39
(lp2360
ssg772
(dp2361
g33
I00
sg34
Vbool
p2362
sg36
I00
sg37
I00
sg38
I01
sg39
(lp2363
ssVinIKSolveFlag
p2364
(dp2365
g33
I00
sg34
Vbool
p2366
sg36
I00
sg37
I00
sg38
I01
sg39
(lp2367
ssVmaxRotLimit.maxRotYLimit
p2368
(dp2369
g33
I00
sg34
VdoubleAngle
p2370
sg983
I00
sg984
I00
sg38
I01
sg39
(lp2371
ssVrotateX
p2372
(dp2373
S'isArray'
p2374
I00
sS'attrParentLongName'
p2375
Vrotate
p2376
sS'attrChildrenNames'
p2377
(lp2378
sg4
VdoubleAngle
p2379
sS'isMulti'
p2380
I00
sS'isWritable'
p2381
I01
sS'isCompound'
p2382
I00
sg10
I01
sS'isElement'
p2383
I00
ssVrotateY
p2384
(dp2385
S'isArray'
p2386
I00
sS'attrParentLongName'
p2387
Vrotate
p2388
sS'attrChildrenNames'
p2389
(lp2390
sg4
VdoubleAngle
p2391
sS'isMulti'
p2392
I00
sS'isWritable'
p2393
I01
sS'isCompound'
p2394
I00
sg10
I01
sS'isElement'
p2395
I00
ssVrotateZ
p2396
(dp2397
S'isArray'
p2398
I00
sS'attrParentLongName'
p2399
Vrotate
p2400
sS'attrChildrenNames'
p2401
(lp2402
sg4
VdoubleAngle
p2403
sS'isMulti'
p2404
I00
sS'isWritable'
p2405
I01
sS'isCompound'
p2406
I00
sg10
I01
sS'isElement'
p2407
I00
ssVboundingBox.boundingBoxMin
p2408
(dp2409
S'isArray'
p2410
I00
sS'attrParentLongName'
p2411
VboundingBox
p2412
sS'attrChildrenNames'
p2413
(lp2414
VboundingBox.boundingBoxMin.boundingBoxMinX
p2415
aVboundingBox.boundingBoxMin.boundingBoxMinY
p2416
aVboundingBox.boundingBoxMin.boundingBoxMinZ
p2417
asg23
Vdouble3
p2418
sS'isMulti'
p2419
I00
sS'isCompound'
p2420
I01
sg27
I01
sg28
(lp2421
VboundingBox.boundingBoxMin.boundingBoxMinX
p2422
aVboundingBox.boundingBoxMin.boundingBoxMinY
p2423
aVboundingBox.boundingBoxMin.boundingBoxMinZ
p2424
asS'isElement'
p2425
I00
ssVtranslateX
p2426
(dp2427
S'isArray'
p2428
I00
sS'attrParentLongName'
p2429
Vtranslate
p2430
sS'attrChildrenNames'
p2431
(lp2432
sg4
VdoubleLinear
p2433
sS'isMulti'
p2434
I00
sS'isWritable'
p2435
I01
sS'isCompound'
p2436
I00
sg10
I01
sS'isElement'
p2437
I00
ssVtranslateY
p2438
(dp2439
S'isArray'
p2440
I00
sS'attrParentLongName'
p2441
Vtranslate
p2442
sS'attrChildrenNames'
p2443
(lp2444
sg4
VdoubleLinear
p2445
sS'isMulti'
p2446
I00
sS'isWritable'
p2447
I01
sS'isCompound'
p2448
I00
sg10
I01
sS'isElement'
p2449
I00
ssVtranslateZ
p2450
(dp2451
S'isArray'
p2452
I00
sS'attrParentLongName'
p2453
Vtranslate
p2454
sS'attrChildrenNames'
p2455
(lp2456
sg4
VdoubleLinear
p2457
sS'isMulti'
p2458
I00
sS'isWritable'
p2459
I01
sS'isCompound'
p2460
I00
sg10
I01
sS'isElement'
p2461
I00
ssVstiffness.stiffnessZ
p2462
(dp2463
S'isArray'
p2464
I00
sS'attrParentLongName'
p2465
Vstiffness
p2466
sS'attrChildrenNames'
p2467
(lp2468
sg23
Vdouble
p2469
sS'isMulti'
p2470
I00
sS'isCompound'
p2471
I00
sg27
I01
sg28
(lp2472
sS'isElement'
p2473
I00
ssg2044
(dp2474
g33
I00
sg34
Vbool
p2475
sg36
I00
sg37
I00
sg38
I01
sg39
(lp2476
ssVworldInverseMatrix[1]
p2477
(dp2478
g221
I00
sg13
(lp2479
sg226
(lp2480
sg288
I00
sg11
Vwim[1]
p2481
ssVrotatePivotTranslate.rotatePivotTranslateZ
p2482
(dp2483
S'isArray'
p2484
I00
sS'attrParentLongName'
p2485
VrotatePivotTranslate
p2486
sS'attrChildrenNames'
p2487
(lp2488
sg23
VdoubleLinear
p2489
sS'isMulti'
p2490
I00
sS'isCompound'
p2491
I00
sg27
I01
sg28
(lp2492
sS'isElement'
p2493
I00
ssVrotatePivotTranslate.rotatePivotTranslateX
p2494
(dp2495
S'isArray'
p2496
I00
sS'attrParentLongName'
p2497
VrotatePivotTranslate
p2498
sS'attrChildrenNames'
p2499
(lp2500
sg23
VdoubleLinear
p2501
sS'isMulti'
p2502
I00
sS'isCompound'
p2503
I00
sg27
I01
sg28
(lp2504
sS'isElement'
p2505
I00
ssVrotatePivotTranslate.rotatePivotTranslateY
p2506
(dp2507
S'isArray'
p2508
I00
sS'attrParentLongName'
p2509
VrotatePivotTranslate
p2510
sS'attrChildrenNames'
p2511
(lp2512
sg23
VdoubleLinear
p2513
sS'isMulti'
p2514
I00
sS'isCompound'
p2515
I00
sg27
I01
sg28
(lp2516
sS'isElement'
p2517
I00
ssVrotate
p2518
(dp2519
S'isArray'
p2520
I00
sg4
Vdouble3
p2521
sS'attrChildrenNames'
p2522
(lp2523
VrotateX
p2524
aVrotateY
p2525
aVrotateZ
p2526
asS'isMulti'
p2527
I00
sS'isCompound'
p2528
I01
sg10
I01
sg11
Vr
p2529
sg13
(lp2530
g1584
ag1589
ag1569
asS'isElement'
p2531
I00
ssVparentInverseMatrix[0]
p2532
(dp2533
g221
I00
sg222
Vmatrix
p2534
sS'attrParentLongName'
p2535
VparentInverseMatrix
p2536
sg226
(lp2537
sg228
I00
sg229
I00
sg11
Vpim[0]
p2538
sg13
(lp2539
ssVrenderLayerInfo[1].renderLayerId
p2540
(dp2541
g486
I00
sg38
I00
sg28
(lp2542
ssVobjectColor
p2543
(dp2544
S'isArray'
p2545
I00
sg23
Vshort
p2546
sS'attrChildrenNames'
p2547
(lp2548
sS'isMulti'
p2549
I00
sS'isCompound'
p2550
I00
sg27
I01
sg28
(lp2551
sS'isElement'
p2552
I00
ssVmentalRayControls.miGeoShader
p2553
(dp2554
S'isArray'
p2555
I00
sS'attrParentLongName'
p2556
VmentalRayControls
p2557
sS'attrChildrenNames'
p2558
(lp2559
sg23
NsS'isMulti'
p2560
I00
sS'isCompound'
p2561
I00
sg27
I00
sg28
(lp2562
sS'isElement'
p2563
I00
ssVfkRotate
p2564
(dp2565
g33
I00
sg34
Vdouble3
p2566
sg36
I00
sg37
I01
sg38
I01
sg39
(lp2567
g756
ag760
ag764
assVpublishedNodeInfo[0]
p2568
(dp2569
g234
I00
sg235
(lp2570
VpublishedNodeInfo[0].publishedNode
p2571
aVpublishedNodeInfo[0].isHierarchicalNode
p2572
aVpublishedNodeInfo[0].publishedNodeType
p2573
asg38
I00
sg28
(lp2574
VpublishedNodeInfo[0].publishedNode
p2575
aVpublishedNodeInfo[0].isHierarchicalNode
p2576
aVpublishedNodeInfo[0].publishedNodeType
p2577
assVpublishedNodeInfo[0].publishedNode
p2578
(dp2579
S'isArray'
p2580
I00
sS'attrParentLongName'
p2581
VpublishedNodeInfo[0]
p2582
sS'attrChildrenNames'
p2583
(lp2584
sg38
I00
sg28
(lp2585
sS'isElement'
p2586
I00
ssg1973
(dp2587
g486
I00
sg38
I00
sg28
(lp2588
ssVscale
p2589
(dp2590
S'isArray'
p2591
I00
sg4
Vdouble3
p2592
sS'attrChildrenNames'
p2593
(lp2594
VscaleX
p2595
aVscaleY
p2596
aVscaleZ
p2597
asS'isMulti'
p2598
I00
sS'isCompound'
p2599
I01
sg10
I01
sg11
Vs
p2600
sg13
(lp2601
g1994
ag1999
ag1989
asS'isElement'
p2602
I00
ssVdrawLabel
p2603
(dp2604
S'isArray'
p2605
I00
sg23
Vbool
p2606
sS'attrChildrenNames'
p2607
(lp2608
sS'isMulti'
p2609
I00
sS'isCompound'
p2610
I00
sg27
I01
sg28
(lp2611
sS'isElement'
p2612
I00
ssVviewName
p2613
(dp2614
S'isArray'
p2615
I00
sg23
Vstring
p2616
sS'attrChildrenNames'
p2617
(lp2618
sS'isMulti'
p2619
I00
sS'isCompound'
p2620
I00
sg27
I01
sg28
(lp2621
sS'isElement'
p2622
I00
ssVinstObjGroups[0].objectGroups[1]
p2623
(dp2624
g234
I00
sg235
(lp2625
VinstObjGroups[0].objectGroups[1].objectGrpCompList
p2626
aVinstObjGroups[0].objectGroups[1].objectGroupId
p2627
aVinstObjGroups[0].objectGroups[1].objectGrpColor
p2628
asg38
I00
sg28
(lp2629
g2227
ag1626
ag1459
assg202
(dp2630
g33
I00
sg34
VdoubleLinear
p2631
sg36
I00
sg37
I00
sg38
I01
sg39
(lp2632
ssViconName
p2633
(dp2634
S'isArray'
p2635
I00
sg23
Vstring
p2636
sS'attrChildrenNames'
p2637
(lp2638
sS'isMulti'
p2639
I00
sS'isCompound'
p2640
I00
sg27
I01
sg28
(lp2641
sS'isElement'
p2642
I00
ssVbindRotateAxis
p2643
(dp2644
g33
I00
sg34
Vdouble3
p2645
sg36
I00
sg37
I01
sg38
I01
sg39
(lp2646
g580
ag584
ag576
assVinstObjGroups
p2647
(dp2648
S'isArray'
p2649
I01
sS'isElement'
p2650
I00
sg23
VTdataCompound
p2651
sg27
I00
sS'isMulti'
p2652
I01
ssg1230
(dp2653
g368
I00
sg369
VdoubleAngle
p2654
sS'attrParentLongName'
p2655
VjointOrient
p2656
sg371
I00
sg372
I00
sg373
I01
sg11
Vjoz
p2657
sg13
(lp2658
ssg1228
(dp2659
g368
I00
sg369
VdoubleAngle
p2660
sg2655
VjointOrient
p2661
sg371
I00
sg372
I00
sg373
I01
sg11
Vjox
p2662
sg13
(lp2663
ssg1229
(dp2664
g368
I00
sg369
VdoubleAngle
p2665
sS'attrParentLongName'
p2666
VjointOrient
p2667
sg371
I00
sg372
I00
sg373
I01
sg11
Vjoy
p2668
sg13
(lp2669
ssVworldMatrix[0]
p2670
(dp2671
g221
I00
sg4
Vmatrix
p2672
sS'attrParentLongName'
p2673
VworldMatrix
p2674
sg226
(lp2675
sS'isMulti'
p2676
I00
sg10
I00
sg11
Vwm[0]
p2677
sg13
(lp2678
ssVdrawOverride.overrideVisibility
p2679
(dp2680
S'isArray'
p2681
I00
sS'attrParentLongName'
p2682
VdrawOverride
p2683
sS'attrChildrenNames'
p2684
(lp2685
sg23
Vbool
p2686
sS'isMulti'
p2687
I00
sS'isCompound'
p2688
I00
sg27
I01
sg28
(lp2689
sS'isElement'
p2690
I00
ssVghosting
p2691
(dp2692
S'isArray'
p2693
I00
sg23
Vbool
p2694
sS'attrChildrenNames'
p2695
(lp2696
sS'isMulti'
p2697
I00
sS'isCompound'
p2698
I00
sg27
I01
sg28
(lp2699
sS'isElement'
p2700
I00
ssVdisplayLocalAxis
p2701
(dp2702
S'isArray'
p2703
I00
sg23
Vbool
p2704
sS'attrChildrenNames'
p2705
(lp2706
sS'isMulti'
p2707
I00
sS'isCompound'
p2708
I00
sg27
I01
sg28
(lp2709
sS'isElement'
p2710
I00
ssg1972
(dp2711
g486
I00
sg38
I00
sg28
(lp2712
ssVinstObjGroups[0].objectGroups[0].objectGrpCompList
p2713
(dp2714
S'isArray'
p2715
I00
sS'attrParentLongName'
p2716
VinstObjGroups[0].objectGroups[0]
p2717
sS'attrChildrenNames'
p2718
(lp2719
sg38
I00
sg28
(lp2720
sS'isElement'
p2721
I00
ssVmaxRotLimit
p2722
(dp2723
g33
I00
sg34
Vdouble3
p2724
sg36
I00
sg37
I01
sg38
I01
sg39
(lp2725
g2110
ag2368
aVmaxRotLimit.maxRotZLimit
p2726
assVtranslate
p2727
(dp2728
S'isArray'
p2729
I00
sg4
Vdouble3
p2730
sS'attrChildrenNames'
p2731
(lp2732
VtranslateX
p2733
aVtranslateY
p2734
aVtranslateZ
p2735
asS'isMulti'
p2736
I00
sS'isCompound'
p2737
I01
sg10
I01
sg11
Vt
p2738
sg13
(lp2739
g1612
ag1619
ag1607
asS'isElement'
p2740
I00
ssVmaxRotLimitEnable
p2741
(dp2742
g33
I00
sg34
VTdataCompound
p2743
sg36
I00
sg38
I00
sg39
(lp2744
g1672
ag2194
ag1135
assVghostCustomSteps.ghostPostSteps
p2745
(dp2746
S'isArray'
p2747
I00
sS'attrParentLongName'
p2748
VghostCustomSteps
p2749
sS'attrChildrenNames'
p2750
(lp2751
sg23
Vlong
p2752
sS'isMulti'
p2753
I00
sS'isCompound'
p2754
I00
sg27
I01
sg28
(lp2755
sS'isElement'
p2756
I00
ssg203
(dp2757
g33
I00
sg34
VdoubleLinear
p2758
sg36
I00
sg37
I00
sg38
I01
sg39
(lp2759
ssg209
(dp2760
g33
I00
sg34
VdoubleAngle
p2761
sg983
I00
sg984
I00
sg38
I01
sg39
(lp2762
ssVmentalRayControls
p2763
(dp2764
S'isArray'
p2765
I00
sg23
VTdataCompound
p2766
sS'attrChildrenNames'
p2767
(lp2768
VmentalRayControls.miDeriveFromMaya
p2769
aVmentalRayControls.miHide
p2770
aVmentalRayControls.miVisible
p2771
aVmentalRayControls.miTrace
p2772
aVmentalRayControls.miShadow
p2773
aVmentalRayControls.miCaustic
p2774
aVmentalRayControls.miGlobillum
p2775
aVmentalRayControls.miExportGeoShader
p2776
aVmentalRayControls.miGeoShader
p2777
aVmentalRayControls.miProxyRenderable
p2778
asS'isMulti'
p2779
I00
sS'isCompound'
p2780
I01
sg27
I00
sg28
(lp2781
VmentalRayControls.miDeriveFromMaya
p2782
aVmentalRayControls.miHide
p2783
aVmentalRayControls.miVisible
p2784
aVmentalRayControls.miTrace
p2785
aVmentalRayControls.miShadow
p2786
aVmentalRayControls.miCaustic
p2787
aVmentalRayControls.miGlobillum
p2788
aVmentalRayControls.miExportGeoShader
p2789
aVmentalRayControls.miGeoShader
p2790
aVmentalRayControls.miProxyRenderable
p2791
asS'isElement'
p2792
I00
ssVworldInverseMatrix
p2793
(dp2794
S'isArray'
p2795
I01
sg4
Vmatrix
p2796
sS'isMulti'
p2797
I01
sg10
I00
sg11
Vwim
p2798
sS'isElement'
p2799
I00
ssVrenderInfo.identification
p2800
(dp2801
S'isArray'
p2802
I00
sS'attrParentLongName'
p2803
VrenderInfo
p2804
sS'attrChildrenNames'
p2805
(lp2806
sg23
Vshort
p2807
sS'isMulti'
p2808
I00
sS'isCompound'
p2809
I00
sg27
I01
sg28
(lp2810
sS'isElement'
p2811
I00
ssVblackBox
p2812
(dp2813
S'isArray'
p2814
I00
sg23
Vbool
p2815
sS'attrChildrenNames'
p2816
(lp2817
sS'isMulti'
p2818
I00
sS'isCompound'
p2819
I00
sg27
I01
sg28
(lp2820
sS'isElement'
p2821
I00
ssVmentalRayControls.miShadow
p2822
(dp2823
S'isArray'
p2824
I00
sS'attrParentLongName'
p2825
VmentalRayControls
p2826
sS'attrChildrenNames'
p2827
(lp2828
sg23
Venum
p2829
sS'isMulti'
p2830
I00
sS'isCompound'
p2831
I00
sg27
I01
sg28
(lp2832
sS'isElement'
p2833
I00
ssVisHierarchicalConnection[0]
p2834
(dp2835
g33
I00
sg38
I00
sg39
(lp2836
ssVshowManipDefault
p2837
(dp2838
S'isArray'
p2839
I00
sg23
Venum
p2840
sS'attrChildrenNames'
p2841
(lp2842
sS'isMulti'
p2843
I00
sS'isCompound'
p2844
I00
sg27
I01
sg28
(lp2845
sS'isElement'
p2846
I00
ssg2726
(dp2847
g33
I00
sg34
VdoubleAngle
p2848
sg983
I00
sg984
I00
sg38
I01
sg39
(lp2849
ssVrenderLayerInfo[0].renderLayerColor
p2850
(dp2851
S'isArray'
p2852
I00
sS'attrParentLongName'
p2853
VrenderLayerInfo[0]
p2854
sS'attrChildrenNames'
p2855
(lp2856
sg38
I00
sg28
(lp2857
sS'isElement'
p2858
I00
ssVrenderLayerInfo[1]
p2859
(dp2860
g234
I00
sg235
(lp2861
VrenderLayerInfo[1].renderLayerId
p2862
aVrenderLayerInfo[1].renderLayerRenderable
p2863
aVrenderLayerInfo[1].renderLayerColor
p2864
asg38
I00
sg28
(lp2865
g2540
ag1604
ag2013
assVghostCustomSteps.ghostStepSize
p2866
(dp2867
S'isArray'
p2868
I00
sS'attrParentLongName'
p2869
VghostCustomSteps
p2870
sS'attrChildrenNames'
p2871
(lp2872
sg23
Vlong
p2873
sS'isMulti'
p2874
I00
sS'isCompound'
p2875
I00
sg27
I01
sg28
(lp2876
sS'isElement'
p2877
I00
ssVrenderLayerInfo
p2878
(dp2879
S'isArray'
p2880
I01
sS'isElement'
p2881
I00
sg23
VTdataCompound
p2882
sg27
I00
sS'isMulti'
p2883
I01
ssg2313
(dp2884
g33
I00
sg34
VdoubleAngle
p2885
sg36
I00
sg37
I00
sg38
I01
sg39
(lp2886
ssg2311
(dp2887
g33
I00
sg34
VdoubleAngle
p2888
sg36
I00
sg37
I00
sg38
I01
sg39
(lp2889
ssg2312
(dp2890
g33
I00
sg34
VdoubleAngle
p2891
sg36
I00
sg37
I00
sg38
I01
sg39
(lp2892
ssVmentalRayControls.miProxyRenderable
p2893
(dp2894
S'isArray'
p2895
I00
sS'attrParentLongName'
p2896
VmentalRayControls
p2897
sS'attrChildrenNames'
p2898
(lp2899
sg23
Vbool
p2900
sS'isMulti'
p2901
I00
sS'isCompound'
p2902
I00
sg27
I01
sg28
(lp2903
sS'isElement'
p2904
I00
ssg729
(dp2905
g33
I00
sg34
Vbool
p2906
sg36
I00
sg37
I00
sg38
I01
sg39
(lp2907
ssVinverseMatrix
p2908
(dp2909
S'isArray'
p2910
I00
sg4
Vmatrix
p2911
sS'attrChildrenNames'
p2912
(lp2913
sS'isMulti'
p2914
I00
sS'isCompound'
p2915
I00
sg10
I00
sg11
Vim
p2916
sg13
(lp2917
sS'isElement'
p2918
I00
ssVmentalRayControls.miGlobillum
p2919
(dp2920
S'isArray'
p2921
I00
sS'attrParentLongName'
p2922
VmentalRayControls
p2923
sS'attrChildrenNames'
p2924
(lp2925
sg23
Venum
p2926
sS'isMulti'
p2927
I00
sS'isCompound'
p2928
I00
sg27
I01
sg28
(lp2929
sS'isElement'
p2930
I00
ssVcenter.boundingBoxCenterZ
p2931
(dp2932
S'isArray'
p2933
I00
sS'attrParentLongName'
p2934
Vcenter
p2935
sS'attrChildrenNames'
p2936
(lp2937
sg23
VdoubleLinear
p2938
sS'isMulti'
p2939
I00
sS'isCompound'
p2940
I00
sg27
I01
sg28
(lp2941
sS'isElement'
p2942
I00
ssVcenter.boundingBoxCenterX
p2943
(dp2944
S'isArray'
p2945
I00
sS'attrParentLongName'
p2946
Vcenter
p2947
sS'attrChildrenNames'
p2948
(lp2949
sg23
VdoubleLinear
p2950
sS'isMulti'
p2951
I00
sS'isCompound'
p2952
I00
sg27
I01
sg28
(lp2953
sS'isElement'
p2954
I00
ssVcenter.boundingBoxCenterY
p2955
(dp2956
S'isArray'
p2957
I00
sS'attrParentLongName'
p2958
Vcenter
p2959
sS'attrChildrenNames'
p2960
(lp2961
sg23
VdoubleLinear
p2962
sS'isMulti'
p2963
I00
sS'isCompound'
p2964
I00
sg27
I01
sg28
(lp2965
sS'isElement'
p2966
I00
ss.