(dp0
VcompInstObjGroups[0].compObjectGroups[0].compObjectGroupId
p1
(dp2
S'isArray'
p3
I00
sS'attrParentLongName'
p4
VcompInstObjGroups[0].compObjectGroups[0]
p5
sS'attrChildrenNames'
p6
(lp7
sS'attrType'
p8
Vlong
p9
sS'isSimple'
p10
I00
sS'isReadable'
p11
I01
sS'attrChildrenLongNames'
p12
(lp13
sS'isElement'
p14
I00
ssVcompInstObjGroups[0].compObjectGroups[1].compObjectGrpCompList
p15
(dp16
S'isArray'
p17
I00
sg10
I00
sg12
(lp18
ssVdrawOverride.overrideColor
p19
(dp20
S'isArray'
p21
I00
sS'attrParentLongName'
p22
VdrawOverride
p23
sS'attrChildrenNames'
p24
(lp25
sS'attrType'
p26
Vbyte
p27
sS'isMulti'
p28
I00
sS'isSimple'
p29
I00
sS'isReadable'
p30
I00
sg12
(lp31
sS'isElement'
p32
I00
ssVintermediateObject
p33
(dp34
S'isArray'
p35
I00
sS'attrType'
p36
Vbool
p37
sS'attrChildrenNames'
p38
(lp39
sS'isMulti'
p40
I00
sS'isCompound'
p41
I00
sg29
I01
sS'isReadable'
p42
I01
sg12
(lp43
sS'isElement'
p44
I00
ssVinstObjGroups[0].objectGroups[1].objectGroupId
p45
(dp46
g17
I00
sg10
I00
sg12
(lp47
ssVrenderLayerInfo.renderLayerId
p48
(dp49
S'attrParentLongName'
p50
VrenderLayerInfo
p51
ssVuseObjectColor
p52
(dp53
S'isArray'
p54
I00
sS'attrType'
p55
Vbool
p56
sS'attrChildrenNames'
p57
(lp58
sS'isMulti'
p59
I00
sS'isCompound'
p60
I00
sg29
I01
sS'isReadable'
p61
I01
sg12
(lp62
sS'isElement'
p63
I00
ssVworldPosition[0].worldPositionY
p64
(dp65
S'isArray'
p66
I00
sS'attrParentLongName'
p67
VworldPosition[0]
p68
sS'attrChildrenNames'
p69
(lp70
sS'attrType'
p71
VdoubleLinear
p72
sg10
I00
sS'isReadable'
p73
I01
sg12
(lp74
sS'isElement'
p75
I00
ssVworldPosition[0].worldPositionX
p76
(dp77
S'isArray'
p78
I00
sS'attrParentLongName'
p79
VworldPosition[0]
p80
sS'attrChildrenNames'
p81
(lp82
sS'attrType'
p83
VdoubleLinear
p84
sg10
I00
sS'isReadable'
p85
I01
sg12
(lp86
sS'isElement'
p87
I00
ssVworldPosition[0].worldPositionZ
p88
(dp89
S'isArray'
p90
I00
sS'attrParentLongName'
p91
VworldPosition[0]
p92
sS'attrChildrenNames'
p93
(lp94
sS'attrType'
p95
VdoubleLinear
p96
sg10
I00
sS'isReadable'
p97
I01
sg12
(lp98
sS'isElement'
p99
I00
ssVantialiasingLevel
p100
(dp101
S'isArray'
p102
I00
sS'attrType'
p103
Vlong
p104
sS'attrChildrenNames'
p105
(lp106
sS'isMulti'
p107
I00
sS'isCompound'
p108
I00
sg29
I01
sS'isReadable'
p109
I01
sg12
(lp110
sS'isElement'
p111
I00
ssVignoreSelfShadowing
p112
(dp113
S'isArray'
p114
I00
sS'attrType'
p115
Vbool
p116
sS'attrChildrenNames'
p117
(lp118
sS'isMulti'
p119
I00
sS'isCompound'
p120
I00
sg29
I01
sS'isReadable'
p121
I01
sg12
(lp122
sS'isElement'
p123
I00
ssVrenderLayerInfo[1].renderLayerColor
p124
(dp125
g17
I00
sg10
I00
sg12
(lp126
ssVbinMembership
p127
(dp128
g17
I00
sS'attrType'
p129
Vstring
p130
sg10
I01
sg12
(lp131
ssVlocalScale.localScaleY
p132
(dp133
S'isArray'
p134
I00
sS'attrParentLongName'
p135
VlocalScale
p136
sS'attrChildrenNames'
p137
(lp138
sS'attrType'
p139
VdoubleLinear
p140
sS'isMulti'
p141
I00
sS'isCompound'
p142
I00
sg29
I01
sS'isReadable'
p143
I01
sg12
(lp144
sS'isElement'
p145
I00
ssVcustomTreatment
p146
(dp147
S'isArray'
p148
I00
sS'attrType'
p149
Vstring
p150
sS'attrChildrenNames'
p151
(lp152
sS'isMulti'
p153
I00
sS'isCompound'
p154
I00
sg29
I01
sS'isReadable'
p155
I01
sg12
(lp156
sS'isElement'
p157
I00
ssVrenderLayerInfo[0].renderLayerRenderable
p158
(dp159
S'isArray'
p160
I00
sS'attrParentLongName'
p161
VrenderLayerInfo[0]
p162
sS'attrChildrenNames'
p163
(lp164
sS'attrType'
p165
Vbool
p166
sg10
I00
sS'isReadable'
p167
I01
sg12
(lp168
sS'isElement'
p169
I00
ssVprimaryVisibility
p170
(dp171
S'isArray'
p172
I00
sS'attrType'
p173
Vbool
p174
sS'attrChildrenNames'
p175
(lp176
sS'isMulti'
p177
I00
sS'isCompound'
p178
I00
sg29
I01
sS'isReadable'
p179
I01
sg12
(lp180
sS'isElement'
p181
I00
ssVboundingBox.boundingBoxMin
p182
(dp183
S'isArray'
p184
I00
sS'attrParentLongName'
p185
VboundingBox
p186
sS'attrChildrenNames'
p187
(lp188
VboundingBox.boundingBoxMin.boundingBoxMinX
p189
aVboundingBox.boundingBoxMin.boundingBoxMinY
p190
aVboundingBox.boundingBoxMin.boundingBoxMinZ
p191
asS'attrType'
p192
Vdouble3
p193
sS'isMulti'
p194
I00
sS'isCompound'
p195
I01
sg29
I01
sS'isReadable'
p196
I01
sg12
(lp197
VboundingBox.boundingBoxMin.boundingBoxMinX
p198
aVboundingBox.boundingBoxMin.boundingBoxMinY
p199
aVboundingBox.boundingBoxMin.boundingBoxMinZ
p200
asS'isElement'
p201
I00
ssVboundingBox.boundingBoxMin.boundingBoxMinX
p202
(dp203
S'isArray'
p204
I00
sS'attrParentLongName'
p205
VboundingBox.boundingBoxMin
p206
sS'attrChildrenNames'
p207
(lp208
sS'attrType'
p209
VdoubleLinear
p210
sS'isMulti'
p211
I00
sS'isCompound'
p212
I00
sg29
I01
sS'isReadable'
p213
I01
sg12
(lp214
sS'isElement'
p215
I00
ssVcompInstObjGroups[0].compObjectGroups[0].compObjectGrpCompList
p216
(dp217
S'isArray'
p218
I00
sS'attrParentLongName'
p219
VcompInstObjGroups[0].compObjectGroups[0]
p220
sS'attrChildrenNames'
p221
(lp222
sS'attrType'
p223
Nsg10
I00
sS'isReadable'
p224
I00
sg12
(lp225
sS'isElement'
p226
I00
ssVboundingBox.boundingBoxMin.boundingBoxMinZ
p227
(dp228
S'isArray'
p229
I00
sS'attrParentLongName'
p230
VboundingBox.boundingBoxMin
p231
sS'attrChildrenNames'
p232
(lp233
sS'attrType'
p234
VdoubleLinear
p235
sS'isMulti'
p236
I00
sS'isCompound'
p237
I00
sg29
I01
sS'isReadable'
p238
I01
sg12
(lp239
sS'isElement'
p240
I00
ssVshadingSamplesOverride
p241
(dp242
S'isArray'
p243
I00
sS'attrType'
p244
Vbool
p245
sS'attrChildrenNames'
p246
(lp247
sS'isMulti'
p248
I00
sS'isCompound'
p249
I00
sg29
I01
sS'isReadable'
p250
I01
sg12
(lp251
sS'isElement'
p252
I00
ssVdrawOverride.overrideLevelOfDetail
p253
(dp254
S'isArray'
p255
I00
sS'attrParentLongName'
p256
VdrawOverride
p257
sS'attrChildrenNames'
p258
(lp259
sS'attrType'
p260
Venum
p261
sS'isMulti'
p262
I00
sS'isCompound'
p263
I00
sg29
I01
sS'isReadable'
p264
I01
sg12
(lp265
sS'isElement'
p266
I00
ssVworldPosition[2].worldPositionX
p267
(dp268
g17
I00
sg10
I00
sg12
(lp269
ssVmotionBlur
p270
(dp271
S'isArray'
p272
I00
sS'attrType'
p273
Vbool
p274
sS'attrChildrenNames'
p275
(lp276
sS'isMulti'
p277
I00
sS'isCompound'
p278
I00
sg29
I01
sS'isReadable'
p279
I01
sg12
(lp280
sS'isElement'
p281
I00
ssVvolumeSamplesOverride
p282
(dp283
S'isArray'
p284
I00
sS'attrType'
p285
Vbool
p286
sS'attrChildrenNames'
p287
(lp288
sS'isMulti'
p289
I00
sS'isCompound'
p290
I00
sg29
I01
sS'isReadable'
p291
I01
sg12
(lp292
sS'isElement'
p293
I00
ssVinstObjGroups[0].objectGroups[0].objectGroupId
p294
(dp295
S'isArray'
p296
I00
sS'attrParentLongName'
p297
VinstObjGroups[0].objectGroups[0]
p298
sS'attrChildrenNames'
p299
(lp300
sS'attrType'
p301
Vlong
p302
sg10
I00
sS'isReadable'
p303
I01
sg12
(lp304
sS'isElement'
p305
I00
ssVrenderLayerInfo[0].renderLayerId
p306
(dp307
S'isArray'
p308
I00
sS'attrParentLongName'
p309
VrenderLayerInfo[0]
p310
sS'attrChildrenNames'
p311
(lp312
sS'attrType'
p313
Vshort
p314
sg10
I00
sS'isReadable'
p315
I01
sg12
(lp316
sS'isElement'
p317
I00
ssVworldInverseMatrix[1]
p318
(dp319
S'isArray'
p320
I00
sS'attrChildrenNames'
p321
(lp322
sg10
I00
sg12
(lp323
ssVcompInstObjGroups.compObjectGroups.compObjectGroupId
p324
(dp325
g50
VcompInstObjGroups.compObjectGroups
p326
ssVcreationDate
p327
(dp328
S'isArray'
p329
I00
sS'attrType'
p330
Vstring
p331
sS'attrChildrenNames'
p332
(lp333
sS'isMulti'
p334
I00
sS'isCompound'
p335
I00
sg29
I01
sS'isReadable'
p336
I01
sg12
(lp337
sS'isElement'
p338
I00
ssVtemplatePath
p339
(dp340
S'isArray'
p341
I00
sS'attrType'
p342
Vstring
p343
sS'attrChildrenNames'
p344
(lp345
sS'isMulti'
p346
I00
sS'isCompound'
p347
I00
sg29
I01
sS'isReadable'
p348
I01
sg12
(lp349
sS'isElement'
p350
I00
ssVreceiveShadows
p351
(dp352
S'isArray'
p353
I00
sS'attrType'
p354
Vbool
p355
sS'attrChildrenNames'
p356
(lp357
sS'isMulti'
p358
I00
sS'isCompound'
p359
I00
sg29
I01
sS'isReadable'
p360
I01
sg12
(lp361
sS'isElement'
p362
I00
ssVvolumeSamples
p363
(dp364
S'isArray'
p365
I00
sS'attrType'
p366
Vlong
p367
sS'attrChildrenNames'
p368
(lp369
sS'isMulti'
p370
I00
sS'isCompound'
p371
I00
sg29
I01
sS'isReadable'
p372
I01
sg12
(lp373
sS'isElement'
p374
I00
ssVlocalPosition.localPositionZ
p375
(dp376
S'isArray'
p377
I00
sS'attrParentLongName'
p378
VlocalPosition
p379
sS'attrChildrenNames'
p380
(lp381
sS'attrType'
p382
VdoubleLinear
p383
sS'isMulti'
p384
I00
sS'isCompound'
p385
I00
sg29
I01
sS'isReadable'
p386
I01
sg12
(lp387
sS'isElement'
p388
I00
ssVlocalPosition.localPositionX
p389
(dp390
S'isArray'
p391
I00
sS'attrParentLongName'
p392
VlocalPosition
p393
sS'attrChildrenNames'
p394
(lp395
sS'attrType'
p396
VdoubleLinear
p397
sS'isMulti'
p398
I00
sS'isCompound'
p399
I00
sg29
I01
sS'isReadable'
p400
I01
sg12
(lp401
sS'isElement'
p402
I00
ssVlocalPosition.localPositionY
p403
(dp404
S'isArray'
p405
I00
sS'attrParentLongName'
p406
VlocalPosition
p407
sS'attrChildrenNames'
p408
(lp409
sS'attrType'
p410
VdoubleLinear
p411
sS'isMulti'
p412
I00
sS'isCompound'
p413
I00
sg29
I01
sS'isReadable'
p414
I01
sg12
(lp415
sS'isElement'
p416
I00
ssVshadingSamples
p417
(dp418
S'isArray'
p419
I00
sS'attrType'
p420
Vlong
p421
sS'attrChildrenNames'
p422
(lp423
sS'isMulti'
p424
I00
sS'isCompound'
p425
I00
sg29
I01
sS'isReadable'
p426
I01
sg12
(lp427
sS'isElement'
p428
I00
ssVworldPosition.worldPositionZ
p429
(dp430
g50
VworldPosition
p431
ssVworldPosition.worldPositionX
p432
(dp433
g50
VworldPosition
p434
ssVisHierarchicalConnection[1]
p435
(dp436
g17
I00
sg10
I00
sg12
(lp437
ssVparentInverseMatrix[0]
p438
(dp439
g320
I00
sg321
(lp440
sg10
I00
sg12
(lp441
ssVrenderLayerInfo[1].renderLayerId
p442
(dp443
g17
I00
sg10
I00
sg12
(lp444
ssVlocalScale.localScaleZ
p445
(dp446
S'isArray'
p447
I00
sS'attrParentLongName'
p448
VlocalScale
p449
sS'attrChildrenNames'
p450
(lp451
sS'attrType'
p452
VdoubleLinear
p453
sS'isMulti'
p454
I00
sS'isCompound'
p455
I00
sg29
I01
sS'isReadable'
p456
I01
sg12
(lp457
sS'isElement'
p458
I00
ssVobjectColor
p459
(dp460
S'isArray'
p461
I00
sS'attrType'
p462
Vshort
p463
sS'attrChildrenNames'
p464
(lp465
sS'isMulti'
p466
I00
sS'isCompound'
p467
I00
sg29
I01
sS'isReadable'
p468
I01
sg12
(lp469
sS'isElement'
p470
I00
ssVlocalScale.localScaleX
p471
(dp472
S'isArray'
p473
I00
sS'attrParentLongName'
p474
VlocalScale
p475
sS'attrChildrenNames'
p476
(lp477
sS'attrType'
p478
VdoubleLinear
p479
sS'isMulti'
p480
I00
sS'isCompound'
p481
I00
sg29
I01
sS'isReadable'
p482
I01
sg12
(lp483
sS'isElement'
p484
I00
ssVdrawOverride.overrideEnabled
p485
(dp486
S'isArray'
p487
I00
sS'attrParentLongName'
p488
VdrawOverride
p489
sS'attrChildrenNames'
p490
(lp491
sS'attrType'
p492
Vbool
p493
sS'isMulti'
p494
I00
sS'isCompound'
p495
I00
sg29
I01
sS'isReadable'
p496
I01
sg12
(lp497
sS'isElement'
p498
I00
ssVboundingBox.boundingBoxMax
p499
(dp500
S'isArray'
p501
I00
sS'attrParentLongName'
p502
VboundingBox
p503
sS'attrChildrenNames'
p504
(lp505
VboundingBox.boundingBoxMax.boundingBoxMaxX
p506
aVboundingBox.boundingBoxMax.boundingBoxMaxY
p507
aVboundingBox.boundingBoxMax.boundingBoxMaxZ
p508
asS'attrType'
p509
Vdouble3
p510
sS'isMulti'
p511
I00
sS'isCompound'
p512
I01
sg29
I01
sS'isReadable'
p513
I01
sg12
(lp514
VboundingBox.boundingBoxMax.boundingBoxMaxX
p515
aVboundingBox.boundingBoxMax.boundingBoxMaxY
p516
aVboundingBox.boundingBoxMax.boundingBoxMaxZ
p517
asS'isElement'
p518
I00
ssVparentMatrix[0]
p519
(dp520
g320
I00
sg321
(lp521
sg10
I00
sg12
(lp522
ssVcreator
p523
(dp524
S'isArray'
p525
I00
sS'attrType'
p526
Vstring
p527
sS'attrChildrenNames'
p528
(lp529
sS'isMulti'
p530
I00
sS'isCompound'
p531
I00
sg29
I01
sS'isReadable'
p532
I01
sg12
(lp533
sS'isElement'
p534
I00
ssVdepthJitter
p535
(dp536
S'isArray'
p537
I00
sS'attrType'
p538
Vbool
p539
sS'attrChildrenNames'
p540
(lp541
sS'isMulti'
p542
I00
sS'isCompound'
p543
I00
sg29
I01
sS'isReadable'
p544
I01
sg12
(lp545
sS'isElement'
p546
I00
ssVinstObjGroups[0].objectGroups[0]
p547
(dp548
g320
I00
sg321
(lp549
VinstObjGroups[0].objectGroups[0].objectGrpCompList
p550
aVinstObjGroups[0].objectGroups[0].objectGroupId
p551
aVinstObjGroups[0].objectGroups[0].objectGrpColor
p552
asg10
I00
sg12
(lp553
VinstObjGroups[0].objectGroups[0].objectGrpCompList
p554
aVinstObjGroups[0].objectGroups[0].objectGroupId
p555
aVinstObjGroups[0].objectGroups[0].objectGrpColor
p556
assVghostRangeEnd
p557
(dp558
S'isArray'
p559
I00
sS'attrType'
p560
Vtime
p561
sS'attrChildrenNames'
p562
(lp563
sS'isMulti'
p564
I00
sS'isCompound'
p565
I00
sg29
I01
sS'isReadable'
p566
I01
sg12
(lp567
sS'isElement'
p568
I00
ssVcompInstObjGroups.compObjectGroups.compObjectGrpCompList
p569
(dp570
g50
VcompInstObjGroups.compObjectGroups
p571
ssVcompInstObjGroups
p572
(dp573
S'isArray'
p574
I01
sS'attrType'
p575
VTdataCompound
p576
sS'isMulti'
p577
I01
sg29
I00
sS'isReadable'
p578
I00
sS'isElement'
p579
I00
ssVpublishedNodeInfo[0].publishedNode
p580
(dp581
S'isArray'
p582
I00
sS'attrParentLongName'
p583
VpublishedNodeInfo[0]
p584
sS'attrChildrenNames'
p585
(lp586
sS'attrType'
p587
Vmessage
p588
sg10
I00
sS'isReadable'
p589
I00
sg12
(lp590
sS'isElement'
p591
I00
ssVpublishedNodeInfo[1].isHierarchicalNode
p592
(dp593
g17
I00
sg10
I00
sg12
(lp594
ssVtemplateVersion
p595
(dp596
S'isArray'
p597
I00
sS'attrType'
p598
Vlong
p599
sS'attrChildrenNames'
p600
(lp601
sS'isMulti'
p602
I00
sS'isCompound'
p603
I00
sg29
I01
sS'isReadable'
p604
I01
sg12
(lp605
sS'isElement'
p606
I00
ssVinstObjGroups[1].objectGroups
p607
(dp608
g17
I01
sg10
I00
ssVrenderLayerInfo.renderLayerRenderable
p609
(dp610
g50
VrenderLayerInfo
p611
ssVmatrix
p612
(dp613
S'isArray'
p614
I00
sS'attrType'
p615
Vmatrix
p616
sS'attrChildrenNames'
p617
(lp618
sS'isMulti'
p619
I00
sg29
I00
sS'isReadable'
p620
I00
sg12
(lp621
sS'isElement'
p622
I00
ssVghostCustomSteps
p623
(dp624
S'isArray'
p625
I00
sS'attrType'
p626
VTdataCompound
p627
sS'attrChildrenNames'
p628
(lp629
VghostCustomSteps.ghostPreSteps
p630
aVghostCustomSteps.ghostPostSteps
p631
aVghostCustomSteps.ghostStepSize
p632
asS'isMulti'
p633
I00
sg29
I00
sS'isReadable'
p634
I00
sg12
(lp635
VghostCustomSteps.ghostPreSteps
p636
aVghostCustomSteps.ghostPostSteps
p637
aVghostCustomSteps.ghostStepSize
p638
asS'isElement'
p639
I00
ssVcompInstObjGroups[0].compObjectGroups[0]
p640
(dp641
g320
I00
sg321
(lp642
VcompInstObjGroups[0].compObjectGroups[0].compObjectGrpCompList
p643
aVcompInstObjGroups[0].compObjectGroups[0].compObjectGroupId
p644
asg10
I00
sg12
(lp645
VcompInstObjGroups[0].compObjectGroups[0].compObjectGrpCompList
p646
aVcompInstObjGroups[0].compObjectGroups[0].compObjectGroupId
p647
assVworldPosition[0]
p648
(dp649
g320
I00
sg321
(lp650
VworldPosition[0].worldPositionX
p651
aVworldPosition[0].worldPositionY
p652
aVworldPosition[0].worldPositionZ
p653
asg10
I00
sg12
(lp654
VworldPosition[0].worldPositionX
p655
aVworldPosition[0].worldPositionY
p656
aVworldPosition[0].worldPositionZ
p657
assVworldPosition.worldPositionY
p658
(dp659
g50
VworldPosition
p660
ssVworldMatrix
p661
(dp662
S'isArray'
p663
I01
sS'attrType'
p664
Vmatrix
p665
sS'isMulti'
p666
I01
sg29
I00
sS'isReadable'
p667
I00
sS'isElement'
p668
I00
ssVtemplate
p669
(dp670
S'isArray'
p671
I00
sS'attrType'
p672
Vbool
p673
sS'attrChildrenNames'
p674
(lp675
sS'isMulti'
p676
I00
sS'isCompound'
p677
I00
sg29
I01
sS'isReadable'
p678
I01
sg12
(lp679
sS'isElement'
p680
I00
ssVworldPosition[2].worldPositionZ
p681
(dp682
g17
I00
sg10
I00
sg12
(lp683
ssVcontainerType
p684
(dp685
S'isArray'
p686
I00
sS'attrType'
p687
Vstring
p688
sS'attrChildrenNames'
p689
(lp690
sS'isMulti'
p691
I00
sS'isCompound'
p692
I00
sg29
I01
sS'isReadable'
p693
I01
sg12
(lp694
sS'isElement'
p695
I00
ssVworldPosition[2].worldPositionY
p696
(dp697
g17
I00
sg10
I00
sg12
(lp698
ssVgeometryAntialiasingOverride
p699
(dp700
S'isArray'
p701
I00
sS'attrType'
p702
Vbool
p703
sS'attrChildrenNames'
p704
(lp705
sS'isMulti'
p706
I00
sS'isCompound'
p707
I00
sg29
I01
sS'isReadable'
p708
I01
sg12
(lp709
sS'isElement'
p710
I00
ssVinstObjGroups.objectGroups.objectGrpCompList
p711
(dp712
g50
VinstObjGroups.objectGroups
p713
ssVparentInverseMatrix
p714
(dp715
S'isArray'
p716
I01
sS'attrType'
p717
Vmatrix
p718
sS'isMulti'
p719
I01
sg29
I00
sS'isReadable'
p720
I00
sS'isElement'
p721
I00
ssVviewName
p722
(dp723
S'isArray'
p724
I00
sS'attrType'
p725
Vstring
p726
sS'attrChildrenNames'
p727
(lp728
sS'isMulti'
p729
I00
sS'isCompound'
p730
I00
sg29
I01
sS'isReadable'
p731
I01
sg12
(lp732
sS'isElement'
p733
I00
ssVpublishedNodeInfo.publishedNodeType
p734
(dp735
g50
VpublishedNodeInfo
p736
ssVparentInverseMatrix[1]
p737
(dp738
g320
I00
sg321
(lp739
sg10
I00
sg12
(lp740
ssVpublishedNodeInfo[1]
p741
(dp742
g320
I00
sg321
(lp743
VpublishedNodeInfo[1].publishedNode
p744
aVpublishedNodeInfo[1].isHierarchicalNode
p745
aVpublishedNodeInfo[1].publishedNodeType
p746
asg10
I00
sg12
(lp747
VpublishedNodeInfo[1].publishedNode
p748
ag592
aVpublishedNodeInfo[1].publishedNodeType
p749
assVrenderInfo.layerRenderable
p750
(dp751
S'isArray'
p752
I00
sS'attrParentLongName'
p753
VrenderInfo
p754
sS'attrChildrenNames'
p755
(lp756
sS'attrType'
p757
Vbool
p758
sS'isMulti'
p759
I00
sS'isCompound'
p760
I00
sg29
I01
sS'isReadable'
p761
I01
sg12
(lp762
sS'isElement'
p763
I00
ssVrmbCommand
p764
(dp765
g17
I00
sg129
Vstring
p766
sg10
I01
sg12
(lp767
ssVghostCustomSteps.ghostPreSteps
p768
(dp769
S'isArray'
p770
I00
sS'attrParentLongName'
p771
VghostCustomSteps
p772
sS'attrChildrenNames'
p773
(lp774
sS'attrType'
p775
Vlong
p776
sS'isMulti'
p777
I00
sS'isCompound'
p778
I00
sg29
I01
sS'isReadable'
p779
I01
sg12
(lp780
sS'isElement'
p781
I00
ssg749
(dp782
g17
I00
sg10
I00
sg12
(lp783
ssVpublishedNodeInfo
p784
(dp785
S'isArray'
p786
I01
sS'attrType'
p787
VTdataCompound
p788
sS'isMulti'
p789
I01
sg29
I00
sS'isReadable'
p790
I00
sS'isElement'
p791
I00
ssVdrawOverride.overrideTexturing
p792
(dp793
S'isArray'
p794
I00
sS'attrParentLongName'
p795
VdrawOverride
p796
sS'attrChildrenNames'
p797
(lp798
sS'attrType'
p799
Vbool
p800
sS'isMulti'
p801
I00
sS'isCompound'
p802
I00
sg29
I01
sS'isReadable'
p803
I01
sg12
(lp804
sS'isElement'
p805
I00
ssVlocalScale
p806
(dp807
S'isArray'
p808
I00
sS'attrType'
p809
Vdouble3
p810
sS'attrChildrenNames'
p811
(lp812
VlocalScale.localScaleX
p813
aVlocalScale.localScaleY
p814
aVlocalScale.localScaleZ
p815
asS'isMulti'
p816
I00
sS'isCompound'
p817
I01
sg29
I01
sS'isReadable'
p818
I01
sg12
(lp819
VlocalScale.localScaleX
p820
aVlocalScale.localScaleY
p821
aVlocalScale.localScaleZ
p822
asS'isElement'
p823
I00
ssVcompInstObjGroups[0].compObjectGroups[1]
p824
(dp825
g320
I00
sg321
(lp826
VcompInstObjGroups[0].compObjectGroups[1].compObjectGrpCompList
p827
aVcompInstObjGroups[0].compObjectGroups[1].compObjectGroupId
p828
asg10
I00
sg12
(lp829
g15
aVcompInstObjGroups[0].compObjectGroups[1].compObjectGroupId
p830
assVinstObjGroups[0].objectGroups[1]
p831
(dp832
g320
I00
sg321
(lp833
VinstObjGroups[0].objectGroups[1].objectGrpCompList
p834
aVinstObjGroups[0].objectGroups[1].objectGroupId
p835
aVinstObjGroups[0].objectGroups[1].objectGrpColor
p836
asg10
I00
sg12
(lp837
VinstObjGroups[0].objectGroups[1].objectGrpCompList
p838
ag45
aVinstObjGroups[0].objectGroups[1].objectGrpColor
p839
assVghostRangeStart
p840
(dp841
S'isArray'
p842
I00
sS'attrType'
p843
Vtime
p844
sS'attrChildrenNames'
p845
(lp846
sS'isMulti'
p847
I00
sS'isCompound'
p848
I00
sg29
I01
sS'isReadable'
p849
I01
sg12
(lp850
sS'isElement'
p851
I00
ssVpublishedNodeInfo[0].publishedNodeType
p852
(dp853
S'isArray'
p854
I00
sS'attrParentLongName'
p855
VpublishedNodeInfo[0]
p856
sS'attrChildrenNames'
p857
(lp858
sS'attrType'
p859
Vstring
p860
sg10
I00
sS'isReadable'
p861
I01
sg12
(lp862
sS'isElement'
p863
I00
ssVisHierarchicalConnection
p864
(dp865
g17
I01
sg129
VTdataCompound
p866
sg10
I00
ssVinstObjGroups.objectGroups.objectGrpColor
p867
(dp868
g50
VinstObjGroups.objectGroups
p869
ssVinstObjGroups
p870
(dp871
S'isArray'
p872
I01
sS'attrType'
p873
VTdataCompound
p874
sS'isMulti'
p875
I01
sg29
I00
sS'isReadable'
p876
I00
sS'isElement'
p877
I00
ssVmaxVisibilitySamples
p878
(dp879
S'isArray'
p880
I00
sS'attrType'
p881
Vlong
p882
sS'attrChildrenNames'
p883
(lp884
sS'isMulti'
p885
I00
sS'isCompound'
p886
I00
sg29
I01
sS'isReadable'
p887
I01
sg12
(lp888
sS'isElement'
p889
I00
ssVworldPosition
p890
(dp891
S'isArray'
p892
I01
sS'attrType'
p893
Vdouble3
p894
sS'isMulti'
p895
I01
sg29
I01
sS'isReadable'
p896
I01
sg12
(lp897
VworldPosition[-1].worldPositionX
p898
aVworldPosition[-1].worldPositionY
p899
aVworldPosition[-1].worldPositionZ
p900
asS'isElement'
p901
I00
ssVworldMatrix[0]
p902
(dp903
g320
I00
sg321
(lp904
sg10
I00
sg12
(lp905
ssVdrawOverride.overrideVisibility
p906
(dp907
S'isArray'
p908
I00
sS'attrParentLongName'
p909
VdrawOverride
p910
sS'attrChildrenNames'
p911
(lp912
sS'attrType'
p913
Vbool
p914
sS'isMulti'
p915
I00
sS'isCompound'
p916
I00
sg29
I01
sS'isReadable'
p917
I01
sg12
(lp918
sS'isElement'
p919
I00
ssVghosting
p920
(dp921
S'isArray'
p922
I00
sS'attrType'
p923
Vbool
p924
sS'attrChildrenNames'
p925
(lp926
sS'isMulti'
p927
I00
sS'isCompound'
p928
I00
sg29
I01
sS'isReadable'
p929
I01
sg12
(lp930
sS'isElement'
p931
I00
ssg748
(dp932
g17
I00
sg10
I00
sg12
(lp933
ssVisHistoricallyInteresting
p934
(dp935
S'isArray'
p936
I00
sS'attrType'
p937
Vbyte
p938
sS'attrChildrenNames'
p939
(lp940
sS'isMulti'
p941
I00
sg29
I00
sS'isReadable'
p942
I00
sg12
(lp943
sS'isElement'
p944
I00
ssVcompInstObjGroups[0]
p945
(dp946
g320
I00
sg321
(lp947
VcompInstObjGroups[0].compObjectGroups
p948
asg10
I00
sg12
(lp949
VcompInstObjGroups[0].compObjectGroups
p950
assVinstObjGroups[1]
p951
(dp952
g320
I00
sg321
(lp953
VinstObjGroups[1].objectGroups
p954
asg10
I00
sg12
(lp955
g607
assVvisibleInReflections
p956
(dp957
S'isArray'
p958
I00
sS'attrType'
p959
Vbool
p960
sS'attrChildrenNames'
p961
(lp962
sS'isMulti'
p963
I00
sS'isCompound'
p964
I00
sg29
I01
sS'isReadable'
p965
I01
sg12
(lp966
sS'isElement'
p967
I00
ssVinstObjGroups.objectGroups
p968
(dp969
g50
VinstObjGroups
p970
ssVdrawOverride
p971
(dp972
S'isArray'
p973
I00
sS'attrType'
p974
VTdataCompound
p975
sS'attrChildrenNames'
p976
(lp977
VdrawOverride.overrideDisplayType
p978
aVdrawOverride.overrideLevelOfDetail
p979
aVdrawOverride.overrideShading
p980
aVdrawOverride.overrideTexturing
p981
aVdrawOverride.overridePlayback
p982
aVdrawOverride.overrideEnabled
p983
aVdrawOverride.overrideVisibility
p984
aVdrawOverride.overrideColor
p985
asS'isMulti'
p986
I00
sg29
I00
sS'isReadable'
p987
I00
sg12
(lp988
VdrawOverride.overrideDisplayType
p989
aVdrawOverride.overrideLevelOfDetail
p990
aVdrawOverride.overrideShading
p991
aVdrawOverride.overrideTexturing
p992
aVdrawOverride.overridePlayback
p993
aVdrawOverride.overrideEnabled
p994
aVdrawOverride.overrideVisibility
p995
aVdrawOverride.overrideColor
p996
asS'isElement'
p997
I00
ssVparentMatrix[1]
p998
(dp999
g320
I00
sg321
(lp1000
sg10
I00
sg12
(lp1001
ssVpublishedNodeInfo[0]
p1002
(dp1003
g320
I00
sg321
(lp1004
VpublishedNodeInfo[0].publishedNode
p1005
aVpublishedNodeInfo[0].isHierarchicalNode
p1006
aVpublishedNodeInfo[0].publishedNodeType
p1007
asg10
I00
sg12
(lp1008
VpublishedNodeInfo[0].publishedNode
p1009
aVpublishedNodeInfo[0].isHierarchicalNode
p1010
aVpublishedNodeInfo[0].publishedNodeType
p1011
assVrenderInfo
p1012
(dp1013
S'isArray'
p1014
I00
sS'attrType'
p1015
VTdataCompound
p1016
sS'attrChildrenNames'
p1017
(lp1018
VrenderInfo.identification
p1019
aVrenderInfo.layerRenderable
p1020
aVrenderInfo.layerOverrideColor
p1021
asS'isMulti'
p1022
I00
sg29
I00
sS'isReadable'
p1023
I00
sg12
(lp1024
VrenderInfo.identification
p1025
aVrenderInfo.layerRenderable
p1026
aVrenderInfo.layerOverrideColor
p1027
asS'isElement'
p1028
I00
ssVcompInstObjGroups.compObjectGroups
p1029
(dp1030
g50
VcompInstObjGroups
p1031
ssVvisibleInRefractions
p1032
(dp1033
S'isArray'
p1034
I00
sS'attrType'
p1035
Vbool
p1036
sS'attrChildrenNames'
p1037
(lp1038
sS'isMulti'
p1039
I00
sS'isCompound'
p1040
I00
sg29
I01
sS'isReadable'
p1041
I01
sg12
(lp1042
sS'isElement'
p1043
I00
ssVghostCustomSteps.ghostPostSteps
p1044
(dp1045
S'isArray'
p1046
I00
sS'attrParentLongName'
p1047
VghostCustomSteps
p1048
sS'attrChildrenNames'
p1049
(lp1050
sS'attrType'
p1051
Vlong
p1052
sS'isMulti'
p1053
I00
sS'isCompound'
p1054
I00
sg29
I01
sS'isReadable'
p1055
I01
sg12
(lp1056
sS'isElement'
p1057
I00
ssVboundingBox
p1058
(dp1059
S'isArray'
p1060
I00
sS'attrType'
p1061
VTdataCompound
p1062
sS'attrChildrenNames'
p1063
(lp1064
VboundingBox.boundingBoxMin
p1065
aVboundingBox.boundingBoxMax
p1066
aVboundingBox.boundingBoxSize
p1067
asS'isMulti'
p1068
I00
sg29
I00
sS'isReadable'
p1069
I00
sg12
(lp1070
VboundingBox.boundingBoxMin
p1071
aVboundingBox.boundingBoxMax
p1072
aVboundingBox.boundingBoxSize
p1073
asS'isElement'
p1074
I00
ssVuiTreatment
p1075
(dp1076
S'isArray'
p1077
I00
sS'attrType'
p1078
Venum
p1079
sS'attrChildrenNames'
p1080
(lp1081
sS'isMulti'
p1082
I00
sS'isCompound'
p1083
I00
sg29
I01
sS'isReadable'
p1084
I01
sg12
(lp1085
sS'isElement'
p1086
I00
ssg838
(dp1087
g17
I00
sg10
I00
sg12
(lp1088
ssViconName
p1089
(dp1090
S'isArray'
p1091
I00
sS'attrType'
p1092
Vstring
p1093
sS'attrChildrenNames'
p1094
(lp1095
sS'isMulti'
p1096
I00
sS'isCompound'
p1097
I00
sg29
I01
sS'isReadable'
p1098
I01
sg12
(lp1099
sS'isElement'
p1100
I00
ssVvisibleFraction
p1101
(dp1102
S'isArray'
p1103
I00
sS'attrType'
p1104
Vfloat
p1105
sS'attrChildrenNames'
p1106
(lp1107
sS'isMulti'
p1108
I00
sS'isCompound'
p1109
I00
sg29
I01
sS'isReadable'
p1110
I01
sg12
(lp1111
sS'isElement'
p1112
I00
ssVcompInstObjGroups[1]
p1113
(dp1114
g320
I00
sg321
(lp1115
VcompInstObjGroups[1].compObjectGroups
p1116
asg10
I00
sg12
(lp1117
VcompInstObjGroups[1].compObjectGroups
p1118
assVboundingBox.boundingBoxSize
p1119
(dp1120
S'isArray'
p1121
I00
sS'attrParentLongName'
p1122
VboundingBox
p1123
sS'attrChildrenNames'
p1124
(lp1125
VboundingBox.boundingBoxSize.boundingBoxSizeX
p1126
aVboundingBox.boundingBoxSize.boundingBoxSizeY
p1127
aVboundingBox.boundingBoxSize.boundingBoxSizeZ
p1128
asS'attrType'
p1129
Vdouble3
p1130
sS'isMulti'
p1131
I00
sS'isCompound'
p1132
I01
sg29
I01
sS'isReadable'
p1133
I01
sg12
(lp1134
VboundingBox.boundingBoxSize.boundingBoxSizeX
p1135
aVboundingBox.boundingBoxSize.boundingBoxSizeY
p1136
aVboundingBox.boundingBoxSize.boundingBoxSizeZ
p1137
asS'isElement'
p1138
I00
ssVrenderInfo.layerOverrideColor
p1139
(dp1140
S'isArray'
p1141
I00
sS'attrParentLongName'
p1142
VrenderInfo
p1143
sS'attrChildrenNames'
p1144
(lp1145
sS'attrType'
p1146
Vbyte
p1147
sS'isMulti'
p1148
I00
sg29
I00
sS'isReadable'
p1149
I00
sg12
(lp1150
sS'isElement'
p1151
I00
ssVrenderType
p1152
(dp1153
S'isArray'
p1154
I00
sS'attrType'
p1155
Vshort
p1156
sS'attrChildrenNames'
p1157
(lp1158
sS'isMulti'
p1159
I00
sS'isCompound'
p1160
I00
sg29
I01
sS'isReadable'
p1161
I01
sg12
(lp1162
sS'isElement'
p1163
I00
ssVunderWorldObject
p1164
(dp1165
g17
I00
sg129
Vbool
p1166
sg10
I01
sg12
(lp1167
ssVrenderLayerInfo[0]
p1168
(dp1169
g320
I00
sg321
(lp1170
VrenderLayerInfo[0].renderLayerId
p1171
aVrenderLayerInfo[0].renderLayerRenderable
p1172
aVrenderLayerInfo[0].renderLayerColor
p1173
asg10
I00
sg12
(lp1174
VrenderLayerInfo[0].renderLayerId
p1175
aVrenderLayerInfo[0].renderLayerRenderable
p1176
aVrenderLayerInfo[0].renderLayerColor
p1177
assVworldPosition[1]
p1178
(dp1179
g320
I00
sg321
(lp1180
VworldPosition[1].worldPositionX
p1181
aVworldPosition[1].worldPositionY
p1182
aVworldPosition[1].worldPositionZ
p1183
asg10
I00
sg12
(lp1184
VworldPosition[1].worldPositionX
p1185
aVworldPosition[1].worldPositionY
p1186
aVworldPosition[1].worldPositionZ
p1187
assVinstObjGroups[0]
p1188
(dp1189
g320
I00
sg321
(lp1190
VinstObjGroups[0].objectGroups
p1191
asg10
I00
sg12
(lp1192
VinstObjGroups[0].objectGroups
p1193
assVcompInstObjGroups[0].compObjectGroups
p1194
(dp1195
S'isArray'
p1196
I01
sS'attrParentLongName'
p1197
VcompInstObjGroups[0]
p1198
sS'attrType'
p1199
VTdataCompound
p1200
sg10
I00
sS'isReadable'
p1201
I00
sS'isElement'
p1202
I00
ssg1118
(dp1203
g17
I01
sg10
I00
ssVboundingBox.boundingBoxMin.boundingBoxMinY
p1204
(dp1205
S'isArray'
p1206
I00
sS'attrParentLongName'
p1207
VboundingBox.boundingBoxMin
p1208
sS'attrChildrenNames'
p1209
(lp1210
sS'attrType'
p1211
VdoubleLinear
p1212
sS'isMulti'
p1213
I00
sS'isCompound'
p1214
I00
sg29
I01
sS'isReadable'
p1215
I01
sg12
(lp1216
sS'isElement'
p1217
I00
ssVmaxShadingSamples
p1218
(dp1219
S'isArray'
p1220
I00
sS'attrType'
p1221
Vlong
p1222
sS'attrChildrenNames'
p1223
(lp1224
sS'isMulti'
p1225
I00
sS'isCompound'
p1226
I00
sg29
I01
sS'isReadable'
p1227
I01
sg12
(lp1228
sS'isElement'
p1229
I00
ssVinstObjGroups[0].objectGroups
p1230
(dp1231
S'isArray'
p1232
I01
sS'attrParentLongName'
p1233
VinstObjGroups[0]
p1234
sS'attrType'
p1235
VTdataCompound
p1236
sg10
I00
sS'isReadable'
p1237
I00
sS'isElement'
p1238
I00
ssVworldInverseMatrix[0]
p1239
(dp1240
g320
I00
sg321
(lp1241
sg10
I00
sg12
(lp1242
ssVboundingBox.boundingBoxMax.boundingBoxMaxY
p1243
(dp1244
S'isArray'
p1245
I00
sS'attrParentLongName'
p1246
VboundingBox.boundingBoxMax
p1247
sS'attrChildrenNames'
p1248
(lp1249
sS'attrType'
p1250
VdoubleLinear
p1251
sS'isMulti'
p1252
I00
sS'isCompound'
p1253
I00
sg29
I01
sS'isReadable'
p1254
I01
sg12
(lp1255
sS'isElement'
p1256
I00
ssVboundingBox.boundingBoxMax.boundingBoxMaxX
p1257
(dp1258
S'isArray'
p1259
I00
sS'attrParentLongName'
p1260
VboundingBox.boundingBoxMax
p1261
sS'attrChildrenNames'
p1262
(lp1263
sS'attrType'
p1264
VdoubleLinear
p1265
sS'isMulti'
p1266
I00
sS'isCompound'
p1267
I00
sg29
I01
sS'isReadable'
p1268
I01
sg12
(lp1269
sS'isElement'
p1270
I00
ssVpublishedNodeInfo[0].isHierarchicalNode
p1271
(dp1272
S'isArray'
p1273
I00
sS'attrParentLongName'
p1274
VpublishedNodeInfo[0]
p1275
sS'attrChildrenNames'
p1276
(lp1277
sS'attrType'
p1278
Vbool
p1279
sg10
I00
sS'isReadable'
p1280
I01
sg12
(lp1281
sS'isElement'
p1282
I00
ssVboundingBox.boundingBoxMax.boundingBoxMaxZ
p1283
(dp1284
S'isArray'
p1285
I00
sS'attrParentLongName'
p1286
VboundingBox.boundingBoxMax
p1287
sS'attrChildrenNames'
p1288
(lp1289
sS'attrType'
p1290
VdoubleLinear
p1291
sS'isMulti'
p1292
I00
sS'isCompound'
p1293
I00
sg29
I01
sS'isReadable'
p1294
I01
sg12
(lp1295
sS'isElement'
p1296
I00
ssVworldInverseMatrix
p1297
(dp1298
S'isArray'
p1299
I01
sS'attrType'
p1300
Vmatrix
p1301
sS'isMulti'
p1302
I01
sg29
I00
sS'isReadable'
p1303
I00
sS'isElement'
p1304
I00
ssVmaxVisibilitySamplesOverride
p1305
(dp1306
S'isArray'
p1307
I00
sS'attrType'
p1308
Vbool
p1309
sS'attrChildrenNames'
p1310
(lp1311
sS'isMulti'
p1312
I00
sS'isCompound'
p1313
I00
sg29
I01
sS'isReadable'
p1314
I01
sg12
(lp1315
sS'isElement'
p1316
I00
ssVboundingBox.boundingBoxSize.boundingBoxSizeY
p1317
(dp1318
S'isArray'
p1319
I00
sS'attrParentLongName'
p1320
VboundingBox.boundingBoxSize
p1321
sS'attrChildrenNames'
p1322
(lp1323
sS'attrType'
p1324
VdoubleLinear
p1325
sS'isMulti'
p1326
I00
sS'isCompound'
p1327
I00
sg29
I01
sS'isReadable'
p1328
I01
sg12
(lp1329
sS'isElement'
p1330
I00
ssVboundingBox.boundingBoxSize.boundingBoxSizeX
p1331
(dp1332
S'isArray'
p1333
I00
sS'attrParentLongName'
p1334
VboundingBox.boundingBoxSize
p1335
sS'attrChildrenNames'
p1336
(lp1337
sS'attrType'
p1338
VdoubleLinear
p1339
sS'isMulti'
p1340
I00
sS'isCompound'
p1341
I00
sg29
I01
sS'isReadable'
p1342
I01
sg12
(lp1343
sS'isElement'
p1344
I00
ssVboundingBox.boundingBoxSize.boundingBoxSizeZ
p1345
(dp1346
S'isArray'
p1347
I00
sS'attrParentLongName'
p1348
VboundingBox.boundingBoxSize
p1349
sS'attrChildrenNames'
p1350
(lp1351
sS'attrType'
p1352
VdoubleLinear
p1353
sS'isMulti'
p1354
I00
sS'isCompound'
p1355
I00
sg29
I01
sS'isReadable'
p1356
I01
sg12
(lp1357
sS'isElement'
p1358
I00
ssVblackBox
p1359
(dp1360
S'isArray'
p1361
I00
sS'attrType'
p1362
Vbool
p1363
sS'attrChildrenNames'
p1364
(lp1365
sS'isMulti'
p1366
I00
sS'isCompound'
p1367
I00
sg29
I01
sS'isReadable'
p1368
I01
sg12
(lp1369
sS'isElement'
p1370
I00
ssVtemplateName
p1371
(dp1372
S'isArray'
p1373
I00
sS'attrType'
p1374
Vstring
p1375
sS'attrChildrenNames'
p1376
(lp1377
sS'isMulti'
p1378
I00
sS'isCompound'
p1379
I00
sg29
I01
sS'isReadable'
p1380
I01
sg12
(lp1381
sS'isElement'
p1382
I00
ssVghostingControl
p1383
(dp1384
S'isArray'
p1385
I00
sS'attrType'
p1386
Venum
p1387
sS'attrChildrenNames'
p1388
(lp1389
sS'isMulti'
p1390
I00
sS'isCompound'
p1391
I00
sg29
I01
sS'isReadable'
p1392
I01
sg12
(lp1393
sS'isElement'
p1394
I00
ssVcastsShadows
p1395
(dp1396
S'isArray'
p1397
I00
sS'attrType'
p1398
Vbool
p1399
sS'attrChildrenNames'
p1400
(lp1401
sS'isMulti'
p1402
I00
sS'isCompound'
p1403
I00
sg29
I01
sS'isReadable'
p1404
I01
sg12
(lp1405
sS'isElement'
p1406
I00
ssVisHierarchicalConnection[0]
p1407
(dp1408
g17
I00
sg10
I00
sg12
(lp1409
ssVinstObjGroups.objectGroups.objectGroupId
p1410
(dp1411
g50
VinstObjGroups.objectGroups
p1412
ssVrenderVolume
p1413
(dp1414
S'isArray'
p1415
I00
sS'attrType'
p1416
Vbool
p1417
sS'attrChildrenNames'
p1418
(lp1419
sS'isMulti'
p1420
I00
sS'isCompound'
p1421
I00
sg29
I01
sS'isReadable'
p1422
I01
sg12
(lp1423
sS'isElement'
p1424
I00
ssVparentMatrix
p1425
(dp1426
S'isArray'
p1427
I01
sS'attrType'
p1428
Vmatrix
p1429
sS'isMulti'
p1430
I01
sg29
I00
sS'isReadable'
p1431
I00
sS'isElement'
p1432
I00
ssVdrawOverride.overrideDisplayType
p1433
(dp1434
S'isArray'
p1435
I00
sS'attrParentLongName'
p1436
VdrawOverride
p1437
sS'attrChildrenNames'
p1438
(lp1439
sS'attrType'
p1440
Venum
p1441
sS'isMulti'
p1442
I00
sS'isCompound'
p1443
I00
sg29
I01
sS'isReadable'
p1444
I01
sg12
(lp1445
sS'isElement'
p1446
I00
ssVisCollapsed
p1447
(dp1448
S'isArray'
p1449
I00
sS'attrType'
p1450
Vbool
p1451
sS'attrChildrenNames'
p1452
(lp1453
sS'isMulti'
p1454
I00
sS'isCompound'
p1455
I00
sg29
I01
sS'isReadable'
p1456
I01
sg12
(lp1457
sS'isElement'
p1458
I00
ssVnodeState
p1459
(dp1460
S'isArray'
p1461
I00
sS'attrType'
p1462
Venum
p1463
sS'attrChildrenNames'
p1464
(lp1465
sS'isMulti'
p1466
I00
sS'isCompound'
p1467
I00
sg29
I01
sS'isReadable'
p1468
I01
sg12
(lp1469
sS'isElement'
p1470
I00
ssVpublishedNodeInfo.isHierarchicalNode
p1471
(dp1472
g50
VpublishedNodeInfo
p1473
ssVlocalPosition
p1474
(dp1475
S'isArray'
p1476
I00
sS'attrType'
p1477
Vdouble3
p1478
sS'attrChildrenNames'
p1479
(lp1480
VlocalPosition.localPositionX
p1481
aVlocalPosition.localPositionY
p1482
aVlocalPosition.localPositionZ
p1483
asS'isMulti'
p1484
I00
sS'isCompound'
p1485
I01
sg29
I01
sS'isReadable'
p1486
I01
sg12
(lp1487
VlocalPosition.localPositionX
p1488
aVlocalPosition.localPositionY
p1489
aVlocalPosition.localPositionZ
p1490
asS'isElement'
p1491
I00
ssVrenderInfo.identification
p1492
(dp1493
S'isArray'
p1494
I00
sS'attrParentLongName'
p1495
VrenderInfo
p1496
sS'attrChildrenNames'
p1497
(lp1498
sS'attrType'
p1499
Vshort
p1500
sS'isMulti'
p1501
I00
sS'isCompound'
p1502
I00
sg29
I01
sS'isReadable'
p1503
I01
sg12
(lp1504
sS'isElement'
p1505
I00
ssVrenderLayerInfo[0].renderLayerColor
p1506
(dp1507
S'isArray'
p1508
I00
sS'attrParentLongName'
p1509
VrenderLayerInfo[0]
p1510
sS'attrChildrenNames'
p1511
(lp1512
sS'attrType'
p1513
Vbyte
p1514
sg10
I00
sS'isReadable'
p1515
I00
sg12
(lp1516
sS'isElement'
p1517
I00
ssg1186
(dp1518
g17
I00
sg10
I00
sg12
(lp1519
ssg1187
(dp1520
g17
I00
sg10
I00
sg12
(lp1521
ssg830
(dp1522
g17
I00
sg10
I00
sg12
(lp1523
ssVrenderLayerInfo[1]
p1524
(dp1525
g320
I00
sg321
(lp1526
VrenderLayerInfo[1].renderLayerId
p1527
aVrenderLayerInfo[1].renderLayerRenderable
p1528
aVrenderLayerInfo[1].renderLayerColor
p1529
asg10
I00
sg12
(lp1530
g442
aVrenderLayerInfo[1].renderLayerRenderable
p1531
ag124
assVworldPosition[2]
p1532
(dp1533
g17
I00
sg10
I00
sg12
(lp1534
g267
ag696
ag681
assVghostCustomSteps.ghostStepSize
p1535
(dp1536
S'isArray'
p1537
I00
sS'attrParentLongName'
p1538
VghostCustomSteps
p1539
sS'attrChildrenNames'
p1540
(lp1541
sS'attrType'
p1542
Vlong
p1543
sS'isMulti'
p1544
I00
sS'isCompound'
p1545
I00
sg29
I01
sS'isReadable'
p1546
I01
sg12
(lp1547
sS'isElement'
p1548
I00
ssVdrawOverride.overridePlayback
p1549
(dp1550
S'isArray'
p1551
I00
sS'attrParentLongName'
p1552
VdrawOverride
p1553
sS'attrChildrenNames'
p1554
(lp1555
sS'attrType'
p1556
Vbool
p1557
sS'isMulti'
p1558
I00
sS'isCompound'
p1559
I00
sg29
I01
sS'isReadable'
p1560
I01
sg12
(lp1561
sS'isElement'
p1562
I00
ssVvisibility
p1563
(dp1564
S'isArray'
p1565
I00
sS'attrType'
p1566
Vbool
p1567
sS'attrChildrenNames'
p1568
(lp1569
sS'isMulti'
p1570
I00
sS'isCompound'
p1571
I00
sg29
I01
sS'isReadable'
p1572
I01
sg12
(lp1573
sS'isElement'
p1574
I00
ssVrenderLayerInfo
p1575
(dp1576
S'isArray'
p1577
I01
sS'attrType'
p1578
VTdataCompound
p1579
sS'isMulti'
p1580
I01
sg29
I00
sS'isReadable'
p1581
I00
sS'isElement'
p1582
I00
ssVlodVisibility
p1583
(dp1584
S'isArray'
p1585
I00
sS'attrType'
p1586
Vbool
p1587
sS'attrChildrenNames'
p1588
(lp1589
sS'isMulti'
p1590
I00
sS'isCompound'
p1591
I00
sg29
I01
sS'isReadable'
p1592
I01
sg12
(lp1593
sS'isElement'
p1594
I00
ssVworldMatrix[1]
p1595
(dp1596
g320
I00
sg321
(lp1597
sg10
I00
sg12
(lp1598
ssVinstObjGroups[0].objectGroups[0].objectGrpCompList
p1599
(dp1600
S'isArray'
p1601
I00
sS'attrParentLongName'
p1602
VinstObjGroups[0].objectGroups[0]
p1603
sS'attrChildrenNames'
p1604
(lp1605
sS'attrType'
p1606
VcomponentList
p1607
sg10
I00
sS'isReadable'
p1608
I00
sg12
(lp1609
sS'isElement'
p1610
I00
ssVcenter
p1611
(dp1612
S'isArray'
p1613
I00
sS'attrType'
p1614
Vdouble3
p1615
sS'attrChildrenNames'
p1616
(lp1617
Vcenter.boundingBoxCenterX
p1618
aVcenter.boundingBoxCenterY
p1619
aVcenter.boundingBoxCenterZ
p1620
asS'isMulti'
p1621
I00
sS'isCompound'
p1622
I01
sg29
I01
sS'isReadable'
p1623
I01
sg12
(lp1624
Vcenter.boundingBoxCenterX
p1625
aVcenter.boundingBoxCenterY
p1626
aVcenter.boundingBoxCenterZ
p1627
asS'isElement'
p1628
I00
ssVdrawOverride.overrideShading
p1629
(dp1630
S'isArray'
p1631
I00
sS'attrParentLongName'
p1632
VdrawOverride
p1633
sS'attrChildrenNames'
p1634
(lp1635
sS'attrType'
p1636
Vbool
p1637
sS'isMulti'
p1638
I00
sS'isCompound'
p1639
I00
sg29
I01
sS'isReadable'
p1640
I01
sg12
(lp1641
sS'isElement'
p1642
I00
ssVcenter.boundingBoxCenterZ
p1643
(dp1644
S'isArray'
p1645
I00
sS'attrParentLongName'
p1646
Vcenter
p1647
sS'attrChildrenNames'
p1648
(lp1649
sS'attrType'
p1650
VdoubleLinear
p1651
sS'isMulti'
p1652
I00
sS'isCompound'
p1653
I00
sg29
I01
sS'isReadable'
p1654
I01
sg12
(lp1655
sS'isElement'
p1656
I00
ssVrenderLayerInfo.renderLayerColor
p1657
(dp1658
g50
VrenderLayerInfo
p1659
ssg1185
(dp1660
g17
I00
sg10
I00
sg12
(lp1661
ssg839
(dp1662
g17
I00
sg10
I00
sg12
(lp1663
ssVviewMode
p1664
(dp1665
S'isArray'
p1666
I00
sS'attrType'
p1667
Venum
p1668
sS'attrChildrenNames'
p1669
(lp1670
sS'isMulti'
p1671
I00
sS'isCompound'
p1672
I00
sg29
I01
sS'isReadable'
p1673
I01
sg12
(lp1674
sS'isElement'
p1675
I00
ssVcenter.boundingBoxCenterX
p1676
(dp1677
S'isArray'
p1678
I00
sS'attrParentLongName'
p1679
Vcenter
p1680
sS'attrChildrenNames'
p1681
(lp1682
sS'attrType'
p1683
VdoubleLinear
p1684
sS'isMulti'
p1685
I00
sS'isCompound'
p1686
I00
sg29
I01
sS'isReadable'
p1687
I01
sg12
(lp1688
sS'isElement'
p1689
I00
ssVcaching
p1690
(dp1691
S'isArray'
p1692
I00
sS'attrType'
p1693
Vbool
p1694
sS'attrChildrenNames'
p1695
(lp1696
sS'isMulti'
p1697
I00
sS'isCompound'
p1698
I00
sg29
I01
sS'isReadable'
p1699
I01
sg12
(lp1700
sS'isElement'
p1701
I00
ssVinverseMatrix
p1702
(dp1703
S'isArray'
p1704
I00
sS'attrType'
p1705
Vmatrix
p1706
sS'attrChildrenNames'
p1707
(lp1708
sS'isMulti'
p1709
I00
sg29
I00
sS'isReadable'
p1710
I00
sg12
(lp1711
sS'isElement'
p1712
I00
ssVghostFrames
p1713
(dp1714
S'isArray'
p1715
I00
sS'attrType'
p1716
NsS'attrChildrenNames'
p1717
(lp1718
sS'isMulti'
p1719
I00
sg29
I00
sS'isReadable'
p1720
I00
sg12
(lp1721
sS'isElement'
p1722
I00
ssg1531
(dp1723
g17
I00
sg10
I00
sg12
(lp1724
ssVinstObjGroups[0].objectGroups[0].objectGrpColor
p1725
(dp1726
S'isArray'
p1727
I00
sS'attrParentLongName'
p1728
VinstObjGroups[0].objectGroups[0]
p1729
sS'attrChildrenNames'
p1730
(lp1731
sS'attrType'
p1732
Vshort
p1733
sg10
I00
sS'isReadable'
p1734
I01
sg12
(lp1735
sS'isElement'
p1736
I00
ssVcenter.boundingBoxCenterY
p1737
(dp1738
S'isArray'
p1739
I00
sS'attrParentLongName'
p1740
Vcenter
p1741
sS'attrChildrenNames'
p1742
(lp1743
sS'attrType'
p1744
VdoubleLinear
p1745
sS'isMulti'
p1746
I00
sS'isCompound'
p1747
I00
sg29
I01
sS'isReadable'
p1748
I01
sg12
(lp1749
sS'isElement'
p1750
I00
ss.