(dp0
VcolorSet[0].colorSetPoints[1]
p1
(dp2
S'isArray'
p3
I00
sS'attrChildrenLongNames'
p4
(lp5
VcolorSet[0].colorSetPoints[1].colorSetPointsR
p6
aVcolorSet[0].colorSetPoints[1].colorSetPointsG
p7
aVcolorSet[0].colorSetPoints[1].colorSetPointsB
p8
aVcolorSet[0].colorSetPoints[1].colorSetPointsA
p9
assVcontrolPoints[1]
p10
(dp11
g3
I00
sg4
(lp12
VcontrolPoints[1].xValue
p13
aVcontrolPoints[1].yValue
p14
aVcontrolPoints[1].zValue
p15
assVboundingBox
p16
(dp17
g3
I00
sS'isMulti'
p18
I00
sS'attrType'
p19
VTdataCompound
p20
sS'isSimple'
p21
I00
sg4
(lp22
VboundingBox.boundingBoxMin
p23
aVboundingBox.boundingBoxMax
p24
aVboundingBox.boundingBoxSize
p25
assVcontrolPoints[0].xValue
p26
(dp27
g3
I00
sg4
(lp28
ssVworldNormal
p29
(dp30
g3
I01
sg18
I01
sg21
I01
sg19
Vdouble3
p31
ssg13
(dp32
g3
I00
sg4
(lp33
ssVrenderLayerInfo.renderLayerRenderable
p34
(dp35
S'attrParentLongName'
p36
VrenderLayerInfo
p37
ssVuvSet[0].uvSetPoints[1]
p38
(dp39
g3
I00
sg4
(lp40
VuvSet[0].uvSetPoints[1].uvSetPointsU
p41
aVuvSet[0].uvSetPoints[1].uvSetPointsV
p42
assVweights[0]
p43
(dp44
g3
I00
sg4
(lp45
ssVcompInstObjGroups.compObjectGroups
p46
(dp47
g36
VcompInstObjGroups
p48
ssVinstObjGroups[0].objectGroups[4].objectGroupId
p49
(dp50
g3
I00
sg19
Vlong
p51
sg18
I00
sS'isCompound'
p52
I00
sg21
I01
sg4
(lp53
ssVboundingBox.boundingBoxMin.boundingBoxMinY
p54
(dp55
g3
I00
sg19
VdoubleLinear
p56
sg18
I00
sg52
I00
sg21
I01
sg4
(lp57
ssVboundingBox.boundingBoxMin.boundingBoxMinX
p58
(dp59
g3
I00
sg19
VdoubleLinear
p60
sg18
I00
sg52
I00
sg21
I01
sg4
(lp61
ssVcompInstObjGroups[0].compObjectGroups[0].compObjectGrpCompList
p62
(dp63
g3
I00
sg4
(lp64
ssVboundingBox.boundingBoxMin.boundingBoxMinZ
p65
(dp66
g3
I00
sg19
VdoubleLinear
p67
sg18
I00
sg52
I00
sg21
I01
sg4
(lp68
ssVshadingSamplesOverride
p69
(dp70
g3
I00
sg19
Vbool
p71
sg18
I00
sg52
I00
sg21
I01
sg4
(lp72
ssVdispEP
p73
(dp74
g3
I00
sg19
Vbool
p75
sg18
I00
sg52
I00
sg21
I01
sg4
(lp76
ssVvolumeSamplesOverride
p77
(dp78
g3
I00
sg19
Vbool
p79
sg18
I00
sg52
I00
sg21
I01
sg4
(lp80
ssVinstObjGroups[0].objectGroups[7].objectGrpColor
p81
(dp82
g3
I00
sg19
Vshort
p83
sg18
I00
sg52
I00
sg21
I01
sg4
(lp84
ssVinstObjGroups[0].objectGroups[7].objectGrpCompList
p85
(dp86
g3
I00
sg18
I00
sg19
VcomponentList
p87
sg21
I00
sg4
(lp88
ssVtemplatePath
p89
(dp90
g3
I00
sg19
Vstring
p91
sg18
I00
sg52
I00
sg21
I01
sg4
(lp92
ssVinstObjGroups[0].objectGroups[25].objectGroupId
p93
(dp94
g3
I00
sg19
Vlong
p95
sg18
I00
sg52
I00
sg21
I01
sg4
(lp96
ssVinstObjGroups[0].objectGroups[15].objectGroupId
p97
(dp98
g3
I00
sg19
Vlong
p99
sg18
I00
sg52
I00
sg21
I01
sg4
(lp100
ssVuvSet.uvSetTweakLocation
p101
(dp102
g36
VuvSet
p103
ssVinstObjGroups[0].objectGroups[21].objectGroupId
p104
(dp105
g3
I00
sg19
Vlong
p106
sg18
I00
sg52
I00
sg21
I01
sg4
(lp107
ssVparentMatrix[0]
p108
(dp109
g3
I00
sg4
(lp110
ssVcolorSet[1].colorName
p111
(dp112
g3
I00
sg4
(lp113
ssVcurrentUVSet
p114
(dp115
g3
I00
sg19
Vstring
p116
sg18
I00
sg52
I00
sg21
I01
sg4
(lp117
ssVinstObjGroups[0].objectGroups[0]
p118
(dp119
g3
I00
sg18
I00
sg19
VTdataCompound
p120
sg21
I00
sg4
(lp121
VinstObjGroups[0].objectGroups[0].objectGrpCompList
p122
aVinstObjGroups[0].objectGroups[0].objectGroupId
p123
aVinstObjGroups[0].objectGroups[0].objectGrpColor
p124
assVcolorSet[0].colorName
p125
(dp126
g3
I00
sg4
(lp127
ssVcompInstObjGroups[0].compObjectGroups[0]
p128
(dp129
g3
I00
sg4
(lp130
g62
aVcompInstObjGroups[0].compObjectGroups[0].compObjectGroupId
p131
assVtemplate
p132
(dp133
g3
I00
sg19
Vbool
p134
sg18
I00
sg52
I00
sg21
I01
sg4
(lp135
ssVinstObjGroups[0].objectGroups[6].objectGroupId
p136
(dp137
g3
I00
sg19
Vlong
p138
sg18
I00
sg52
I00
sg21
I01
sg4
(lp139
ssVcontrolPoints.yValue
p140
(dp141
g36
VcontrolPoints
p142
ssVuvSet.uvSetPoints
p143
(dp144
g36
VuvSet
p145
ssVparentInverseMatrix[1]
p146
(dp147
g3
I00
sg4
(lp148
ssVinstObjGroups.objectGroups
p149
(dp150
g36
VinstObjGroups
p151
ssVpublishedNodeInfo
p152
(dp153
g3
I01
sg18
I01
sg21
I00
sg19
VTdataCompound
p154
ssVinstObjGroups[0].objectGroups[19].objectGrpColor
p155
(dp156
g3
I00
sg19
Vshort
p157
sg18
I00
sg52
I00
sg21
I01
sg4
(lp158
ssVinstObjGroups[0].objectGroups[25]
p159
(dp160
g3
I00
sg18
I00
sg19
VTdataCompound
p161
sg21
I00
sg4
(lp162
VinstObjGroups[0].objectGroups[25].objectGrpCompList
p163
ag93
aVinstObjGroups[0].objectGroups[25].objectGrpColor
p164
assVinstObjGroups[0].objectGroups[15]
p165
(dp166
g3
I00
sg18
I00
sg19
VTdataCompound
p167
sg21
I00
sg4
(lp168
VinstObjGroups[0].objectGroups[15].objectGrpCompList
p169
ag97
aVinstObjGroups[0].objectGroups[15].objectGrpColor
p170
assVcompInstObjGroups[0].compObjectGroups
p171
(dp172
g3
I01
ssVdisplayColorChannel
p173
(dp174
g3
I00
sg19
Vstring
p175
sg18
I00
sg52
I00
sg21
I01
sg4
(lp176
ssVinstObjGroups[0].objectGroups[24].objectGrpColor
p177
(dp178
g3
I00
sg19
Vshort
p179
sg18
I00
sg52
I00
sg21
I01
sg4
(lp180
ssVtweak
p181
(dp182
g3
I00
sg19
Vbool
p183
sg18
I00
sg52
I00
sg21
I01
sg4
(lp184
ssVinstObjGroups[0].objectGroups[9].objectGrpCompList
p185
(dp186
g3
I00
sg18
I00
sg19
VcomponentList
p187
sg21
I00
sg4
(lp188
ssVuvSet[1].uvSetPoints
p189
(dp190
g3
I01
ssVinstObjGroups[0].objectGroups[16].objectGrpCompList
p191
(dp192
g3
I00
sg18
I00
sg19
VcomponentList
p193
sg21
I00
sg4
(lp194
ssVinstObjGroups[2].objectGroups
p195
(dp196
g3
I01
ssVeditPoints[1]
p197
(dp198
g3
I00
sg4
(lp199
VeditPoints[1].xValueEp
p200
aVeditPoints[1].yValueEp
p201
aVeditPoints[1].zValueEp
p202
assVcontrolPoints[0].zValue
p203
(dp204
g3
I00
sg4
(lp205
ssVvisibility
p206
(dp207
g3
I00
sg19
Vbool
p208
sg18
I00
sg52
I00
sg21
I01
sg4
(lp209
ssVinstObjGroups[0].objectGroups[26].objectGroupId
p210
(dp211
g3
I00
sg4
(lp212
ssVeditPoints[0].yValueEp
p213
(dp214
g3
I00
sg4
(lp215
ssVinstObjGroups[0].objectGroups[23].objectGrpCompList
p216
(dp217
g3
I00
sg18
I00
sg19
VcomponentList
p218
sg21
I00
sg4
(lp219
ssVrenderInfo.layerOverrideColor
p220
(dp221
g36
VrenderInfo
p222
sg3
I00
sg19
Vbyte
p223
sg18
I00
sg21
I00
sg4
(lp224
ssVuvSet.uvSetName
p225
(dp226
g36
VuvSet
p227
ssVinstObjGroups[0]
p228
(dp229
g3
I00
sg18
I00
sg19
VTdataCompound
p230
sg21
I00
sg4
(lp231
VinstObjGroups[0].objectGroups
p232
assVinstObjGroups[0].objectGroups[16].objectGroupId
p233
(dp234
g3
I00
sg19
Vlong
p235
sg18
I00
sg52
I00
sg21
I01
sg4
(lp236
ssVinstObjGroups[0].objectGroups[4]
p237
(dp238
g3
I00
sg18
I00
sg19
VTdataCompound
p239
sg21
I00
sg4
(lp240
VinstObjGroups[0].objectGroups[4].objectGrpCompList
p241
ag49
aVinstObjGroups[0].objectGroups[4].objectGrpColor
p242
assVinstObjGroups[0].objectGroups[20].objectGrpColor
p243
(dp244
g3
I00
sg19
Vshort
p245
sg18
I00
sg52
I00
sg21
I01
sg4
(lp246
ssVinstObjGroups[0].objectGroups[5].objectGrpCompList
p247
(dp248
g3
I00
sg18
I00
sg19
VcomponentList
p249
sg21
I00
sg4
(lp250
ssVinstObjGroups[0].objectGroups[3].objectGrpCompList
p251
(dp252
g3
I00
sg18
I00
sg19
VcomponentList
p253
sg21
I00
sg4
(lp254
ssVmaxShadingSamples
p255
(dp256
g3
I00
sg19
Vlong
p257
sg18
I00
sg52
I00
sg21
I01
sg4
(lp258
ssVinstObjGroups[0].objectGroups[19].objectGroupId
p259
(dp260
g3
I00
sg19
Vlong
p261
sg18
I00
sg52
I00
sg21
I01
sg4
(lp262
ssVinstObjGroups[0].objectGroups[27].objectGrpColor
p263
(dp264
g3
I00
sg4
(lp265
ssVpublishedNodeInfo[0].isHierarchicalNode
p266
(dp267
g3
I00
sg4
(lp268
ssVboundingBox.boundingBoxSize.boundingBoxSizeY
p269
(dp270
g3
I00
sg19
VdoubleLinear
p271
sg18
I00
sg52
I00
sg21
I01
sg4
(lp272
ssVboundingBox.boundingBoxSize.boundingBoxSizeX
p273
(dp274
g3
I00
sg19
VdoubleLinear
p275
sg18
I00
sg52
I00
sg21
I01
sg4
(lp276
ssVdispCurveEndPoints
p277
(dp278
g3
I00
sg19
Vbool
p279
sg18
I00
sg52
I00
sg21
I01
sg4
(lp280
ssVtemplateName
p281
(dp282
g3
I00
sg19
Vstring
p283
sg18
I00
sg52
I00
sg21
I01
sg4
(lp284
ssVghostingControl
p285
(dp286
g3
I00
sg19
Venum
p287
sg18
I00
sg52
I00
sg21
I01
sg4
(lp288
ssVinstObjGroups[0].objectGroups[22].objectGrpColor
p289
(dp290
g3
I00
sg19
Vshort
p291
sg18
I00
sg52
I00
sg21
I01
sg4
(lp292
ssVinstObjGroups[0].objectGroups[20]
p293
(dp294
g3
I00
sg18
I00
sg19
VTdataCompound
p295
sg21
I00
sg4
(lp296
VinstObjGroups[0].objectGroups[20].objectGrpCompList
p297
aVinstObjGroups[0].objectGroups[20].objectGroupId
p298
ag243
assVcolorSet[0]
p299
(dp300
g3
I00
sg4
(lp301
g125
aVcolorSet[0].clamped
p302
aVcolorSet[0].representation
p303
aVcolorSet[0].colorSetPoints
p304
assVdispHull
p305
(dp306
g3
I00
sg19
Vbool
p307
sg18
I00
sg52
I00
sg21
I01
sg4
(lp308
ssVinstObjGroups[0].objectGroups[16]
p309
(dp310
g3
I00
sg18
I00
sg19
VTdataCompound
p311
sg21
I00
sg4
(lp312
g191
ag233
aVinstObjGroups[0].objectGroups[16].objectGrpColor
p313
assVworldNormal[1].worldNormalX
p314
(dp315
g3
I00
sg4
(lp316
ssVworldNormal[1].worldNormalY
p317
(dp318
g3
I00
sg4
(lp319
ssVdrawOverride.overrideDisplayType
p320
(dp321
g3
I00
sg19
Venum
p322
sg18
I00
sg52
I00
sg21
I01
sg4
(lp323
ssVnodeState
p324
(dp325
g3
I00
sg19
Venum
p326
sg18
I00
sg52
I00
sg21
I01
sg4
(lp327
ssVinstObjGroups[0].objectGroups[14].objectGrpColor
p328
(dp329
g3
I00
sg19
Vshort
p330
sg18
I00
sg52
I00
sg21
I01
sg4
(lp331
ssVboundingBox.boundingBoxSize.boundingBoxSizeZ
p332
(dp333
g3
I00
sg19
VdoubleLinear
p334
sg18
I00
sg52
I00
sg21
I01
sg4
(lp335
ssVworldMatrix[1]
p336
(dp337
g3
I00
sg4
(lp338
ssg169
(dp339
g3
I00
sg18
I00
sg19
VcomponentList
p340
sg21
I00
sg4
(lp341
ssVinstObjGroups[0].objectGroups[11]
p342
(dp343
g3
I00
sg18
I00
sg19
VTdataCompound
p344
sg21
I00
sg4
(lp345
VinstObjGroups[0].objectGroups[11].objectGrpCompList
p346
aVinstObjGroups[0].objectGroups[11].objectGroupId
p347
aVinstObjGroups[0].objectGroups[11].objectGrpColor
p348
assVisHierarchicalConnection
p349
(dp350
g3
I01
sg18
I01
sg21
I00
sg19
VTdataCompound
p351
ssg163
(dp352
g3
I00
sg18
I00
sg19
VcomponentList
p353
sg21
I00
sg4
(lp354
ssVuvSet
p355
(dp356
g3
I01
sg18
I01
sg21
I00
sg19
VTdataCompound
p357
ssVrenderLayerInfo[0].renderLayerId
p358
(dp359
g3
I00
sg4
(lp360
ssVuvPivot
p361
(dp362
g3
I00
sg19
Vdouble2
p363
sg18
I00
sg52
I01
sg21
I01
sg4
(lp364
VuvPivot.uvPivotX
p365
aVuvPivot.uvPivotY
p366
assg124
(dp367
g3
I00
sg19
Vshort
p368
sg18
I00
sg52
I00
sg21
I01
sg4
(lp369
ssVcompInstObjGroups[0].compObjectGroups[1].compObjectGrpCompList
p370
(dp371
g3
I00
sg4
(lp372
ssVdrawOverride.overrideColor
p373
(dp374
g3
I00
sg18
I00
sg19
Vbyte
p375
sg21
I00
sg4
(lp376
ssVrenderLayerInfo.renderLayerId
p377
(dp378
g36
VrenderLayerInfo
p379
ssVminMaxValue
p380
(dp381
g3
I00
sg19
Vdouble2
p382
sg18
I00
sg52
I01
sg21
I01
sg4
(lp383
VminMaxValue.minValue
p384
aVminMaxValue.maxValue
p385
assVignoreSelfShadowing
p386
(dp387
g3
I00
sg19
Vbool
p388
sg18
I00
sg52
I00
sg21
I01
sg4
(lp389
ssVinstObjGroups[0].objectGroups[10].objectGroupId
p390
(dp391
g3
I00
sg19
Vlong
p392
sg18
I00
sg52
I00
sg21
I01
sg4
(lp393
ssVrenderLayerInfo[1].renderLayerColor
p394
(dp395
g3
I00
sg4
(lp396
ssVcolorSet[1].representation
p397
(dp398
g3
I00
sg4
(lp399
ssVcustomTreatment
p400
(dp401
g3
I00
sg19
Vstring
p402
sg18
I00
sg52
I00
sg21
I01
sg4
(lp403
ssVinstObjGroups[0].objectGroups[13].objectGrpCompList
p404
(dp405
g3
I00
sg18
I00
sg19
VcomponentList
p406
sg21
I00
sg4
(lp407
ssVinstObjGroups[0].objectGroups[3]
p408
(dp409
g3
I00
sg18
I00
sg19
VTdataCompound
p410
sg21
I00
sg4
(lp411
g251
aVinstObjGroups[0].objectGroups[3].objectGroupId
p412
aVinstObjGroups[0].objectGroups[3].objectGrpColor
p413
assVcompInstObjGroups.compObjectGroups.compObjectGroupId
p414
(dp415
g36
VcompInstObjGroups.compObjectGroups
p416
ssVcreationDate
p417
(dp418
g3
I00
sg19
Vstring
p419
sg18
I00
sg52
I00
sg21
I01
sg4
(lp420
ssVvolumeSamples
p421
(dp422
g3
I00
sg19
Vlong
p423
sg18
I00
sg52
I00
sg21
I01
sg4
(lp424
ssVinstObjGroups[0].objectGroups[12].objectGroupId
p425
(dp426
g3
I00
sg19
Vlong
p427
sg18
I00
sg52
I00
sg21
I01
sg4
(lp428
ssVcolorSet[0].colorSetPoints[0].colorSetPointsG
p429
(dp430
g3
I00
sg4
(lp431
ssVcolorSet[0].colorSetPoints[0].colorSetPointsA
p432
(dp433
g3
I00
sg4
(lp434
ssVcolorSet[0].colorSetPoints[0].colorSetPointsB
p435
(dp436
g3
I00
sg4
(lp437
ssVinstObjGroups[0].objectGroups[27]
p438
(dp439
g3
I00
sg4
(lp440
VinstObjGroups[0].objectGroups[27].objectGrpCompList
p441
aVinstObjGroups[0].objectGroups[27].objectGroupId
p442
ag263
assVisHierarchicalConnection[1]
p443
(dp444
g3
I00
sg4
(lp445
ssVworldNormal[1].worldNormalZ
p446
(dp447
g3
I00
sg4
(lp448
ssVeditPoints.yValueEp
p449
(dp450
g36
VeditPoints
p451
ssVcolorSet[0].colorSetPoints[0].colorSetPointsR
p452
(dp453
g3
I00
sg4
(lp454
ssg304
(dp455
g3
I01
ssVworldNormal[1]
p456
(dp457
g3
I00
sg4
(lp458
g314
ag317
ag446
assVcompInstObjGroups.compObjectGroups.compObjectGrpCompList
p459
(dp460
g36
VcompInstObjGroups.compObjectGroups
p461
ssVcompInstObjGroups
p462
(dp463
g3
I01
sg18
I01
sg21
I00
sg19
VTdataCompound
p464
ssVworldNormal[0].worldNormalZ
p465
(dp466
g3
I00
sg4
(lp467
ssVinstObjGroups[0].objectGroups[24]
p468
(dp469
g3
I00
sg18
I00
sg19
VTdataCompound
p470
sg21
I00
sg4
(lp471
VinstObjGroups[0].objectGroups[24].objectGrpCompList
p472
aVinstObjGroups[0].objectGroups[24].objectGroupId
p473
ag177
assVinstObjGroups[1].objectGroups
p474
(dp475
g3
I01
ssVmatrix
p476
(dp477
g3
I00
sg18
I00
sg19
Vmatrix
p478
sg21
I00
sg4
(lp479
ssVinstObjGroups[0].objectGroups[12]
p480
(dp481
g3
I00
sg18
I00
sg19
VTdataCompound
p482
sg21
I00
sg4
(lp483
VinstObjGroups[0].objectGroups[12].objectGrpCompList
p484
ag425
aVinstObjGroups[0].objectGroups[12].objectGrpColor
p485
assg298
(dp486
g3
I00
sg19
Vlong
p487
sg18
I00
sg52
I00
sg21
I01
sg4
(lp488
ssVghostCustomSteps
p489
(dp490
g3
I00
sg18
I00
sg19
VTdataCompound
p491
sg21
I00
sg4
(lp492
VghostCustomSteps.ghostPreSteps
p493
aVghostCustomSteps.ghostPostSteps
p494
aVghostCustomSteps.ghostStepSize
p495
assVinstObjGroups[0].objectGroups[19].objectGrpCompList
p496
(dp497
g3
I00
sg18
I00
sg19
VcomponentList
p498
sg21
I00
sg4
(lp499
ssVinstObjGroups[0].objectGroups[2].objectGrpCompList
p500
(dp501
g3
I00
sg18
I00
sg19
VcomponentList
p502
sg21
I00
sg4
(lp503
ssVworldMatrix
p504
(dp505
g3
I01
sg18
I01
sg21
I00
sg19
Vmatrix
p506
ssVcontainerType
p507
(dp508
g3
I00
sg19
Vstring
p509
sg18
I00
sg52
I00
sg21
I01
sg4
(lp510
ssVcontrolPoints
p511
(dp512
g3
I01
sg18
I01
sg21
I00
sg19
VTdataCompound
p513
ssVparentInverseMatrix
p514
(dp515
g3
I01
sg18
I01
sg21
I00
sg19
Vmatrix
p516
ssVcontrolPoints[0]
p517
(dp518
g3
I00
sg4
(lp519
g26
aVcontrolPoints[0].yValue
p520
ag203
assVinstObjGroups[0].objectGroups[18].objectGrpCompList
p521
(dp522
g3
I00
sg18
I00
sg19
VcomponentList
p523
sg21
I00
sg4
(lp524
ssVrenderInfo.layerRenderable
p525
(dp526
g36
VrenderInfo
p527
sg3
I00
sg19
Vbool
p528
sg18
I00
sg52
I00
sg21
I01
sg4
(lp529
ssVrmbCommand
p530
(dp531
g3
I00
sg19
Vstring
p532
sg18
I00
sg52
I00
sg21
I01
sg4
(lp533
ssVeditPoints[0].zValueEp
p534
(dp535
g3
I00
sg4
(lp536
ssg493
(dp537
g3
I00
sg19
Vlong
p538
sg18
I00
sg52
I00
sg21
I01
sg4
(lp539
ssVpublishedNodeInfo[1].publishedNodeType
p540
(dp541
g3
I00
sg4
(lp542
ssVeditPoints.zValueEp
p543
(dp544
g36
VeditPoints
p545
ssVweights[1]
p546
(dp547
g3
I00
sg4
(lp548
ssVcolorSet.clamped
p549
(dp550
g36
VcolorSet
p551
ssg365
(dp552
g3
I00
sg19
Vdouble
p553
sg18
I00
sg52
I00
sg21
I01
sg4
(lp554
ssg366
(dp555
g3
I00
sg19
Vdouble
p556
sg18
I00
sg52
I00
sg21
I01
sg4
(lp557
ssg302
(dp558
g3
I00
sg4
(lp559
ssVinstObjGroups[0].objectGroups[2].objectGrpColor
p560
(dp561
g3
I00
sg19
Vshort
p562
sg18
I00
sg52
I00
sg21
I01
sg4
(lp563
ssVworldSpace[2]
p564
(dp565
g3
I00
sg4
(lp566
ssVdispGeometry
p567
(dp568
g3
I00
sg19
Vbool
p569
sg18
I00
sg52
I00
sg21
I01
sg4
(lp570
ssVinstObjGroups[1]
p571
(dp572
g3
I00
sg4
(lp573
g474
assVvisibleInReflections
p574
(dp575
g3
I00
sg19
Vbool
p576
sg18
I00
sg52
I00
sg21
I01
sg4
(lp577
ssVdepthJitter
p578
(dp579
g3
I00
sg19
Vbool
p580
sg18
I00
sg52
I00
sg21
I01
sg4
(lp581
ssVinstObjGroups[0].objectGroups[8].objectGrpCompList
p582
(dp583
g3
I00
sg18
I00
sg19
VcomponentList
p584
sg21
I00
sg4
(lp585
ssVparentMatrix[1]
p586
(dp587
g3
I00
sg4
(lp588
ssVinstObjGroups[0].objectGroups[7]
p589
(dp590
g3
I00
sg18
I00
sg19
VTdataCompound
p591
sg21
I00
sg4
(lp592
g85
aVinstObjGroups[0].objectGroups[7].objectGroupId
p593
ag81
assVrenderInfo
p594
(dp595
g3
I00
sg18
I00
sg19
VTdataCompound
p596
sg21
I00
sg4
(lp597
VrenderInfo.identification
p598
aVrenderInfo.layerRenderable
p599
aVrenderInfo.layerOverrideColor
p600
assVvisibleInRefractions
p601
(dp602
g3
I00
sg19
Vbool
p603
sg18
I00
sg52
I00
sg21
I01
sg4
(lp604
ssg15
(dp605
g3
I00
sg4
(lp606
ssg8
(dp607
g3
I00
sg4
(lp608
ssg9
(dp609
g3
I00
sg4
(lp610
ssg7
(dp611
g3
I00
sg4
(lp612
ssVworldSpace[1]
p613
(dp614
g3
I00
sg4
(lp615
ssVinstObjGroups[0].objectGroups[26].objectGrpColor
p616
(dp617
g3
I00
sg4
(lp618
ssVtweakLocation
p619
(dp620
g3
I00
sg18
I00
sg19
Nsg21
I00
sg4
(lp621
ssVcolorSet.colorName
p622
(dp623
g36
VcolorSet
p624
ssg6
(dp625
g3
I00
sg4
(lp626
ssVinstObjGroups[0].objectGroups[23]
p627
(dp628
g3
I00
sg18
I00
sg19
VTdataCompound
p629
sg21
I00
sg4
(lp630
g216
aVinstObjGroups[0].objectGroups[23].objectGroupId
p631
aVinstObjGroups[0].objectGroups[23].objectGrpColor
p632
assVinstObjGroups[0].objectGroups[26].objectGrpCompList
p633
(dp634
g3
I00
sg4
(lp635
ssVrenderType
p636
(dp637
g3
I00
sg19
Vshort
p638
sg18
I00
sg52
I00
sg21
I01
sg4
(lp639
ssVboundingBox.boundingBoxMax.boundingBoxMaxY
p640
(dp641
g3
I00
sg19
VdoubleLinear
p642
sg18
I00
sg52
I00
sg21
I01
sg4
(lp643
ssVboundingBox.boundingBoxMax.boundingBoxMaxX
p644
(dp645
g3
I00
sg19
VdoubleLinear
p646
sg18
I00
sg52
I00
sg21
I01
sg4
(lp647
ssVboundingBox.boundingBoxMax.boundingBoxMaxZ
p648
(dp649
g3
I00
sg19
VdoubleLinear
p650
sg18
I00
sg52
I00
sg21
I01
sg4
(lp651
ssVisCollapsed
p652
(dp653
g3
I00
sg19
Vbool
p654
sg18
I00
sg52
I00
sg21
I01
sg4
(lp655
ssg242
(dp656
g3
I00
sg19
Vshort
p657
sg18
I00
sg52
I00
sg21
I01
sg4
(lp658
ssg520
(dp659
g3
I00
sg4
(lp660
ssVinstObjGroups[0].objectGroups[18].objectGroupId
p661
(dp662
g3
I00
sg19
Vlong
p663
sg18
I00
sg52
I00
sg21
I01
sg4
(lp664
ssVcolorSet[1].colorSetPoints
p665
(dp666
g3
I01
ssVuiTreatment
p667
(dp668
g3
I00
sg19
Venum
p669
sg18
I00
sg52
I00
sg21
I01
sg4
(lp670
ssVghostFrames
p671
(dp672
g3
I00
sg18
I00
sg19
Nsg21
I00
sg4
(lp673
ssVcaching
p674
(dp675
g3
I00
sg19
Vbool
p676
sg18
I00
sg52
I00
sg21
I01
sg4
(lp677
ssVrenderLayerInfo[1].renderLayerRenderable
p678
(dp679
g3
I00
sg4
(lp680
ssg131
(dp681
g3
I00
sg4
(lp682
ssg494
(dp683
g3
I00
sg19
Vlong
p684
sg18
I00
sg52
I00
sg21
I01
sg4
(lp685
ssg593
(dp686
g3
I00
sg19
Vlong
p687
sg18
I00
sg52
I00
sg21
I01
sg4
(lp688
ssVuseObjectColor
p689
(dp690
g3
I00
sg19
Vbool
p691
sg18
I00
sg52
I00
sg21
I01
sg4
(lp692
ssVdrawOverride.overrideLevelOfDetail
p693
(dp694
g3
I00
sg19
Venum
p695
sg18
I00
sg52
I00
sg21
I01
sg4
(lp696
ssg123
(dp697
g3
I00
sg19
Vlong
p698
sg18
I00
sg52
I00
sg21
I01
sg4
(lp699
ssVinstObjGroups[0].objectGroups[21].objectGrpColor
p700
(dp701
g3
I00
sg19
Vshort
p702
sg18
I00
sg52
I00
sg21
I01
sg4
(lp703
ssVinstObjGroups[0].objectGroups[2]
p704
(dp705
g3
I00
sg18
I00
sg19
VTdataCompound
p706
sg21
I00
sg4
(lp707
g500
aVinstObjGroups[0].objectGroups[2].objectGroupId
p708
ag560
assVantialiasingLevel
p709
(dp710
g3
I00
sg19
Vlong
p711
sg18
I00
sg52
I00
sg21
I01
sg4
(lp712
ssg347
(dp713
g3
I00
sg19
Vlong
p714
sg18
I00
sg52
I00
sg21
I01
sg4
(lp715
ssVcolorSet.colorSetPoints.colorSetPointsG
p716
(dp717
g36
VcolorSet.colorSetPoints
p718
ssVcolorSet.colorSetPoints.colorSetPointsB
p719
(dp720
g36
VcolorSet.colorSetPoints
p721
ssVcolorSet.colorSetPoints.colorSetPointsA
p722
(dp723
g36
VcolorSet.colorSetPoints
p724
ssg413
(dp725
g3
I00
sg19
Vshort
p726
sg18
I00
sg52
I00
sg21
I01
sg4
(lp727
ssVminMaxValue.maxValue
p728
(dp729
g36
VminMaxValue
p730
sg3
I00
sg19
Vdouble
p731
sg18
I00
sg52
I00
sg21
I01
sg4
(lp732
ssVbinMembership
p733
(dp734
g3
I00
sg19
Vstring
p735
sg18
I00
sg52
I00
sg21
I01
sg4
(lp736
ssVcolorSet.colorSetPoints.colorSetPointsR
p737
(dp738
g36
VcolorSet.colorSetPoints
p739
ssVinstObjGroups[0].objectGroups[14].objectGroupId
p740
(dp741
g3
I00
sg19
Vlong
p742
sg18
I00
sg52
I00
sg21
I01
sg4
(lp743
ssVrenderLayerInfo[0].renderLayerRenderable
p744
(dp745
g3
I00
sg4
(lp746
ssVlocal
p747
(dp748
g3
I00
sg18
I00
sg19
VnurbsCurve
p749
sg21
I00
sg4
(lp750
ssg170
(dp751
g3
I00
sg19
Vshort
p752
sg18
I00
sg52
I00
sg21
I01
sg4
(lp753
ssVinstObjGroups[0].objectGroups[22].objectGroupId
p754
(dp755
g3
I00
sg19
Vlong
p756
sg18
I00
sg52
I00
sg21
I01
sg4
(lp757
ssg241
(dp758
g3
I00
sg18
I00
sg19
VcomponentList
p759
sg21
I00
sg4
(lp760
ssVuvSet.uvSetPoints.uvSetPointsV
p761
(dp762
g36
VuvSet.uvSetPoints
p763
ssVuvSet.uvSetPoints.uvSetPointsU
p764
(dp765
g36
VuvSet.uvSetPoints
p766
ssVparentMatrix
p767
(dp768
g3
I01
sg18
I01
sg21
I00
sg19
Vmatrix
p769
ssVinstObjGroups[0].objectGroups[17].objectGrpCompList
p770
(dp771
g3
I00
sg18
I00
sg19
VcomponentList
p772
sg21
I00
sg4
(lp773
ssVinstObjGroups[0].objectGroups[6].objectGrpColor
p774
(dp775
g3
I00
sg19
Vshort
p776
sg18
I00
sg52
I00
sg21
I01
sg4
(lp777
ssVreceiveShadows
p778
(dp779
g3
I00
sg19
Vbool
p780
sg18
I00
sg52
I00
sg21
I01
sg4
(lp781
ssVcached
p782
(dp783
g3
I00
sg18
I00
sg19
VnurbsCurve
p784
sg21
I00
sg4
(lp785
ssVinstObjGroups[0].objectGroups[14].objectGrpCompList
p786
(dp787
g3
I00
sg18
I00
sg19
VcomponentList
p788
sg21
I00
sg4
(lp789
ssVshadingSamples
p790
(dp791
g3
I00
sg19
Vlong
p792
sg18
I00
sg52
I00
sg21
I01
sg4
(lp793
ssVinstObjGroups[0].objectGroups[17]
p794
(dp795
g3
I00
sg18
I00
sg19
VTdataCompound
p796
sg21
I00
sg4
(lp797
g770
aVinstObjGroups[0].objectGroups[17].objectGroupId
p798
aVinstObjGroups[0].objectGroups[17].objectGrpColor
p799
assVdrawOverride.overrideEnabled
p800
(dp801
g3
I00
sg19
Vbool
p802
sg18
I00
sg52
I00
sg21
I01
sg4
(lp803
ssg24
(dp804
g3
I00
sg19
Vdouble3
p805
sg18
I00
sg52
I01
sg21
I01
sg4
(lp806
g644
ag640
ag648
assVcolorSet[1]
p807
(dp808
g3
I00
sg4
(lp809
g111
aVcolorSet[1].clamped
p810
ag397
ag665
assVcreator
p811
(dp812
g3
I00
sg19
Vstring
p813
sg18
I00
sg52
I00
sg21
I01
sg4
(lp814
ssg202
(dp815
g3
I00
sg4
(lp816
ssVghostRangeEnd
p817
(dp818
g3
I00
sg19
Vtime
p819
sg18
I00
sg52
I00
sg21
I01
sg4
(lp820
ssVeditPoints[0].xValueEp
p821
(dp822
g3
I00
sg4
(lp823
ssVcontrolPoints.xValue
p824
(dp825
g36
VcontrolPoints
p826
ssVtemplateVersion
p827
(dp828
g3
I00
sg19
Vlong
p829
sg18
I00
sg52
I00
sg21
I01
sg4
(lp830
ssg708
(dp831
g3
I00
sg19
Vlong
p832
sg18
I00
sg52
I00
sg21
I01
sg4
(lp833
ssVdegree
p834
(dp835
g3
I00
sg19
Vshort
p836
sg18
I00
sg52
I00
sg21
I01
sg4
(lp837
ssVuvSet[0]
p838
(dp839
g3
I00
sg4
(lp840
VuvSet[0].uvSetName
p841
aVuvSet[0].uvSetPoints
p842
aVuvSet[0].uvSetTweakLocation
p843
assg442
(dp844
g3
I00
sg4
(lp845
ssg441
(dp846
g3
I00
sg4
(lp847
ssVworldSpace
p848
(dp849
g3
I01
sg18
I01
sg21
I00
sg19
VnurbsCurve
p850
ssVinstObjGroups.objectGroups.objectGrpCompList
p851
(dp852
g36
VinstObjGroups.objectGroups
p853
ssVpublishedNodeInfo.publishedNodeType
p854
(dp855
g36
VpublishedNodeInfo
p856
ssVpublishedNodeInfo[1]
p857
(dp858
g3
I00
sg4
(lp859
VpublishedNodeInfo[1].publishedNode
p860
aVpublishedNodeInfo[1].isHierarchicalNode
p861
ag540
assVinstObjGroups[0].objectGroups[9]
p862
(dp863
g3
I00
sg18
I00
sg19
VTdataCompound
p864
sg21
I00
sg4
(lp865
g185
aVinstObjGroups[0].objectGroups[9].objectGroupId
p866
aVinstObjGroups[0].objectGroups[9].objectGrpColor
p867
assVeditPoints
p868
(dp869
g3
I01
sg18
I01
sg21
I00
sg19
VTdataCompound
p870
ssVghostRangeStart
p871
(dp872
g3
I00
sg19
Vtime
p873
sg18
I00
sg52
I00
sg21
I01
sg4
(lp874
ssVuvSet[1].uvSetTweakLocation
p875
(dp876
g3
I00
sg4
(lp877
ssVpublishedNodeInfo[0].publishedNodeType
p878
(dp879
g3
I00
sg4
(lp880
ssVinstObjGroups[2]
p881
(dp882
g3
I00
sg4
(lp883
g195
assg810
(dp884
g3
I00
sg4
(lp885
ssVinstObjGroups[0].objectGroups[6]
p886
(dp887
g3
I00
sg18
I00
sg19
VTdataCompound
p888
sg21
I00
sg4
(lp889
VinstObjGroups[0].objectGroups[6].objectGrpCompList
p890
ag136
ag774
assVheader
p891
(dp892
g3
I00
sg18
I00
sg19
VnurbsCurveHeader
p893
sg21
I00
sg4
(lp894
ssVspans
p895
(dp896
g3
I00
sg19
Vlong
p897
sg18
I00
sg52
I00
sg21
I01
sg4
(lp898
ssVisHistoricallyInteresting
p899
(dp900
g3
I00
sg18
I00
sg19
Vbyte
p901
sg21
I00
sg4
(lp902
ssVinstObjGroups[0].objectGroups[13].objectGrpColor
p903
(dp904
g3
I00
sg19
Vshort
p905
sg18
I00
sg52
I00
sg21
I01
sg4
(lp906
ssVrelativeTweak
p907
(dp908
g3
I00
sg19
Vbool
p909
sg18
I00
sg52
I00
sg21
I01
sg4
(lp910
ssVcreate
p911
(dp912
g3
I00
sg18
I00
sg19
VnurbsCurve
p913
sg21
I00
sg4
(lp914
ssVtweakSize
p915
(dp916
g3
I00
sg19
Vlong
p917
sg18
I00
sg52
I00
sg21
I01
sg4
(lp918
ssVinstObjGroups[0].objectGroups[22]
p919
(dp920
g3
I00
sg18
I00
sg19
VTdataCompound
p921
sg21
I00
sg4
(lp922
VinstObjGroups[0].objectGroups[22].objectGrpCompList
p923
ag754
ag289
assVinstObjGroups[0].objectGroups[18]
p924
(dp925
g3
I00
sg18
I00
sg19
VTdataCompound
p926
sg21
I00
sg4
(lp927
g521
ag661
aVinstObjGroups[0].objectGroups[18].objectGrpColor
p928
assVdrawOverride
p929
(dp930
g3
I00
sg18
I00
sg19
VTdataCompound
p931
sg21
I00
sg4
(lp932
g320
ag693
aVdrawOverride.overrideShading
p933
aVdrawOverride.overrideTexturing
p934
aVdrawOverride.overridePlayback
p935
ag800
aVdrawOverride.overrideVisibility
p936
ag373
assg632
(dp937
g3
I00
sg19
Vshort
p938
sg18
I00
sg52
I00
sg21
I01
sg4
(lp939
ssVcurrentColorSet
p940
(dp941
g3
I00
sg19
Vstring
p942
sg18
I00
sg52
I00
sg21
I01
sg4
(lp943
ssg473
(dp944
g3
I00
sg19
Vlong
p945
sg18
I00
sg52
I00
sg21
I01
sg4
(lp946
ssg934
(dp947
g3
I00
sg19
Vbool
p948
sg18
I00
sg52
I00
sg21
I01
sg4
(lp949
ssVcompInstObjGroups[1]
p950
(dp951
g3
I00
sg4
(lp952
VcompInstObjGroups[1].compObjectGroups
p953
assg25
(dp954
g3
I00
sg19
Vdouble3
p955
sg18
I00
sg52
I01
sg21
I01
sg4
(lp956
g273
ag269
ag332
assVinstObjGroups[0].objectGroups[13]
p957
(dp958
g3
I00
sg18
I00
sg19
VTdataCompound
p959
sg21
I00
sg4
(lp960
g404
aVinstObjGroups[0].objectGroups[13].objectGroupId
p961
ag903
assVworldInverseMatrix[0]
p962
(dp963
g3
I00
sg4
(lp964
ssVrenderLayerInfo[0]
p965
(dp966
g3
I00
sg4
(lp967
g358
ag744
aVrenderLayerInfo[0].renderLayerColor
p968
assg200
(dp969
g3
I00
sg4
(lp970
ssg953
(dp971
g3
I01
ssg232
(dp972
g3
I01
sg18
I01
sg21
I00
sg19
VTdataCompound
p973
ssg842
(dp974
g3
I01
ssVmaxVisibilitySamplesOverride
p975
(dp976
g3
I00
sg19
Vbool
p977
sg18
I00
sg52
I00
sg21
I01
sg4
(lp978
ssVlodVisibility
p979
(dp980
g3
I00
sg19
Vbool
p981
sg18
I00
sg52
I00
sg21
I01
sg4
(lp982
ssVinstObjGroups[0].objectGroups[8].objectGroupId
p983
(dp984
g3
I00
sg19
Vlong
p985
sg18
I00
sg52
I00
sg21
I01
sg4
(lp986
ssVinstObjGroups[0].objectGroups[21].objectGrpCompList
p987
(dp988
g3
I00
sg18
I00
sg19
VcomponentList
p989
sg21
I00
sg4
(lp990
ssg485
(dp991
g3
I00
sg19
Vshort
p992
sg18
I00
sg52
I00
sg21
I01
sg4
(lp993
ssVworldNormal[0]
p994
(dp995
g3
I00
sg4
(lp996
VworldNormal[0].worldNormalX
p997
aVworldNormal[0].worldNormalY
p998
ag465
assg348
(dp999
g3
I00
sg19
Vshort
p1000
sg18
I00
sg52
I00
sg21
I01
sg4
(lp1001
ssg998
(dp1002
g3
I00
sg4
(lp1003
ssg997
(dp1004
g3
I00
sg4
(lp1005
ssVpublishedNodeInfo.isHierarchicalNode
p1006
(dp1007
g36
VpublishedNodeInfo
p1008
ssVinstObjGroups[0].objectGroups[1].objectGrpCompList
p1009
(dp1010
g3
I00
sg18
I00
sg19
VcomponentList
p1011
sg21
I00
sg4
(lp1012
ssVworldNormal.worldNormalZ
p1013
(dp1014
g36
VworldNormal
p1015
ssVworldNormal.worldNormalX
p1016
(dp1017
g36
VworldNormal
p1018
ssVworldNormal.worldNormalY
p1019
(dp1020
g36
VworldNormal
p1021
ssg935
(dp1022
g3
I00
sg19
Vbool
p1023
sg18
I00
sg52
I00
sg21
I01
sg4
(lp1024
ssVinstObjGroups[0].objectGroups[5].objectGrpColor
p1025
(dp1026
g3
I00
sg19
Vshort
p1027
sg18
I00
sg52
I00
sg21
I01
sg4
(lp1028
ssVcenter
p1029
(dp1030
g3
I00
sg19
Vdouble3
p1031
sg18
I00
sg52
I01
sg21
I01
sg4
(lp1032
Vcenter.boundingBoxCenterX
p1033
aVcenter.boundingBoxCenterY
p1034
aVcenter.boundingBoxCenterZ
p1035
assg933
(dp1036
g3
I00
sg19
Vbool
p1037
sg18
I00
sg52
I00
sg21
I01
sg4
(lp1038
ssVinstObjGroups[0].objectGroups[1].objectGrpColor
p1039
(dp1040
g3
I00
sg19
Vshort
p1041
sg18
I00
sg52
I00
sg21
I01
sg4
(lp1042
ssVviewMode
p1043
(dp1044
g3
I00
sg19
Venum
p1045
sg18
I00
sg52
I00
sg21
I01
sg4
(lp1046
ssVinstObjGroups[0].objectGroups[8].objectGrpColor
p1047
(dp1048
g3
I00
sg19
Vshort
p1049
sg18
I00
sg52
I00
sg21
I01
sg4
(lp1050
ssVdispCV
p1051
(dp1052
g3
I00
sg19
Vbool
p1053
sg18
I00
sg52
I00
sg21
I01
sg4
(lp1054
ssg798
(dp1055
g3
I00
sg19
Vlong
p1056
sg18
I00
sg52
I00
sg21
I01
sg4
(lp1057
ssVintermediateObject
p1058
(dp1059
g3
I00
sg19
Vbool
p1060
sg18
I00
sg52
I00
sg21
I01
sg4
(lp1061
ssg867
(dp1062
g3
I00
sg19
Vshort
p1063
sg18
I00
sg52
I00
sg21
I01
sg4
(lp1064
ssg313
(dp1065
g3
I00
sg19
Vshort
p1066
sg18
I00
sg52
I00
sg21
I01
sg4
(lp1067
ssg412
(dp1068
g3
I00
sg19
Vlong
p1069
sg18
I00
sg52
I00
sg21
I01
sg4
(lp1070
ssg472
(dp1071
g3
I00
sg18
I00
sg19
VcomponentList
p1072
sg21
I00
sg4
(lp1073
ssVinstObjGroups[0].objectGroups[26]
p1074
(dp1075
g3
I00
sg4
(lp1076
g633
ag210
ag616
assVinstObjGroups[0].objectGroups[14]
p1077
(dp1078
g3
I00
sg18
I00
sg19
VTdataCompound
p1079
sg21
I00
sg4
(lp1080
g786
ag740
ag328
assVprimaryVisibility
p1081
(dp1082
g3
I00
sg19
Vbool
p1083
sg18
I00
sg52
I00
sg21
I01
sg4
(lp1084
ssg23
(dp1085
g3
I00
sg19
Vdouble3
p1086
sg18
I00
sg52
I01
sg21
I01
sg4
(lp1087
g58
ag54
ag65
assVcolorSet[0].colorSetPoints[0]
p1088
(dp1089
g3
I00
sg4
(lp1090
g452
ag429
ag435
ag432
assVmotionBlur
p1091
(dp1092
g3
I00
sg19
Vbool
p1093
sg18
I00
sg52
I00
sg21
I01
sg4
(lp1094
ssVworldInverseMatrix[1]
p1095
(dp1096
g3
I00
sg4
(lp1097
ssVcolorSet
p1098
(dp1099
g3
I01
sg18
I01
sg21
I00
sg19
VTdataCompound
p1100
ssVuvSet[0].uvSetPoints[0]
p1101
(dp1102
g3
I00
sg4
(lp1103
VuvSet[0].uvSetPoints[0].uvSetPointsU
p1104
aVuvSet[0].uvSetPoints[0].uvSetPointsV
p1105
assVdisplayColors
p1106
(dp1107
g3
I00
sg19
Vbool
p1108
sg18
I00
sg52
I00
sg21
I01
sg4
(lp1109
ssg799
(dp1110
g3
I00
sg19
Vshort
p1111
sg18
I00
sg52
I00
sg21
I01
sg4
(lp1112
ssg484
(dp1113
g3
I00
sg18
I00
sg19
VcomponentList
p1114
sg21
I00
sg4
(lp1115
ssVparentInverseMatrix[0]
p1116
(dp1117
g3
I00
sg4
(lp1118
ssVrenderLayerInfo[1].renderLayerId
p1119
(dp1120
g3
I00
sg4
(lp1121
ssVobjectColor
p1122
(dp1123
g3
I00
sg19
Vshort
p1124
sg18
I00
sg52
I00
sg21
I01
sg4
(lp1125
ssVpublishedNodeInfo[0]
p1126
(dp1127
g3
I00
sg4
(lp1128
VpublishedNodeInfo[0].publishedNode
p1129
ag266
ag878
assg41
(dp1130
g3
I00
sg4
(lp1131
ssg42
(dp1132
g3
I00
sg4
(lp1133
ssVeditPoints.xValueEp
p1134
(dp1135
g36
VeditPoints
p1136
ssg1129
(dp1137
g3
I00
sg4
(lp1138
ssg861
(dp1139
g3
I00
sg4
(lp1140
ssVinstObjGroups[0].objectGroups[8]
p1141
(dp1142
g3
I00
sg18
I00
sg19
VTdataCompound
p1143
sg21
I00
sg4
(lp1144
g582
ag983
ag1047
assVinstObjGroups[0].objectGroups[10].objectGrpCompList
p1145
(dp1146
g3
I00
sg18
I00
sg19
VcomponentList
p1147
sg21
I00
sg4
(lp1148
ssVviewName
p1149
(dp1150
g3
I00
sg19
Vstring
p1151
sg18
I00
sg52
I00
sg21
I01
sg4
(lp1152
ssVinPlace
p1153
(dp1154
g3
I00
sg19
Vbool
p1155
sg18
I00
sg52
I00
sg21
I01
sg4
(lp1156
ssVinstObjGroups[0].objectGroups[1]
p1157
(dp1158
g3
I00
sg18
I00
sg19
VTdataCompound
p1159
sg21
I00
sg4
(lp1160
g1009
aVinstObjGroups[0].objectGroups[1].objectGroupId
p1161
ag1039
assg1104
(dp1162
g3
I00
sg4
(lp1163
ssg1105
(dp1164
g3
I00
sg4
(lp1165
ssViconName
p1166
(dp1167
g3
I00
sg19
Vstring
p1168
sg18
I00
sg52
I00
sg21
I01
sg4
(lp1169
ssVcompInstObjGroups[0].compObjectGroups[1]
p1170
(dp1171
g3
I00
sg4
(lp1172
g370
aVcompInstObjGroups[0].compObjectGroups[1].compObjectGroupId
p1173
assg866
(dp1174
g3
I00
sg19
Vlong
p1175
sg18
I00
sg52
I00
sg21
I01
sg4
(lp1176
ssVinstObjGroups
p1177
(dp1178
g3
I01
sg18
I01
sg21
I00
sg19
VTdataCompound
p1179
ssVmaxVisibilitySamples
p1180
(dp1181
g3
I00
sg19
Vlong
p1182
sg18
I00
sg52
I00
sg21
I01
sg4
(lp1183
ssVworldMatrix[0]
p1184
(dp1185
g3
I00
sg4
(lp1186
ssg936
(dp1187
g3
I00
sg19
Vbool
p1188
sg18
I00
sg52
I00
sg21
I01
sg4
(lp1189
ssVghosting
p1190
(dp1191
g3
I00
sg19
Vbool
p1192
sg18
I00
sg52
I00
sg21
I01
sg4
(lp1193
ssg860
(dp1194
g3
I00
sg4
(lp1195
ssg961
(dp1196
g3
I00
sg19
Vlong
p1197
sg18
I00
sg52
I00
sg21
I01
sg4
(lp1198
ssVgeometryAntialiasingOverride
p1199
(dp1200
g3
I00
sg19
Vbool
p1201
sg18
I00
sg52
I00
sg21
I01
sg4
(lp1202
ssg303
(dp1203
g3
I00
sg4
(lp1204
ssg122
(dp1205
g3
I00
sg18
I00
sg19
VcomponentList
p1206
sg21
I00
sg4
(lp1207
ssVinstObjGroups[0].objectGroups[10]
p1208
(dp1209
g3
I00
sg18
I00
sg19
VTdataCompound
p1210
sg21
I00
sg4
(lp1211
g1145
ag390
aVinstObjGroups[0].objectGroups[10].objectGrpColor
p1212
assVcompInstObjGroups[0]
p1213
(dp1214
g3
I00
sg4
(lp1215
g171
assg1212
(dp1216
g3
I00
sg19
Vshort
p1217
sg18
I00
sg52
I00
sg21
I01
sg4
(lp1218
ssVuvSet[1].uvSetName
p1219
(dp1220
g3
I00
sg4
(lp1221
ssg297
(dp1222
g3
I00
sg18
I00
sg19
VcomponentList
p1223
sg21
I00
sg4
(lp1224
ssg14
(dp1225
g3
I00
sg4
(lp1226
ssVform
p1227
(dp1228
g3
I00
sg19
Venum
p1229
sg18
I00
sg52
I00
sg21
I01
sg4
(lp1230
ssg1161
(dp1231
g3
I00
sg19
Vlong
p1232
sg18
I00
sg52
I00
sg21
I01
sg4
(lp1233
ssVuvSet[1]
p1234
(dp1235
g3
I00
sg4
(lp1236
g1219
ag189
ag875
assVvisibleFraction
p1237
(dp1238
g3
I00
sg19
Vfloat
p1239
sg18
I00
sg52
I00
sg21
I01
sg4
(lp1240
ssg164
(dp1241
g3
I00
sg19
Vshort
p1242
sg18
I00
sg52
I00
sg21
I01
sg4
(lp1243
ssVeditPoints[0]
p1244
(dp1245
g3
I00
sg4
(lp1246
g821
ag213
ag534
assg928
(dp1247
g3
I00
sg19
Vshort
p1248
sg18
I00
sg52
I00
sg21
I01
sg4
(lp1249
ssVinstObjGroups[0].objectGroups[5].objectGroupId
p1250
(dp1251
g3
I00
sg19
Vlong
p1252
sg18
I00
sg52
I00
sg21
I01
sg4
(lp1253
ssVcolorSet.colorSetPoints
p1254
(dp1255
g36
VcolorSet
p1256
ssg923
(dp1257
g3
I00
sg18
I00
sg19
VcomponentList
p1258
sg21
I00
sg4
(lp1259
ssVworldInverseMatrix
p1260
(dp1261
g3
I01
sg18
I01
sg21
I00
sg19
Vmatrix
p1262
ssg841
(dp1263
g3
I00
sg4
(lp1264
ssVrenderInfo.identification
p1265
(dp1266
g36
VrenderInfo
p1267
sg3
I00
sg19
Vshort
p1268
sg18
I00
sg52
I00
sg21
I01
sg4
(lp1269
ssVblackBox
p1270
(dp1271
g3
I00
sg19
Vbool
p1272
sg18
I00
sg52
I00
sg21
I01
sg4
(lp1273
ssVrenderLayerInfo.renderLayerColor
p1274
(dp1275
g36
VrenderLayerInfo
p1276
ssVworldSpace[0]
p1277
(dp1278
g3
I00
sg18
I00
sg19
VnurbsCurve
p1279
sg21
I00
sg4
(lp1280
ssg890
(dp1281
g3
I00
sg18
I00
sg19
VcomponentList
p1282
sg21
I00
sg4
(lp1283
ssVcastsShadows
p1284
(dp1285
g3
I00
sg19
Vbool
p1286
sg18
I00
sg52
I00
sg21
I01
sg4
(lp1287
ssVisHierarchicalConnection[0]
p1288
(dp1289
g3
I00
sg4
(lp1290
ssVrenderVolume
p1291
(dp1292
g3
I00
sg19
Vbool
p1293
sg18
I00
sg52
I00
sg21
I01
sg4
(lp1294
ssg631
(dp1295
g3
I00
sg19
Vlong
p1296
sg18
I00
sg52
I00
sg21
I01
sg4
(lp1297
ssg384
(dp1298
g3
I00
sg19
Vdouble
p1299
sg18
I00
sg52
I00
sg21
I01
sg4
(lp1300
ssg346
(dp1301
g3
I00
sg18
I00
sg19
VcomponentList
p1302
sg21
I00
sg4
(lp1303
ssVinstObjGroups[0].objectGroups[5]
p1304
(dp1305
g3
I00
sg18
I00
sg19
VTdataCompound
p1306
sg21
I00
sg4
(lp1307
g247
ag1250
ag1025
assg968
(dp1308
g3
I00
sg4
(lp1309
ssg1173
(dp1310
g3
I00
sg4
(lp1311
ssg843
(dp1312
g3
I00
sg4
(lp1313
ssVdisplayImmediate
p1314
(dp1315
g3
I00
sg19
Vbool
p1316
sg18
I00
sg52
I00
sg21
I01
sg4
(lp1317
ssVrenderLayerInfo[1]
p1318
(dp1319
g3
I00
sg4
(lp1320
g1119
ag678
ag394
assg495
(dp1321
g3
I00
sg19
Vlong
p1322
sg18
I00
sg52
I00
sg21
I01
sg4
(lp1323
ssVrenderLayerInfo
p1324
(dp1325
g3
I01
sg18
I01
sg21
I00
sg19
VTdataCompound
p1326
ssVcontrolPoints.zValue
p1327
(dp1328
g36
VcontrolPoints
p1329
ssg201
(dp1330
g3
I00
sg4
(lp1331
ssVinstObjGroups[0].objectGroups[21]
p1332
(dp1333
g3
I00
sg18
I00
sg19
VTdataCompound
p1334
sg21
I00
sg4
(lp1335
g987
ag104
ag700
assVweights
p1336
(dp1337
g3
I01
sg18
I01
sg21
I00
sg19
VTdataCompound
p1338
ssVinstObjGroups[0].objectGroups[19]
p1339
(dp1340
g3
I00
sg18
I00
sg19
VTdataCompound
p1341
sg21
I00
sg4
(lp1342
g496
ag259
ag155
assVinverseMatrix
p1343
(dp1344
g3
I00
sg18
I00
sg19
Vmatrix
p1345
sg21
I00
sg4
(lp1346
ssVcolorSet.representation
p1347
(dp1348
g36
VcolorSet
p1349
ssVcenter.boundingBoxCenterZ
p1350
(dp1351
g36
Vcenter
p1352
sg3
I00
sg19
VdoubleLinear
p1353
sg18
I00
sg52
I00
sg21
I01
sg4
(lp1354
ssVcenter.boundingBoxCenterX
p1355
(dp1356
g36
Vcenter
p1357
sg3
I00
sg19
VdoubleLinear
p1358
sg18
I00
sg52
I00
sg21
I01
sg4
(lp1359
ssVcenter.boundingBoxCenterY
p1360
(dp1361
g36
Vcenter
p1362
sg3
I00
sg19
VdoubleLinear
p1363
sg18
I00
sg52
I00
sg21
I01
sg4
(lp1364
ss.