(dp0
VcompInstObjGroups[0].compObjectGroups[0].compObjectGroupId
p1
(dp2
S'isArray'
p3
I00
sS'isElement'
p4
I00
sS'attrParentLongName'
p5
VcompInstObjGroups[0].compObjectGroups[0]
p6
sS'attrChildrenNames'
p7
(lp8
ssVdrawOverride.overrideColor
p9
(dp10
S'isArray'
p11
I00
sS'attrParentLongName'
p12
VdrawOverride
p13
sS'attrChildrenNames'
p14
(lp15
sS'attrType'
p16
Vbyte
p17
sS'isMulti'
p18
I00
sS'isCompound'
p19
I00
sS'isSimple'
p20
I00
sS'isReadable'
p21
I00
sS'isElement'
p22
I00
ssVintermediateObject
p23
(dp24
S'isArray'
p25
I00
sS'isElement'
p26
I00
sS'attrChildrenNames'
p27
(lp28
sS'isCompound'
p29
I00
sS'isMulti'
p30
I00
ssVuDivisionsFactor
p31
(dp32
S'isArray'
p33
I00
sS'isElement'
p34
I00
sS'isMulti'
p35
I00
sS'attrChildrenNames'
p36
(lp37
sS'isCompound'
p38
I00
ssVdisplayHWEnvironment
p39
(dp40
S'isArray'
p41
I00
sS'isElement'
p42
I00
sS'isMulti'
p43
I00
sS'isCompound'
p44
I00
sS'attrChildrenNames'
p45
(lp46
ssVuseObjectColor
p47
(dp48
S'isArray'
p49
I00
sS'isElement'
p50
I00
sS'isCompound'
p51
I00
sS'attrChildrenNames'
p52
(lp53
sS'isMulti'
p54
I00
ssVdrawOverride.overrideLevelOfDetail
p55
(dp56
S'isArray'
p57
I00
sS'attrParentLongName'
p58
VdrawOverride
p59
sS'attrChildrenNames'
p60
(lp61
sS'attrType'
p62
Venum
p63
sS'isMulti'
p64
I00
sS'isCompound'
p65
I00
sg20
I01
sS'isReadable'
p66
I01
sS'isElement'
p67
I00
ssVinstObjGroups[0].objectGroups[0].objectGroupId
p68
(dp69
S'isArray'
p70
I00
sS'attrParentLongName'
p71
VinstObjGroups[0].objectGroups[0]
p72
sS'attrChildrenNames'
p73
(lp74
sS'isMulti'
p75
I00
sS'isCompound'
p76
I00
sS'isElement'
p77
I00
ssVminMaxRangeU.minValueU
p78
(dp79
S'isArray'
p80
I00
sS'attrParentLongName'
p81
VminMaxRangeU
p82
sS'attrChildrenNames'
p83
(lp84
sS'isMulti'
p85
I00
sS'isCompound'
p86
I00
sS'isElement'
p87
I00
ssVghostCustomSteps
p88
(dp89
S'isArray'
p90
I00
sS'isElement'
p91
I00
sS'isMulti'
p92
I00
sS'attrChildrenNames'
p93
(lp94
VghostCustomSteps.ghostPreSteps
p95
aVghostCustomSteps.ghostPostSteps
p96
aVghostCustomSteps.ghostStepSize
p97
asS'isCompound'
p98
I01
ssVcontrolPoints[0].xValue
p99
(dp100
S'isArray'
p101
I00
sS'isElement'
p102
I00
sS'attrParentLongName'
p103
VcontrolPoints[0]
p104
sS'attrChildrenNames'
p105
(lp106
ssVinitialSampleRate
p107
(dp108
S'isArray'
p109
I00
sS'isElement'
p110
I00
sS'isMulti'
p111
I00
sS'isCompound'
p112
I00
sS'attrChildrenNames'
p113
(lp114
ssVformU
p115
(dp116
S'isArray'
p117
I00
sS'isElement'
p118
I00
sS'isCompound'
p119
I00
sS'attrChildrenNames'
p120
(lp121
sS'isMulti'
p122
I00
ssVantialiasingLevel
p123
(dp124
S'isArray'
p125
I00
sS'isElement'
p126
I00
sS'isCompound'
p127
I00
sS'attrChildrenNames'
p128
(lp129
sS'isMulti'
p130
I00
ssVdoubleSided
p131
(dp132
S'isArray'
p133
I00
sS'isElement'
p134
I00
sS'isCompound'
p135
I00
sS'attrChildrenNames'
p136
(lp137
sS'isMulti'
p138
I00
ssVignoreSelfShadowing
p139
(dp140
S'isArray'
p141
I00
sS'isElement'
p142
I00
sS'attrChildrenNames'
p143
(lp144
sS'isCompound'
p145
I00
sS'isMulti'
p146
I00
ssVghostFrames
p147
(dp148
S'isArray'
p149
I00
sS'isElement'
p150
I00
sS'isCompound'
p151
I00
sS'attrChildrenNames'
p152
(lp153
sS'isMulti'
p154
I00
ssVchordHeight
p155
(dp156
S'isArray'
p157
I00
sS'isElement'
p158
I00
sS'attrChildrenNames'
p159
(lp160
sS'isCompound'
p161
I00
sS'isMulti'
p162
I00
ssVcollisionOffsetVelocityMultiplier[0].collisionOffsetVelocityMultiplier_FloatValue
p163
(dp164
S'isArray'
p165
I00
sS'attrParentLongName'
p166
VcollisionOffsetVelocityMultiplier[0]
p167
sS'attrChildrenNames'
p168
(lp169
sS'isMulti'
p170
I00
sS'isCompound'
p171
I00
sS'isElement'
p172
I00
ssVtemplatePath
p173
(dp174
S'isArray'
p175
I00
sS'isElement'
p176
I00
sS'isMulti'
p177
I00
sS'isCompound'
p178
I00
sS'attrChildrenNames'
p179
(lp180
ssVmentalRayControls.miUpdateProxyBoundingBoxMode
p181
(dp182
S'isArray'
p183
I00
sS'attrParentLongName'
p184
VmentalRayControls
p185
sS'attrChildrenNames'
p186
(lp187
sS'isMulti'
p188
I00
sS'isCompound'
p189
I00
sS'isElement'
p190
I00
ssVcollisionOffsetVelocityMultiplier[0].collisionOffsetVelocityMultiplier_Interp
p191
(dp192
S'isArray'
p193
I00
sS'attrParentLongName'
p194
VcollisionOffsetVelocityMultiplier[0]
p195
sS'attrChildrenNames'
p196
(lp197
sS'isMulti'
p198
I00
sS'isCompound'
p199
I00
sS'isElement'
p200
I00
ssVfeatureDisplacement
p201
(dp202
S'isArray'
p203
I00
sS'isElement'
p204
I00
sS'isMulti'
p205
I00
sS'attrChildrenNames'
p206
(lp207
sS'isCompound'
p208
I00
ssVmentalRayControls.miFinalGatherRays
p209
(dp210
S'isArray'
p211
I00
sS'attrParentLongName'
p212
VmentalRayControls
p213
sS'attrChildrenNames'
p214
(lp215
sS'isMulti'
p216
I00
sS'isCompound'
p217
I00
sS'isElement'
p218
I00
ssVnormalsDisplayScale
p219
(dp220
S'isArray'
p221
I00
sS'isElement'
p222
I00
sS'isMulti'
p223
I00
sS'isCompound'
p224
I00
sS'attrChildrenNames'
p225
(lp226
ssVcustomTreatment
p227
(dp228
S'isArray'
p229
I00
sS'isElement'
p230
I00
sS'isMulti'
p231
I00
sS'isCompound'
p232
I00
sS'attrChildrenNames'
p233
(lp234
ssVrenderLayerInfo[0].renderLayerRenderable
p235
(dp236
S'isArray'
p237
I00
sS'isElement'
p238
I00
sS'attrParentLongName'
p239
VrenderLayerInfo[0]
p240
sS'attrChildrenNames'
p241
(lp242
ssVprimaryVisibility
p243
(dp244
S'isArray'
p245
I00
sS'isElement'
p246
I00
sS'isCompound'
p247
I00
sS'attrChildrenNames'
p248
(lp249
sS'isMulti'
p250
I00
ssVlocal
p251
(dp252
S'isArray'
p253
I00
sS'isElement'
p254
I00
sS'isMulti'
p255
I00
sS'isCompound'
p256
I00
sS'attrChildrenNames'
p257
(lp258
ssVselCVDisp
p259
(dp260
S'isArray'
p261
I00
sS'isElement'
p262
I00
sS'attrChildrenNames'
p263
(lp264
sS'isCompound'
p265
I00
sS'isMulti'
p266
I00
ssVboundingBox.boundingBoxMin.boundingBoxMinY
p267
(dp268
S'isArray'
p269
I00
sS'attrParentLongName'
p270
VboundingBox.boundingBoxMin
p271
sS'attrChildrenNames'
p272
(lp273
sS'isMulti'
p274
I00
sS'isCompound'
p275
I00
sS'isElement'
p276
I00
ssVboundingBox.boundingBoxMin.boundingBoxMinX
p277
(dp278
S'isArray'
p279
I00
sS'attrParentLongName'
p280
VboundingBox.boundingBoxMin
p281
sS'attrChildrenNames'
p282
(lp283
sS'isMulti'
p284
I00
sS'isCompound'
p285
I00
sS'isElement'
p286
I00
ssVcompInstObjGroups[0].compObjectGroups[0].compObjectGrpCompList
p287
(dp288
S'isArray'
p289
I00
sS'isElement'
p290
I00
sS'attrParentLongName'
p291
VcompInstObjGroups[0].compObjectGroups[0]
p292
sS'attrChildrenNames'
p293
(lp294
ssVboundingBox.boundingBoxMin.boundingBoxMinZ
p295
(dp296
S'isArray'
p297
I00
sS'attrParentLongName'
p298
VboundingBox.boundingBoxMin
p299
sS'attrChildrenNames'
p300
(lp301
sS'isMulti'
p302
I00
sS'isCompound'
p303
I00
sS'isElement'
p304
I00
ssVshadingSamplesOverride
p305
(dp306
S'isArray'
p307
I00
sS'isElement'
p308
I00
sS'attrChildrenNames'
p309
(lp310
sS'isCompound'
p311
I00
sS'isMulti'
p312
I00
ssVmentalRayControls.miProxyBoundingBox.miProxyBoundingBoxMax
p313
(dp314
S'isArray'
p315
I00
sS'attrParentLongName'
p316
VmentalRayControls.miProxyBoundingBox
p317
sS'attrChildrenNames'
p318
(lp319
VmentalRayControls.miProxyBoundingBox.miProxyBoundingBoxMax.miProxyBoundingBoxMaxX
p320
aVmentalRayControls.miProxyBoundingBox.miProxyBoundingBoxMax.miProxyBoundingBoxMaxY
p321
aVmentalRayControls.miProxyBoundingBox.miProxyBoundingBoxMax.miProxyBoundingBoxMaxZ
p322
asS'isMulti'
p323
I00
sS'isCompound'
p324
I01
sS'isElement'
p325
I00
ssVmentalRayControls.miProxyBoundingBox.miProxyBoundingBoxMin
p326
(dp327
S'isArray'
p328
I00
sS'attrParentLongName'
p329
VmentalRayControls.miProxyBoundingBox
p330
sS'attrChildrenNames'
p331
(lp332
VmentalRayControls.miProxyBoundingBox.miProxyBoundingBoxMin.miProxyBoundingBoxMinX
p333
aVmentalRayControls.miProxyBoundingBox.miProxyBoundingBoxMin.miProxyBoundingBoxMinY
p334
aVmentalRayControls.miProxyBoundingBox.miProxyBoundingBoxMin.miProxyBoundingBoxMinZ
p335
asS'isMulti'
p336
I00
sS'isCompound'
p337
I01
sS'isElement'
p338
I00
ssVmotionBlur
p339
(dp340
S'isArray'
p341
I00
sS'isElement'
p342
I00
sS'isCompound'
p343
I00
sS'attrChildrenNames'
p344
(lp345
sS'isMulti'
p346
I00
ssVmentalRayControls.miGlobillumAccuracy
p347
(dp348
S'isArray'
p349
I00
sS'attrParentLongName'
p350
VmentalRayControls
p351
sS'attrChildrenNames'
p352
(lp353
sS'isMulti'
p354
I00
sS'isCompound'
p355
I00
sS'isElement'
p356
I00
ssVdispEP
p357
(dp358
S'isArray'
p359
I00
sS'isElement'
p360
I00
sS'attrChildrenNames'
p361
(lp362
sS'isCompound'
p363
I00
sS'isMulti'
p364
I00
ssVvolumeSamplesOverride
p365
(dp366
S'isArray'
p367
I00
sS'isElement'
p368
I00
sS'isCompound'
p369
I00
sS'attrChildrenNames'
p370
(lp371
sS'isMulti'
p372
I00
ssVparentMatrix
p373
(dp374
S'isArray'
p375
I01
sS'isElement'
p376
I00
sS'isMulti'
p377
I01
ssVrenderLayerInfo[0].renderLayerId
p378
(dp379
S'isArray'
p380
I00
sS'isElement'
p381
I00
sS'attrParentLongName'
p382
VrenderLayerInfo[0]
p383
sS'attrChildrenNames'
p384
(lp385
ssVspansUV
p386
(dp387
S'isArray'
p388
I00
sS'isElement'
p389
I00
sS'isMulti'
p390
I00
sS'attrChildrenNames'
p391
(lp392
VspansUV.spansU
p393
aVspansUV.spansV
p394
asS'isCompound'
p395
I01
ssVcolorSet
p396
(dp397
S'isArray'
p398
I01
sS'isElement'
p399
I00
sS'isMulti'
p400
I01
ssVdivisionsV
p401
(dp402
S'isArray'
p403
I00
sS'isElement'
p404
I00
sS'isCompound'
p405
I00
sS'attrChildrenNames'
p406
(lp407
sS'isMulti'
p408
I00
ssVrenderTriangleCount
p409
(dp410
S'isArray'
p411
I00
sS'isElement'
p412
I00
sS'isMulti'
p413
I00
sS'isCompound'
p414
I00
sS'attrChildrenNames'
p415
(lp416
ssVcreationDate
p417
(dp418
S'isArray'
p419
I00
sS'isElement'
p420
I00
sS'isMulti'
p421
I00
sS'isCompound'
p422
I00
sS'attrChildrenNames'
p423
(lp424
ssVcollisionDepthVelocityMultiplier
p425
(dp426
S'isArray'
p427
I01
sS'isElement'
p428
I00
sS'isMulti'
p429
I01
ssVreceiveShadows
p430
(dp431
S'isArray'
p432
I00
sS'isElement'
p433
I00
sS'isCompound'
p434
I00
sS'attrChildrenNames'
p435
(lp436
sS'isMulti'
p437
I00
ssVvolumeSamples
p438
(dp439
S'isArray'
p440
I00
sS'isElement'
p441
I00
sS'attrChildrenNames'
p442
(lp443
sS'isCompound'
p444
I00
sS'isMulti'
p445
I00
ssVdivisionsU
p446
(dp447
S'isArray'
p448
I00
sS'isElement'
p449
I00
sS'attrChildrenNames'
p450
(lp451
sS'isCompound'
p452
I00
sS'isMulti'
p453
I00
ssVcached
p454
(dp455
S'isArray'
p456
I00
sS'isElement'
p457
I00
sS'isCompound'
p458
I00
sS'attrChildrenNames'
p459
(lp460
sS'isMulti'
p461
I00
ssVcolorSet[0].representation
p462
(dp463
S'isArray'
p464
I00
sS'isElement'
p465
I00
sS'attrParentLongName'
p466
VcolorSet[0]
p467
sS'attrChildrenNames'
p468
(lp469
ssVcolorSet[0].colorSetPoints[0].colorSetPointsG
p470
(dp471
S'isArray'
p472
I00
sS'isElement'
p473
I00
sS'attrParentLongName'
p474
VcolorSet[0].colorSetPoints[0]
p475
sS'attrChildrenNames'
p476
(lp477
ssVcolorSet[0].colorSetPoints[0].colorSetPointsA
p478
(dp479
S'isArray'
p480
I00
sS'isElement'
p481
I00
sS'attrParentLongName'
p482
VcolorSet[0].colorSetPoints[0]
p483
sS'attrChildrenNames'
p484
(lp485
ssVcolorSet[0].colorSetPoints[0].colorSetPointsB
p486
(dp487
S'isArray'
p488
I00
sS'isElement'
p489
I00
sS'attrParentLongName'
p490
VcolorSet[0].colorSetPoints[0]
p491
sS'attrChildrenNames'
p492
(lp493
ssVmentalRayControls.miReflectionReceive
p494
(dp495
S'isArray'
p496
I00
sS'attrParentLongName'
p497
VmentalRayControls
p498
sS'attrChildrenNames'
p499
(lp500
sS'isMulti'
p501
I00
sS'isCompound'
p502
I00
sS'isElement'
p503
I00
ssVcollisionDepthVelocityMultiplier[0].collisionDepthVelocityMultiplier_FloatValue
p504
(dp505
S'isArray'
p506
I00
sS'attrParentLongName'
p507
VcollisionDepthVelocityMultiplier[0]
p508
sS'attrChildrenNames'
p509
(lp510
sS'isMulti'
p511
I00
sS'isCompound'
p512
I00
sS'isElement'
p513
I00
ssVcollisionOffsetVelocityMultiplier[0].collisionOffsetVelocityMultiplier_Position
p514
(dp515
S'isArray'
p516
I00
sS'attrParentLongName'
p517
VcollisionOffsetVelocityMultiplier[0]
p518
sS'attrChildrenNames'
p519
(lp520
sS'isMulti'
p521
I00
sS'isCompound'
p522
I00
sS'isElement'
p523
I00
ssVobjectColor
p524
(dp525
S'isArray'
p526
I00
sS'isElement'
p527
I00
sS'attrChildrenNames'
p528
(lp529
sS'isCompound'
p530
I00
sS'isMulti'
p531
I00
ssVcontrolPoints
p532
(dp533
S'isArray'
p534
I01
sS'isElement'
p535
I00
sS'isMulti'
p536
I01
ssVboundingBox.boundingBoxMax
p537
(dp538
S'isArray'
p539
I00
sS'attrParentLongName'
p540
VboundingBox
p541
sS'attrChildrenNames'
p542
(lp543
VboundingBox.boundingBoxMax.boundingBoxMaxX
p544
aVboundingBox.boundingBoxMax.boundingBoxMaxY
p545
aVboundingBox.boundingBoxMax.boundingBoxMaxZ
p546
asS'isMulti'
p547
I00
sS'isCompound'
p548
I01
sS'isElement'
p549
I00
ssVcolorSet[0].colorSetPoints
p550
(dp551
S'isArray'
p552
I01
sS'isElement'
p553
I00
sS'attrParentLongName'
p554
VcolorSet[0]
p555
ssVmentalRayControls.miFinalGatherView
p556
(dp557
S'isArray'
p558
I00
sS'attrParentLongName'
p559
VmentalRayControls
p560
sS'attrChildrenNames'
p561
(lp562
sS'isMulti'
p563
I00
sS'isCompound'
p564
I00
sS'isElement'
p565
I00
ssVcollisionOffsetVelocityIncrement
p566
(dp567
S'isArray'
p568
I01
sS'isElement'
p569
I00
sS'isMulti'
p570
I01
ssVcastsShadows
p571
(dp572
S'isArray'
p573
I00
sS'isElement'
p574
I00
sS'attrChildrenNames'
p575
(lp576
sS'isCompound'
p577
I00
sS'isMulti'
p578
I00
ssVcreator
p579
(dp580
S'isArray'
p581
I00
sS'isElement'
p582
I00
sS'isMulti'
p583
I00
sS'attrChildrenNames'
p584
(lp585
sS'isCompound'
p586
I00
ssVdepthJitter
p587
(dp588
S'isArray'
p589
I00
sS'isElement'
p590
I00
sS'isCompound'
p591
I00
sS'attrChildrenNames'
p592
(lp593
sS'isMulti'
p594
I00
ssVuseChordHeightRatio
p595
(dp596
S'isArray'
p597
I00
sS'isElement'
p598
I00
sS'isCompound'
p599
I00
sS'attrChildrenNames'
p600
(lp601
sS'isMulti'
p602
I00
ssVshadingSamples
p603
(dp604
S'isArray'
p605
I00
sS'isElement'
p606
I00
sS'isCompound'
p607
I00
sS'attrChildrenNames'
p608
(lp609
sS'isMulti'
p610
I00
ssVcompInstObjGroups
p611
(dp612
S'isArray'
p613
I01
sS'isElement'
p614
I00
sS'isMulti'
p615
I01
ssVpublishedNodeInfo[0].publishedNode
p616
(dp617
S'isArray'
p618
I00
sS'isElement'
p619
I00
sS'attrParentLongName'
p620
VpublishedNodeInfo[0]
p621
sS'attrChildrenNames'
p622
(lp623
ssVtemplateVersion
p624
(dp625
S'isArray'
p626
I00
sS'isElement'
p627
I00
sS'isMulti'
p628
I00
sS'isCompound'
p629
I00
sS'attrChildrenNames'
p630
(lp631
ssVmentalRayControls.miFinalGatherCast
p632
(dp633
S'isArray'
p634
I00
sS'attrParentLongName'
p635
VmentalRayControls
p636
sS'attrChildrenNames'
p637
(lp638
sS'isMulti'
p639
I00
sS'isCompound'
p640
I00
sS'isElement'
p641
I00
ssVcollisionDepthVelocityMultiplier[0].collisionDepthVelocityMultiplier_Interp
p642
(dp643
S'isArray'
p644
I00
sS'attrParentLongName'
p645
VcollisionDepthVelocityMultiplier[0]
p646
sS'attrChildrenNames'
p647
(lp648
sS'isMulti'
p649
I00
sS'isCompound'
p650
I00
sS'isElement'
p651
I00
ssVcolorSet[0].colorName
p652
(dp653
S'isArray'
p654
I00
sS'isElement'
p655
I00
sS'attrParentLongName'
p656
VcolorSet[0]
p657
sS'attrChildrenNames'
p658
(lp659
ssVmatrix
p660
(dp661
S'isArray'
p662
I00
sS'isElement'
p663
I00
sS'isCompound'
p664
I00
sS'attrChildrenNames'
p665
(lp666
sS'isMulti'
p667
I00
ssVmentalRayControls.miTransparencyCast
p668
(dp669
S'isArray'
p670
I00
sS'attrParentLongName'
p671
VmentalRayControls
p672
sS'attrChildrenNames'
p673
(lp674
sS'isMulti'
p675
I00
sS'isCompound'
p676
I00
sS'isElement'
p677
I00
ssVopposite
p678
(dp679
S'isArray'
p680
I00
sS'isElement'
p681
I00
sS'attrChildrenNames'
p682
(lp683
sS'isCompound'
p684
I00
sS'isMulti'
p685
I00
ssVminMaxRangeV
p686
(dp687
S'isArray'
p688
I00
sS'isElement'
p689
I00
sS'isMulti'
p690
I00
sS'attrChildrenNames'
p691
(lp692
VminMaxRangeV.minValueV
p693
aVminMaxRangeV.maxValueV
p694
asS'isCompound'
p695
I01
ssVminMaxRangeU
p696
(dp697
S'isArray'
p698
I00
sS'isElement'
p699
I00
sS'isMulti'
p700
I00
sS'attrChildrenNames'
p701
(lp702
VminMaxRangeU.minValueU
p703
aVminMaxRangeU.maxValueU
p704
asS'isCompound'
p705
I01
ssVworldMatrix
p706
(dp707
S'isArray'
p708
I01
sS'isElement'
p709
I00
sS'isMulti'
p710
I01
ssVsmoothShading
p711
(dp712
S'isArray'
p713
I00
sS'isElement'
p714
I00
sS'isCompound'
p715
I00
sS'attrChildrenNames'
p716
(lp717
sS'isMulti'
p718
I00
ssVtemplate
p719
(dp720
S'isArray'
p721
I00
sS'attrType'
p722
Vbool
p723
sS'attrChildrenNames'
p724
(lp725
sS'isMulti'
p726
I00
sS'isCompound'
p727
I00
sg20
I01
sS'isReadable'
p728
I01
sS'isElement'
p729
I00
ssVcontainerType
p730
(dp731
S'isArray'
p732
I00
sS'isElement'
p733
I00
sS'isMulti'
p734
I00
sS'attrChildrenNames'
p735
(lp736
sS'isCompound'
p737
I00
ssVvDivisionsFactor
p738
(dp739
S'isArray'
p740
I00
sS'isElement'
p741
I00
sS'isMulti'
p742
I00
sS'isCompound'
p743
I00
sS'attrChildrenNames'
p744
(lp745
ssVmentalRayControls.miFinalGatherMaxRadius
p746
(dp747
S'isArray'
p748
I00
sS'attrParentLongName'
p749
VmentalRayControls
p750
sS'attrChildrenNames'
p751
(lp752
sS'isMulti'
p753
I00
sS'isCompound'
p754
I00
sS'isElement'
p755
I00
ssVmentalRayControls.miOverrideGlobalIllumination
p756
(dp757
S'isArray'
p758
I00
sS'attrParentLongName'
p759
VmentalRayControls
p760
sS'attrChildrenNames'
p761
(lp762
sS'isMulti'
p763
I00
sS'isCompound'
p764
I00
sS'isElement'
p765
I00
ssVisHistoricallyInteresting
p766
(dp767
S'isArray'
p768
I00
sS'isElement'
p769
I00
sS'isMulti'
p770
I00
sS'attrChildrenNames'
p771
(lp772
sS'isCompound'
p773
I00
ssVparentInverseMatrix
p774
(dp775
S'isArray'
p776
I01
sS'isElement'
p777
I00
sS'isMulti'
p778
I01
ssVviewName
p779
(dp780
S'isArray'
p781
I00
sS'isElement'
p782
I00
sS'isMulti'
p783
I00
sS'attrChildrenNames'
p784
(lp785
sS'isCompound'
p786
I00
ssVtweakSizeV
p787
(dp788
S'isArray'
p789
I00
sS'isElement'
p790
I00
sS'isMulti'
p791
I00
sS'isCompound'
p792
I00
sS'attrChildrenNames'
p793
(lp794
ssVdispOrigin
p795
(dp796
S'isArray'
p797
I00
sS'isElement'
p798
I00
sS'isCompound'
p799
I00
sS'attrChildrenNames'
p800
(lp801
sS'isMulti'
p802
I00
ssVmentalRayControls.miFinalGatherMinRadius
p803
(dp804
S'isArray'
p805
I00
sS'attrParentLongName'
p806
VmentalRayControls
p807
sS'attrChildrenNames'
p808
(lp809
sS'isMulti'
p810
I00
sS'isCompound'
p811
I00
sS'isElement'
p812
I00
ssVminMaxRangeV.maxValueV
p813
(dp814
S'isArray'
p815
I00
sS'attrParentLongName'
p816
VminMaxRangeV
p817
sS'attrChildrenNames'
p818
(lp819
sS'isMulti'
p820
I00
sS'isCompound'
p821
I00
sS'isElement'
p822
I00
ssVinPlace
p823
(dp824
S'isArray'
p825
I00
sS'isElement'
p826
I00
sS'isMulti'
p827
I00
sS'isCompound'
p828
I00
sS'attrChildrenNames'
p829
(lp830
ssVmentalRayControls.miProxyBoundingBox
p831
(dp832
S'isArray'
p833
I00
sS'attrParentLongName'
p834
VmentalRayControls
p835
sS'attrChildrenNames'
p836
(lp837
VmentalRayControls.miProxyBoundingBox.miProxyBoundingBoxMin
p838
aVmentalRayControls.miProxyBoundingBox.miProxyBoundingBoxMax
p839
asS'isMulti'
p840
I00
sS'isCompound'
p841
I01
sS'isElement'
p842
I00
ssVcollisionDepthVelocityIncrement[0].collisionDepthVelocityIncrement_FloatValue
p843
(dp844
S'isArray'
p845
I00
sS'isElement'
p846
I00
sS'attrParentLongName'
p847
VcollisionDepthVelocityIncrement[0]
p848
sS'attrChildrenNames'
p849
(lp850
ssVrenderInfo.layerRenderable
p851
(dp852
S'isArray'
p853
I00
sS'attrParentLongName'
p854
VrenderInfo
p855
sS'attrChildrenNames'
p856
(lp857
sS'isMulti'
p858
I00
sS'isCompound'
p859
I00
sS'isElement'
p860
I00
ssVuvSet[0].uvSetPoints[0].uvSetPointsU
p861
(dp862
S'isArray'
p863
I00
sS'isElement'
p864
I00
sS'attrParentLongName'
p865
VuvSet[0].uvSetPoints[0]
p866
sS'attrChildrenNames'
p867
(lp868
ssVdisplayColors
p869
(dp870
S'isArray'
p871
I00
sS'isElement'
p872
I00
sS'isMulti'
p873
I00
sS'isCompound'
p874
I00
sS'attrChildrenNames'
p875
(lp876
ssVuvSet[0].uvSetPoints[0].uvSetPointsV
p877
(dp878
S'isArray'
p879
I00
sS'isElement'
p880
I00
sS'attrParentLongName'
p881
VuvSet[0].uvSetPoints[0]
p882
sS'attrChildrenNames'
p883
(lp884
ssVedgeSwap
p885
(dp886
S'isArray'
p887
I00
sS'isElement'
p888
I00
sS'attrChildrenNames'
p889
(lp890
sS'isCompound'
p891
I00
sS'isMulti'
p892
I00
ssVghostCustomSteps.ghostPreSteps
p893
(dp894
S'isArray'
p895
I00
sS'attrParentLongName'
p896
VghostCustomSteps
p897
sS'attrChildrenNames'
p898
(lp899
sS'isMulti'
p900
I00
sS'isCompound'
p901
I00
sS'isElement'
p902
I00
ssVcollisionOffsetVelocityIncrement[0].collisionOffsetVelocityIncrement_FloatValue
p903
(dp904
S'isArray'
p905
I00
sS'isElement'
p906
I00
sS'attrParentLongName'
p907
VcollisionOffsetVelocityIncrement[0]
p908
sS'attrChildrenNames'
p909
(lp910
ssVdrawOverride.overrideEnabled
p911
(dp912
S'isArray'
p913
I00
sS'attrParentLongName'
p914
VdrawOverride
p915
sS'attrChildrenNames'
p916
(lp917
sS'attrType'
p918
Vbool
p919
sS'isMulti'
p920
I00
sS'isCompound'
p921
I00
sg20
I01
sS'isReadable'
p922
I01
sS'isElement'
p923
I00
ssVuvSet[0].uvSetPoints
p924
(dp925
S'isArray'
p926
I01
sS'isElement'
p927
I00
sS'attrParentLongName'
p928
VuvSet[0]
p929
ssVdrawOverride.overrideTexturing
p930
(dp931
S'isArray'
p932
I00
sS'attrParentLongName'
p933
VdrawOverride
p934
sS'attrChildrenNames'
p935
(lp936
sS'attrType'
p937
Vbool
p938
sS'isMulti'
p939
I00
sS'isCompound'
p940
I00
sg20
I01
sS'isReadable'
p941
I01
sS'isElement'
p942
I00
ssVsmoothEdge
p943
(dp944
S'isArray'
p945
I00
sS'isElement'
p946
I00
sS'isCompound'
p947
I00
sS'attrChildrenNames'
p948
(lp949
sS'isMulti'
p950
I00
ssVmentalRayControls.miProxyFile
p951
(dp952
S'isArray'
p953
I00
sS'attrParentLongName'
p954
VmentalRayControls
p955
sS'attrChildrenNames'
p956
(lp957
sS'isMulti'
p958
I00
sS'isCompound'
p959
I00
sS'isElement'
p960
I00
ssVworldSpace[1]
p961
(dp962
S'isArray'
p963
I00
sS'attrChildrenNames'
p964
(lp965
ssVignoreHwShader
p966
(dp967
S'isArray'
p968
I00
sS'isElement'
p969
I00
sS'attrChildrenNames'
p970
(lp971
sS'isCompound'
p972
I00
sS'isMulti'
p973
I00
ssVdispGeometry
p974
(dp975
S'isArray'
p976
I00
sS'isElement'
p977
I00
sS'attrChildrenNames'
p978
(lp979
sS'isCompound'
p980
I00
sS'isMulti'
p981
I00
ssVcolorSet[0].colorSetPoints[0].colorSetPointsR
p982
(dp983
S'isArray'
p984
I00
sS'isElement'
p985
I00
sS'attrParentLongName'
p986
VcolorSet[0].colorSetPoints[0]
p987
sS'attrChildrenNames'
p988
(lp989
ssVghostRangeStart
p990
(dp991
S'isArray'
p992
I00
sS'isElement'
p993
I00
sS'attrChildrenNames'
p994
(lp995
sS'isCompound'
p996
I00
sS'isMulti'
p997
I00
ssVpublishedNodeInfo[0].publishedNodeType
p998
(dp999
S'isArray'
p1000
I00
sS'isElement'
p1001
I00
sS'attrParentLongName'
p1002
VpublishedNodeInfo[0]
p1003
sS'attrChildrenNames'
p1004
(lp1005
ssVuvPivot.uvPivotY
p1006
(dp1007
S'isArray'
p1008
I00
sS'attrParentLongName'
p1009
VuvPivot
p1010
sS'attrChildrenNames'
p1011
(lp1012
sS'isMulti'
p1013
I00
sS'isCompound'
p1014
I00
sS'isElement'
p1015
I00
ssVcurvePrecision
p1016
(dp1017
S'isArray'
p1018
I00
sS'isElement'
p1019
I00
sS'attrChildrenNames'
p1020
(lp1021
sS'isCompound'
p1022
I00
sS'isMulti'
p1023
I00
ssVinstObjGroups
p1024
(dp1025
S'isArray'
p1026
I01
sS'isElement'
p1027
I00
sS'isMulti'
p1028
I01
ssVcolorSet[0].clamped
p1029
(dp1030
S'isArray'
p1031
I00
sS'isElement'
p1032
I00
sS'attrParentLongName'
p1033
VcolorSet[0]
p1034
sS'attrChildrenNames'
p1035
(lp1036
ssVcollisionDepthVelocityIncrement[0].collisionDepthVelocityIncrement_Interp
p1037
(dp1038
S'isArray'
p1039
I00
sS'isElement'
p1040
I00
sS'attrParentLongName'
p1041
VcollisionDepthVelocityIncrement[0]
p1042
sS'attrChildrenNames'
p1043
(lp1044
ssVtweak
p1045
(dp1046
S'isArray'
p1047
I00
sS'isElement'
p1048
I00
sS'attrChildrenNames'
p1049
(lp1050
sS'isCompound'
p1051
I00
sS'isMulti'
p1052
I00
ssVmaxVisibilitySamples
p1053
(dp1054
S'isArray'
p1055
I00
sS'isElement'
p1056
I00
sS'isCompound'
p1057
I00
sS'attrChildrenNames'
p1058
(lp1059
sS'isMulti'
p1060
I00
ssVmentalRayControls.miOverrideSamples
p1061
(dp1062
S'isArray'
p1063
I00
sS'attrParentLongName'
p1064
VmentalRayControls
p1065
sS'attrChildrenNames'
p1066
(lp1067
sS'isMulti'
p1068
I00
sS'isCompound'
p1069
I00
sS'isElement'
p1070
I00
ssVminMaxRangeV.minValueV
p1071
(dp1072
S'isArray'
p1073
I00
sS'attrParentLongName'
p1074
VminMaxRangeV
p1075
sS'attrChildrenNames'
p1076
(lp1077
sS'isMulti'
p1078
I00
sS'isCompound'
p1079
I00
sS'isElement'
p1080
I00
ssVobjSpaceChordHeight
p1081
(dp1082
S'isArray'
p1083
I00
sS'isElement'
p1084
I00
sS'attrChildrenNames'
p1085
(lp1086
sS'isCompound'
p1087
I00
sS'isMulti'
p1088
I00
ssVdrawOverride.overrideVisibility
p1089
(dp1090
S'isArray'
p1091
I00
sS'attrParentLongName'
p1092
VdrawOverride
p1093
sS'attrChildrenNames'
p1094
(lp1095
sS'attrType'
p1096
Vbool
p1097
sS'isMulti'
p1098
I00
sS'isCompound'
p1099
I00
sg20
I01
sS'isReadable'
p1100
I01
sS'isElement'
p1101
I00
ssVspansUV.spansV
p1102
(dp1103
S'isArray'
p1104
I00
sS'attrParentLongName'
p1105
VspansUV
p1106
sS'attrChildrenNames'
p1107
(lp1108
sS'isMulti'
p1109
I00
sS'isCompound'
p1110
I00
sS'isElement'
p1111
I00
ssVspansUV.spansU
p1112
(dp1113
S'isArray'
p1114
I00
sS'attrParentLongName'
p1115
VspansUV
p1116
sS'attrChildrenNames'
p1117
(lp1118
sS'isMulti'
p1119
I00
sS'isCompound'
p1120
I00
sS'isElement'
p1121
I00
ssVghosting
p1122
(dp1123
S'isArray'
p1124
I00
sS'isElement'
p1125
I00
sS'attrChildrenNames'
p1126
(lp1127
sS'isCompound'
p1128
I00
sS'isMulti'
p1129
I00
ssVboundingBoxScale
p1130
(dp1131
S'isArray'
p1132
I00
sS'isElement'
p1133
I00
sS'attrChildrenNames'
p1134
(lp1135
VboundingBoxScale.boundingBoxScaleX
p1136
aVboundingBoxScale.boundingBoxScaleY
p1137
aVboundingBoxScale.boundingBoxScaleZ
p1138
asS'isCompound'
p1139
I01
sS'isMulti'
p1140
I00
ssVgeometryAntialiasingOverride
p1141
(dp1142
S'isArray'
p1143
I00
sS'isElement'
p1144
I00
sS'attrChildrenNames'
p1145
(lp1146
sS'isCompound'
p1147
I00
sS'isMulti'
p1148
I00
ssVdegreeUV
p1149
(dp1150
S'isArray'
p1151
I00
sS'isElement'
p1152
I00
sS'isMulti'
p1153
I00
sS'attrChildrenNames'
p1154
(lp1155
VdegreeUV.degreeU
p1156
aVdegreeUV.degreeV
p1157
asS'isCompound'
p1158
I01
ssVtweakSizeU
p1159
(dp1160
S'isArray'
p1161
I00
sS'isElement'
p1162
I00
sS'isMulti'
p1163
I00
sS'attrChildrenNames'
p1164
(lp1165
sS'isCompound'
p1166
I00
ssVcollisionDepthVelocityIncrement[0].collisionDepthVelocityIncrement_Position
p1167
(dp1168
S'isArray'
p1169
I00
sS'isElement'
p1170
I00
sS'attrParentLongName'
p1171
VcollisionDepthVelocityIncrement[0]
p1172
sS'attrChildrenNames'
p1173
(lp1174
ssVcaching
p1175
(dp1176
S'isArray'
p1177
I00
sS'isElement'
p1178
I00
sS'isMulti'
p1179
I00
sS'isCompound'
p1180
I00
sS'attrChildrenNames'
p1181
(lp1182
ssVchordHeightRatio
p1183
(dp1184
S'isArray'
p1185
I00
sS'isElement'
p1186
I00
sS'isCompound'
p1187
I00
sS'attrChildrenNames'
p1188
(lp1189
sS'isMulti'
p1190
I00
ssVrelativeTweak
p1191
(dp1192
S'isArray'
p1193
I00
sS'isElement'
p1194
I00
sS'isCompound'
p1195
I00
sS'attrChildrenNames'
p1196
(lp1197
sS'isMulti'
p1198
I00
ssVcreate
p1199
(dp1200
S'isArray'
p1201
I00
sS'attrType'
p1202
VnurbsSurface
p1203
sS'attrChildrenNames'
p1204
(lp1205
sS'isMulti'
p1206
I00
sS'isCompound'
p1207
I00
sg20
I00
sS'isReadable'
p1208
I00
sS'isElement'
p1209
I00
ssVboundingBoxScale.boundingBoxScaleY
p1210
(dp1211
S'isArray'
p1212
I00
sS'attrParentLongName'
p1213
VboundingBoxScale
p1214
sS'attrChildrenNames'
p1215
(lp1216
sS'isMulti'
p1217
I00
sS'isCompound'
p1218
I00
sS'isElement'
p1219
I00
ssVextraSampleRate
p1220
(dp1221
S'isArray'
p1222
I00
sS'isElement'
p1223
I00
sS'isMulti'
p1224
I00
sS'attrChildrenNames'
p1225
(lp1226
sS'isCompound'
p1227
I00
ssVmentalRayControls.miRefractionReceive
p1228
(dp1229
S'isArray'
p1230
I00
sS'attrParentLongName'
p1231
VmentalRayControls
p1232
sS'attrChildrenNames'
p1233
(lp1234
sS'isMulti'
p1235
I00
sS'isCompound'
p1236
I00
sS'isElement'
p1237
I00
ssVminScreen
p1238
(dp1239
S'isArray'
p1240
I00
sS'isElement'
p1241
I00
sS'attrChildrenNames'
p1242
(lp1243
sS'isCompound'
p1244
I00
sS'isMulti'
p1245
I00
ssVcenter.boundingBoxCenterY
p1246
(dp1247
S'isArray'
p1248
I00
sS'attrParentLongName'
p1249
Vcenter
p1250
sS'attrChildrenNames'
p1251
(lp1252
sS'isMulti'
p1253
I00
sS'isCompound'
p1254
I00
sS'isElement'
p1255
I00
ssVexplicitTessellationAttributes
p1256
(dp1257
S'isArray'
p1258
I00
sS'isElement'
p1259
I00
sS'isMulti'
p1260
I00
sS'isCompound'
p1261
I00
sS'attrChildrenNames'
p1262
(lp1263
ssVvisibleInReflections
p1264
(dp1265
S'isArray'
p1266
I00
sS'isElement'
p1267
I00
sS'attrChildrenNames'
p1268
(lp1269
sS'isCompound'
p1270
I00
sS'isMulti'
p1271
I00
ssVcurrentUVSet
p1272
(dp1273
S'isArray'
p1274
I00
sS'isElement'
p1275
I00
sS'isMulti'
p1276
I00
sS'isCompound'
p1277
I00
sS'attrChildrenNames'
p1278
(lp1279
ssVfixTextureWarp
p1280
(dp1281
S'isArray'
p1282
I00
sS'isElement'
p1283
I00
sS'isMulti'
p1284
I00
sS'attrChildrenNames'
p1285
(lp1286
sS'isCompound'
p1287
I00
ssVmentalRayControls.miProxyBoundingBox.miProxyBoundingBoxMin.miProxyBoundingBoxMinX
p1288
(dp1289
S'isArray'
p1290
I00
sS'attrParentLongName'
p1291
VmentalRayControls.miProxyBoundingBox.miProxyBoundingBoxMin
p1292
sS'attrChildrenNames'
p1293
(lp1294
sS'isMulti'
p1295
I00
sS'isCompound'
p1296
I00
sS'isElement'
p1297
I00
ssVdrawOverride
p1298
(dp1299
S'isArray'
p1300
I00
sS'attrType'
p1301
VTdataCompound
p1302
sS'attrChildrenNames'
p1303
(lp1304
VdrawOverride.overrideDisplayType
p1305
aVdrawOverride.overrideLevelOfDetail
p1306
aVdrawOverride.overrideShading
p1307
aVdrawOverride.overrideTexturing
p1308
aVdrawOverride.overridePlayback
p1309
aVdrawOverride.overrideEnabled
p1310
aVdrawOverride.overrideVisibility
p1311
aVdrawOverride.overrideColor
p1312
asS'isMulti'
p1313
I00
sS'isCompound'
p1314
I01
sg20
I00
sS'isReadable'
p1315
I00
sS'isElement'
p1316
I00
ssVcontrolPoints[0].zValue
p1317
(dp1318
S'isArray'
p1319
I00
sS'isElement'
p1320
I00
sS'attrParentLongName'
p1321
VcontrolPoints[0]
p1322
sS'attrChildrenNames'
p1323
(lp1324
ssVsmoothEdgeRatio
p1325
(dp1326
S'isArray'
p1327
I00
sS'isElement'
p1328
I00
sS'attrChildrenNames'
p1329
(lp1330
sS'isCompound'
p1331
I00
sS'isMulti'
p1332
I00
ssVuseChordHeight
p1333
(dp1334
S'isArray'
p1335
I00
sS'isElement'
p1336
I00
sS'isCompound'
p1337
I00
sS'attrChildrenNames'
p1338
(lp1339
sS'isMulti'
p1340
I00
ssVcontrolPoints[0].yValue
p1341
(dp1342
S'isArray'
p1343
I00
sS'isElement'
p1344
I00
sS'attrParentLongName'
p1345
VcontrolPoints[0]
p1346
sS'attrChildrenNames'
p1347
(lp1348
ssVrenderInfo
p1349
(dp1350
S'isArray'
p1351
I00
sS'isElement'
p1352
I00
sS'isCompound'
p1353
I01
sS'attrChildrenNames'
p1354
(lp1355
VrenderInfo.identification
p1356
aVrenderInfo.layerRenderable
p1357
aVrenderInfo.layerOverrideColor
p1358
asS'isMulti'
p1359
I00
ssVcollisionOffsetVelocityMultiplier
p1360
(dp1361
S'isArray'
p1362
I01
sS'isElement'
p1363
I00
sS'isMulti'
p1364
I01
ssVsimplifyMode
p1365
(dp1366
S'isArray'
p1367
I00
sS'isElement'
p1368
I00
sS'attrChildrenNames'
p1369
(lp1370
sS'isCompound'
p1371
I00
sS'isMulti'
p1372
I00
ssVpublishedNodeInfo
p1373
(dp1374
S'isArray'
p1375
I01
sS'isElement'
p1376
I00
sS'isMulti'
p1377
I01
ssVminMaxRangeU.maxValueU
p1378
(dp1379
S'isArray'
p1380
I00
sS'attrParentLongName'
p1381
VminMaxRangeU
p1382
sS'attrChildrenNames'
p1383
(lp1384
sS'isMulti'
p1385
I00
sS'isCompound'
p1386
I00
sS'isElement'
p1387
I00
ssVghostRangeEnd
p1388
(dp1389
S'isArray'
p1390
I00
sS'isElement'
p1391
I00
sS'isCompound'
p1392
I00
sS'attrChildrenNames'
p1393
(lp1394
sS'isMulti'
p1395
I00
ssVghostCustomSteps.ghostPostSteps
p1396
(dp1397
S'isArray'
p1398
I00
sS'attrParentLongName'
p1399
VghostCustomSteps
p1400
sS'attrChildrenNames'
p1401
(lp1402
sS'isMulti'
p1403
I00
sS'isCompound'
p1404
I00
sS'isElement'
p1405
I00
ssVcurrentColorSet
p1406
(dp1407
S'isArray'
p1408
I00
sS'isElement'
p1409
I00
sS'isMulti'
p1410
I00
sS'isCompound'
p1411
I00
sS'attrChildrenNames'
p1412
(lp1413
ssVboundingBox
p1414
(dp1415
S'isArray'
p1416
I00
sS'isElement'
p1417
I00
sS'isMulti'
p1418
I00
sS'isCompound'
p1419
I01
sS'attrChildrenNames'
p1420
(lp1421
VboundingBox.boundingBoxMin
p1422
aVboundingBox.boundingBoxMax
p1423
aVboundingBox.boundingBoxSize
p1424
assVcurvatureTolerance
p1425
(dp1426
S'isArray'
p1427
I00
sS'isElement'
p1428
I00
sS'isMulti'
p1429
I00
sS'attrChildrenNames'
p1430
(lp1431
sS'isCompound'
p1432
I00
ssVcollisionDepthVelocityIncrement
p1433
(dp1434
S'isArray'
p1435
I01
sS'isElement'
p1436
I00
sS'isMulti'
p1437
I01
ssVmentalRayControls.miGlobillumRadius
p1438
(dp1439
S'isArray'
p1440
I00
sS'attrParentLongName'
p1441
VmentalRayControls
p1442
sS'attrChildrenNames'
p1443
(lp1444
sS'isMulti'
p1445
I00
sS'isCompound'
p1446
I00
sS'isElement'
p1447
I00
ssVcurvePrecisionShaded
p1448
(dp1449
S'isArray'
p1450
I00
sS'isElement'
p1451
I00
sS'isCompound'
p1452
I00
sS'attrChildrenNames'
p1453
(lp1454
sS'isMulti'
p1455
I00
ssVcollisionDepthVelocityMultiplier[0].collisionDepthVelocityMultiplier_Position
p1456
(dp1457
S'isArray'
p1458
I00
sS'attrParentLongName'
p1459
VcollisionDepthVelocityMultiplier[0]
p1460
sS'attrChildrenNames'
p1461
(lp1462
sS'isMulti'
p1463
I00
sS'isCompound'
p1464
I00
sS'isElement'
p1465
I00
ssVnormalThreshold
p1466
(dp1467
S'isArray'
p1468
I00
sS'isElement'
p1469
I00
sS'isMulti'
p1470
I00
sS'attrChildrenNames'
p1471
(lp1472
sS'isCompound'
p1473
I00
ssVvisibleFraction
p1474
(dp1475
S'isArray'
p1476
I00
sS'isElement'
p1477
I00
sS'attrChildrenNames'
p1478
(lp1479
sS'isCompound'
p1480
I00
sS'isMulti'
p1481
I00
ssVboundingBox.boundingBoxSize
p1482
(dp1483
S'isArray'
p1484
I00
sS'attrParentLongName'
p1485
VboundingBox
p1486
sS'attrChildrenNames'
p1487
(lp1488
VboundingBox.boundingBoxSize.boundingBoxSizeX
p1489
aVboundingBox.boundingBoxSize.boundingBoxSizeY
p1490
aVboundingBox.boundingBoxSize.boundingBoxSizeZ
p1491
asS'isMulti'
p1492
I00
sS'isCompound'
p1493
I01
sS'isElement'
p1494
I00
ssVrenderInfo.layerOverrideColor
p1495
(dp1496
S'isArray'
p1497
I00
sS'attrParentLongName'
p1498
VrenderInfo
p1499
sS'attrChildrenNames'
p1500
(lp1501
sS'isMulti'
p1502
I00
sS'isCompound'
p1503
I00
sS'isElement'
p1504
I00
ssVtweakLocation
p1505
(dp1506
S'isArray'
p1507
I00
sS'isElement'
p1508
I00
sS'isMulti'
p1509
I00
sS'isCompound'
p1510
I00
sS'attrChildrenNames'
p1511
(lp1512
ssVcollisionOffsetVelocityIncrement[0].collisionOffsetVelocityIncrement_Interp
p1513
(dp1514
S'isArray'
p1515
I00
sS'isElement'
p1516
I00
sS'attrParentLongName'
p1517
VcollisionOffsetVelocityIncrement[0]
p1518
sS'attrChildrenNames'
p1519
(lp1520
ssVmentalRayControls.miProxyBoundingBox.miProxyBoundingBoxMin.miProxyBoundingBoxMinZ
p1521
(dp1522
S'isArray'
p1523
I00
sS'attrParentLongName'
p1524
VmentalRayControls.miProxyBoundingBox.miProxyBoundingBoxMin
p1525
sS'attrChildrenNames'
p1526
(lp1527
sS'isMulti'
p1528
I00
sS'isCompound'
p1529
I00
sS'isElement'
p1530
I00
ssVworldSpace
p1531
(dp1532
S'isArray'
p1533
I01
sS'attrType'
p1534
VnurbsSurface
p1535
sS'isMulti'
p1536
I01
sg20
I00
sS'isReadable'
p1537
I00
sS'isElement'
p1538
I00
ssVmentalRayControls.miProxyBoundingBox.miProxyBoundingBoxMin.miProxyBoundingBoxMinY
p1539
(dp1540
S'isArray'
p1541
I00
sS'attrParentLongName'
p1542
VmentalRayControls.miProxyBoundingBox.miProxyBoundingBoxMin
p1543
sS'attrChildrenNames'
p1544
(lp1545
sS'isMulti'
p1546
I00
sS'isCompound'
p1547
I00
sS'isElement'
p1548
I00
ssVsimplifyV
p1549
(dp1550
S'isArray'
p1551
I00
sS'isElement'
p1552
I00
sS'attrChildrenNames'
p1553
(lp1554
sS'isCompound'
p1555
I00
sS'isMulti'
p1556
I00
ssVcompInstObjGroups[0].compObjectGroups
p1557
(dp1558
S'isArray'
p1559
I01
sS'isElement'
p1560
I00
sS'attrParentLongName'
p1561
VcompInstObjGroups[0]
p1562
ssVboundingBox.boundingBoxMin
p1563
(dp1564
S'isArray'
p1565
I00
sS'attrParentLongName'
p1566
VboundingBox
p1567
sS'attrChildrenNames'
p1568
(lp1569
VboundingBox.boundingBoxMin.boundingBoxMinX
p1570
aVboundingBox.boundingBoxMin.boundingBoxMinY
p1571
aVboundingBox.boundingBoxMin.boundingBoxMinZ
p1572
asS'isMulti'
p1573
I00
sS'isCompound'
p1574
I01
sS'isElement'
p1575
I00
ssVmentalRayControls.miFinalGatherReceive
p1576
(dp1577
S'isArray'
p1578
I00
sS'attrParentLongName'
p1579
VmentalRayControls
p1580
sS'attrChildrenNames'
p1581
(lp1582
sS'isMulti'
p1583
I00
sS'isCompound'
p1584
I00
sS'isElement'
p1585
I00
ssVboundingBoxScale.boundingBoxScaleZ
p1586
(dp1587
S'isArray'
p1588
I00
sS'attrParentLongName'
p1589
VboundingBoxScale
p1590
sS'attrChildrenNames'
p1591
(lp1592
sS'isMulti'
p1593
I00
sS'isCompound'
p1594
I00
sS'isElement'
p1595
I00
ssVboundingBoxScale.boundingBoxScaleX
p1596
(dp1597
S'isArray'
p1598
I00
sS'attrParentLongName'
p1599
VboundingBoxScale
p1600
sS'attrChildrenNames'
p1601
(lp1602
sS'isMulti'
p1603
I00
sS'isCompound'
p1604
I00
sS'isElement'
p1605
I00
ssVuseMinScreen
p1606
(dp1607
S'isArray'
p1608
I00
sS'isElement'
p1609
I00
sS'isCompound'
p1610
I00
sS'attrChildrenNames'
p1611
(lp1612
sS'isMulti'
p1613
I00
ssVmaxShadingSamples
p1614
(dp1615
S'isArray'
p1616
I00
sS'isElement'
p1617
I00
sS'attrChildrenNames'
p1618
(lp1619
sS'isCompound'
p1620
I00
sS'isMulti'
p1621
I00
ssVuvSet
p1622
(dp1623
S'isArray'
p1624
I01
sS'isElement'
p1625
I00
sS'isMulti'
p1626
I01
ssVinstObjGroups[0].objectGroups
p1627
(dp1628
S'isArray'
p1629
I01
sS'isElement'
p1630
I00
sS'attrParentLongName'
p1631
VinstObjGroups[0]
p1632
sS'isMulti'
p1633
I01
ssVmentalRayControls.miTransparencyReceive
p1634
(dp1635
S'isArray'
p1636
I00
sS'attrParentLongName'
p1637
VmentalRayControls
p1638
sS'attrChildrenNames'
p1639
(lp1640
sS'isMulti'
p1641
I00
sS'isCompound'
p1642
I00
sS'isElement'
p1643
I00
ssVmentalRayControls
p1644
(dp1645
S'isArray'
p1646
I00
sS'isElement'
p1647
I00
sS'isMulti'
p1648
I00
sS'attrChildrenNames'
p1649
(lp1650
VmentalRayControls.miOverrideCaustics
p1651
aVmentalRayControls.miCausticAccuracy
p1652
aVmentalRayControls.miCausticRadius
p1653
aVmentalRayControls.miOverrideGlobalIllumination
p1654
aVmentalRayControls.miGlobillumAccuracy
p1655
aVmentalRayControls.miGlobillumRadius
p1656
aVmentalRayControls.miOverrideFinalGather
p1657
aVmentalRayControls.miFinalGatherRays
p1658
aVmentalRayControls.miFinalGatherMinRadius
p1659
aVmentalRayControls.miFinalGatherMaxRadius
p1660
aVmentalRayControls.miFinalGatherFilter
p1661
aVmentalRayControls.miFinalGatherView
p1662
aVmentalRayControls.miOverrideSamples
p1663
aVmentalRayControls.miMinSamples
p1664
aVmentalRayControls.miMaxSamples
p1665
aVmentalRayControls.miFinalGatherCast
p1666
aVmentalRayControls.miFinalGatherReceive
p1667
aVmentalRayControls.miTransparencyCast
p1668
aVmentalRayControls.miTransparencyReceive
p1669
aVmentalRayControls.miReflectionReceive
p1670
aVmentalRayControls.miRefractionReceive
p1671
aVmentalRayControls.miProxyFile
p1672
aVmentalRayControls.miUpdateProxyBoundingBoxMode
p1673
aVmentalRayControls.miProxyBoundingBox
p1674
asS'isCompound'
p1675
I01
ssVrenderType
p1676
(dp1677
S'isArray'
p1678
I00
sS'isElement'
p1679
I00
sS'attrChildrenNames'
p1680
(lp1681
sS'isCompound'
p1682
I00
sS'isMulti'
p1683
I00
ssVmentalRayControls.miCausticAccuracy
p1684
(dp1685
S'isArray'
p1686
I00
sS'attrParentLongName'
p1687
VmentalRayControls
p1688
sS'attrChildrenNames'
p1689
(lp1690
sS'isMulti'
p1691
I00
sS'isCompound'
p1692
I00
sS'isElement'
p1693
I00
ssVboundingBox.boundingBoxMax.boundingBoxMaxY
p1694
(dp1695
S'isArray'
p1696
I00
sS'attrParentLongName'
p1697
VboundingBox.boundingBoxMax
p1698
sS'attrChildrenNames'
p1699
(lp1700
sS'isMulti'
p1701
I00
sS'isCompound'
p1702
I00
sS'isElement'
p1703
I00
ssVboundingBox.boundingBoxMax.boundingBoxMaxX
p1704
(dp1705
S'isArray'
p1706
I00
sS'attrParentLongName'
p1707
VboundingBox.boundingBoxMax
p1708
sS'attrChildrenNames'
p1709
(lp1710
sS'isMulti'
p1711
I00
sS'isCompound'
p1712
I00
sS'isElement'
p1713
I00
ssVpublishedNodeInfo[0].isHierarchicalNode
p1714
(dp1715
S'isArray'
p1716
I00
sS'isElement'
p1717
I00
sS'attrParentLongName'
p1718
VpublishedNodeInfo[0]
p1719
sS'attrChildrenNames'
p1720
(lp1721
ssVsimplifyU
p1722
(dp1723
S'isArray'
p1724
I00
sS'isElement'
p1725
I00
sS'isCompound'
p1726
I00
sS'attrChildrenNames'
p1727
(lp1728
sS'isMulti'
p1729
I00
ssVdisplayRenderTessellation
p1730
(dp1731
S'isArray'
p1732
I00
sS'isElement'
p1733
I00
sS'isMulti'
p1734
I00
sS'attrChildrenNames'
p1735
(lp1736
sS'isCompound'
p1737
I00
ssVworldInverseMatrix
p1738
(dp1739
S'isArray'
p1740
I01
sS'isElement'
p1741
I00
sS'isMulti'
p1742
I01
ssVmaxVisibilitySamplesOverride
p1743
(dp1744
S'isArray'
p1745
I00
sS'isElement'
p1746
I00
sS'attrChildrenNames'
p1747
(lp1748
sS'isCompound'
p1749
I00
sS'isMulti'
p1750
I00
ssVmentalRayControls.miCausticRadius
p1751
(dp1752
S'isArray'
p1753
I00
sS'attrParentLongName'
p1754
VmentalRayControls
p1755
sS'attrChildrenNames'
p1756
(lp1757
sS'isMulti'
p1758
I00
sS'isCompound'
p1759
I00
sS'isElement'
p1760
I00
ssVdispSF
p1761
(dp1762
S'isArray'
p1763
I00
sS'isElement'
p1764
I00
sS'isMulti'
p1765
I00
sS'attrChildrenNames'
p1766
(lp1767
sS'isCompound'
p1768
I00
ssVboundingBox.boundingBoxSize.boundingBoxSizeY
p1769
(dp1770
S'isArray'
p1771
I00
sS'attrParentLongName'
p1772
VboundingBox.boundingBoxSize
p1773
sS'attrChildrenNames'
p1774
(lp1775
sS'isMulti'
p1776
I00
sS'isCompound'
p1777
I00
sS'isElement'
p1778
I00
ssVrenderInfo.identification
p1779
(dp1780
S'isArray'
p1781
I00
sS'attrParentLongName'
p1782
VrenderInfo
p1783
sS'attrChildrenNames'
p1784
(lp1785
sS'isMulti'
p1786
I00
sS'isCompound'
p1787
I00
sS'isElement'
p1788
I00
ssVmentalRayControls.miProxyBoundingBox.miProxyBoundingBoxMax.miProxyBoundingBoxMaxY
p1789
(dp1790
S'isArray'
p1791
I00
sS'attrParentLongName'
p1792
VmentalRayControls.miProxyBoundingBox.miProxyBoundingBoxMax
p1793
sS'attrChildrenNames'
p1794
(lp1795
sS'isMulti'
p1796
I00
sS'isCompound'
p1797
I00
sS'isElement'
p1798
I00
ssVmentalRayControls.miProxyBoundingBox.miProxyBoundingBoxMax.miProxyBoundingBoxMaxX
p1799
(dp1800
S'isArray'
p1801
I00
sS'attrParentLongName'
p1802
VmentalRayControls.miProxyBoundingBox.miProxyBoundingBoxMax
p1803
sS'attrChildrenNames'
p1804
(lp1805
sS'isMulti'
p1806
I00
sS'isCompound'
p1807
I00
sS'isElement'
p1808
I00
ssVblackBox
p1809
(dp1810
S'isArray'
p1811
I00
sS'isElement'
p1812
I00
sS'isMulti'
p1813
I00
sS'isCompound'
p1814
I00
sS'attrChildrenNames'
p1815
(lp1816
ssVdegreeUV.degreeV
p1817
(dp1818
S'isArray'
p1819
I00
sS'attrParentLongName'
p1820
VdegreeUV
p1821
sS'attrChildrenNames'
p1822
(lp1823
sS'isMulti'
p1824
I00
sS'isCompound'
p1825
I00
sS'isElement'
p1826
I00
ssVdegreeUV.degreeU
p1827
(dp1828
S'isArray'
p1829
I00
sS'attrParentLongName'
p1830
VdegreeUV
p1831
sS'attrChildrenNames'
p1832
(lp1833
sS'isMulti'
p1834
I00
sS'isCompound'
p1835
I00
sS'isElement'
p1836
I00
ssVtemplateName
p1837
(dp1838
S'isArray'
p1839
I00
sS'isElement'
p1840
I00
sS'isMulti'
p1841
I00
sS'attrChildrenNames'
p1842
(lp1843
sS'isCompound'
p1844
I00
ssVghostingControl
p1845
(dp1846
S'isArray'
p1847
I00
sS'isElement'
p1848
I00
sS'isMulti'
p1849
I00
sS'isCompound'
p1850
I00
sS'attrChildrenNames'
p1851
(lp1852
ssVviewMode
p1853
(dp1854
S'isArray'
p1855
I00
sS'isElement'
p1856
I00
sS'isMulti'
p1857
I00
sS'attrChildrenNames'
p1858
(lp1859
sS'isCompound'
p1860
I00
ssVmentalRayControls.miMinSamples
p1861
(dp1862
S'isArray'
p1863
I00
sS'attrParentLongName'
p1864
VmentalRayControls
p1865
sS'attrChildrenNames'
p1866
(lp1867
sS'isMulti'
p1868
I00
sS'isCompound'
p1869
I00
sS'isElement'
p1870
I00
ssVuvSet[0].uvSetName
p1871
(dp1872
S'isArray'
p1873
I00
sS'isElement'
p1874
I00
sS'attrParentLongName'
p1875
VuvSet[0]
p1876
sS'attrChildrenNames'
p1877
(lp1878
ssVnumberV
p1879
(dp1880
S'isArray'
p1881
I00
sS'isElement'
p1882
I00
sS'attrChildrenNames'
p1883
(lp1884
sS'isCompound'
p1885
I00
sS'isMulti'
p1886
I00
ssVdispHull
p1887
(dp1888
S'isArray'
p1889
I00
sS'isElement'
p1890
I00
sS'isCompound'
p1891
I00
sS'attrChildrenNames'
p1892
(lp1893
sS'isMulti'
p1894
I00
ssVnumberU
p1895
(dp1896
S'isArray'
p1897
I00
sS'isElement'
p1898
I00
sS'attrChildrenNames'
p1899
(lp1900
sS'isCompound'
p1901
I00
sS'isMulti'
p1902
I00
ssVpatchUVIds
p1903
(dp1904
S'isArray'
p1905
I01
sS'isElement'
p1906
I00
sS'isMulti'
p1907
I01
ssVrenderVolume
p1908
(dp1909
S'isArray'
p1910
I00
sS'isElement'
p1911
I00
sS'isCompound'
p1912
I00
sS'attrChildrenNames'
p1913
(lp1914
sS'isMulti'
p1915
I00
ssVdrawOverride.overrideDisplayType
p1916
(dp1917
S'isArray'
p1918
I00
sS'attrParentLongName'
p1919
VdrawOverride
p1920
sS'attrChildrenNames'
p1921
(lp1922
sS'attrType'
p1923
Venum
p1924
sS'isMulti'
p1925
I00
sS'isCompound'
p1926
I00
sg20
I01
sS'isReadable'
p1927
I01
sS'isElement'
p1928
I00
ssVmodeV
p1929
(dp1930
S'isArray'
p1931
I00
sS'isElement'
p1932
I00
sS'isCompound'
p1933
I00
sS'attrChildrenNames'
p1934
(lp1935
sS'isMulti'
p1936
I00
ssVisCollapsed
p1937
(dp1938
S'isArray'
p1939
I00
sS'isElement'
p1940
I00
sS'isMulti'
p1941
I00
sS'attrChildrenNames'
p1942
(lp1943
sS'isCompound'
p1944
I00
ssVnodeState
p1945
(dp1946
S'isArray'
p1947
I00
sS'isElement'
p1948
I00
sS'isMulti'
p1949
I00
sS'isCompound'
p1950
I00
sS'attrChildrenNames'
p1951
(lp1952
ssVmodeU
p1953
(dp1954
S'isArray'
p1955
I00
sS'isElement'
p1956
I00
sS'isCompound'
p1957
I00
sS'attrChildrenNames'
p1958
(lp1959
sS'isMulti'
p1960
I00
ssVboundingBox.boundingBoxSize.boundingBoxSizeX
p1961
(dp1962
S'isArray'
p1963
I00
sS'attrParentLongName'
p1964
VboundingBox.boundingBoxSize
p1965
sS'attrChildrenNames'
p1966
(lp1967
sS'isMulti'
p1968
I00
sS'isCompound'
p1969
I00
sS'isElement'
p1970
I00
ssVrenderLayerInfo[0].renderLayerColor
p1971
(dp1972
S'isArray'
p1973
I00
sS'isElement'
p1974
I00
sS'attrParentLongName'
p1975
VrenderLayerInfo[0]
p1976
sS'attrChildrenNames'
p1977
(lp1978
ssVcenter
p1979
(dp1980
S'isArray'
p1981
I00
sS'isElement'
p1982
I00
sS'isMulti'
p1983
I00
sS'attrChildrenNames'
p1984
(lp1985
Vcenter.boundingBoxCenterX
p1986
aVcenter.boundingBoxCenterY
p1987
aVcenter.boundingBoxCenterZ
p1988
asS'isCompound'
p1989
I01
ssVformV
p1990
(dp1991
S'isArray'
p1992
I00
sS'isElement'
p1993
I00
sS'attrChildrenNames'
p1994
(lp1995
sS'isCompound'
p1996
I00
sS'isMulti'
p1997
I00
ssVdisplayImmediate
p1998
(dp1999
S'isArray'
p2000
I00
sS'isElement'
p2001
I00
sS'isMulti'
p2002
I00
sS'attrChildrenNames'
p2003
(lp2004
sS'isCompound'
p2005
I00
ssVghostCustomSteps.ghostStepSize
p2006
(dp2007
S'isArray'
p2008
I00
sS'attrParentLongName'
p2009
VghostCustomSteps
p2010
sS'attrChildrenNames'
p2011
(lp2012
sS'isMulti'
p2013
I00
sS'isCompound'
p2014
I00
sS'isElement'
p2015
I00
ssVdrawOverride.overridePlayback
p2016
(dp2017
S'isArray'
p2018
I00
sS'attrParentLongName'
p2019
VdrawOverride
p2020
sS'attrChildrenNames'
p2021
(lp2022
sS'attrType'
p2023
Vbool
p2024
sS'isMulti'
p2025
I00
sS'isCompound'
p2026
I00
sg20
I01
sS'isReadable'
p2027
I01
sS'isElement'
p2028
I00
ssVboundingBox.boundingBoxSize.boundingBoxSizeZ
p2029
(dp2030
S'isArray'
p2031
I00
sS'attrParentLongName'
p2032
VboundingBox.boundingBoxSize
p2033
sS'attrChildrenNames'
p2034
(lp2035
sS'isMulti'
p2036
I00
sS'isCompound'
p2037
I00
sS'isElement'
p2038
I00
ssVboundingBox.boundingBoxMax.boundingBoxMaxZ
p2039
(dp2040
S'isArray'
p2041
I00
sS'attrParentLongName'
p2042
VboundingBox.boundingBoxMax
p2043
sS'attrChildrenNames'
p2044
(lp2045
sS'isMulti'
p2046
I00
sS'isCompound'
p2047
I00
sS'isElement'
p2048
I00
ssVvisibility
p2049
(dp2050
S'isArray'
p2051
I00
sS'attrType'
p2052
Vbool
p2053
sS'attrChildrenNames'
p2054
(lp2055
sS'isMulti'
p2056
I00
sS'isCompound'
p2057
I00
sg20
I01
sS'isReadable'
p2058
I01
sS'isElement'
p2059
I00
ssVmentalRayControls.miFinalGatherFilter
p2060
(dp2061
S'isArray'
p2062
I00
sS'attrParentLongName'
p2063
VmentalRayControls
p2064
sS'attrChildrenNames'
p2065
(lp2066
sS'isMulti'
p2067
I00
sS'isCompound'
p2068
I00
sS'isElement'
p2069
I00
ssVrenderLayerInfo
p2070
(dp2071
S'isArray'
p2072
I01
sS'isElement'
p2073
I00
sS'isMulti'
p2074
I01
ssVlodVisibility
p2075
(dp2076
S'isArray'
p2077
I00
sS'isElement'
p2078
I00
sS'attrChildrenNames'
p2079
(lp2080
sS'isCompound'
p2081
I00
sS'isMulti'
p2082
I00
ssVinstObjGroups[0].objectGroups[0].objectGrpCompList
p2083
(dp2084
S'isArray'
p2085
I00
sS'attrParentLongName'
p2086
VinstObjGroups[0].objectGroups[0]
p2087
sS'attrChildrenNames'
p2088
(lp2089
sS'isMulti'
p2090
I00
sS'isCompound'
p2091
I00
sS'isElement'
p2092
I00
ssVuvPivot.uvPivotX
p2093
(dp2094
S'isArray'
p2095
I00
sS'attrParentLongName'
p2096
VuvPivot
p2097
sS'attrChildrenNames'
p2098
(lp2099
sS'isMulti'
p2100
I00
sS'isCompound'
p2101
I00
sS'isElement'
p2102
I00
ssVmentalRayControls.miOverrideCaustics
p2103
(dp2104
S'isArray'
p2105
I00
sS'attrParentLongName'
p2106
VmentalRayControls
p2107
sS'attrChildrenNames'
p2108
(lp2109
sS'isMulti'
p2110
I00
sS'isCompound'
p2111
I00
sS'isElement'
p2112
I00
ssVmentalRayControls.miMaxSamples
p2113
(dp2114
S'isArray'
p2115
I00
sS'attrParentLongName'
p2116
VmentalRayControls
p2117
sS'attrChildrenNames'
p2118
(lp2119
sS'isMulti'
p2120
I00
sS'isCompound'
p2121
I00
sS'isElement'
p2122
I00
ssVmentalRayControls.miProxyBoundingBox.miProxyBoundingBoxMax.miProxyBoundingBoxMaxZ
p2123
(dp2124
S'isArray'
p2125
I00
sS'attrParentLongName'
p2126
VmentalRayControls.miProxyBoundingBox.miProxyBoundingBoxMax
p2127
sS'attrChildrenNames'
p2128
(lp2129
sS'isMulti'
p2130
I00
sS'isCompound'
p2131
I00
sS'isElement'
p2132
I00
ssVdisplayColorChannel
p2133
(dp2134
S'isArray'
p2135
I00
sS'isElement'
p2136
I00
sS'isMulti'
p2137
I00
sS'attrChildrenNames'
p2138
(lp2139
sS'isCompound'
p2140
I00
ssVuiTreatment
p2141
(dp2142
S'isArray'
p2143
I00
sS'isElement'
p2144
I00
sS'isMulti'
p2145
I00
sS'attrChildrenNames'
p2146
(lp2147
sS'isCompound'
p2148
I00
ssVdrawOverride.overrideShading
p2149
(dp2150
S'isArray'
p2151
I00
sS'attrParentLongName'
p2152
VdrawOverride
p2153
sS'attrChildrenNames'
p2154
(lp2155
sS'attrType'
p2156
Vbool
p2157
sS'isMulti'
p2158
I00
sS'isCompound'
p2159
I00
sg20
I01
sS'isReadable'
p2160
I01
sS'isElement'
p2161
I00
ssVuvPivot
p2162
(dp2163
S'isArray'
p2164
I00
sS'isElement'
p2165
I00
sS'isMulti'
p2166
I00
sS'attrChildrenNames'
p2167
(lp2168
VuvPivot.uvPivotX
p2169
aVuvPivot.uvPivotY
p2170
asS'isCompound'
p2171
I01
ssVuvSet[0].uvSetTweakLocation
p2172
(dp2173
S'isArray'
p2174
I00
sS'isElement'
p2175
I00
sS'attrParentLongName'
p2176
VuvSet[0]
p2177
sS'attrChildrenNames'
p2178
(lp2179
ssViconName
p2180
(dp2181
S'isArray'
p2182
I00
sS'isElement'
p2183
I00
sS'isMulti'
p2184
I00
sS'isCompound'
p2185
I00
sS'attrChildrenNames'
p2186
(lp2187
ssVbasicTessellationType
p2188
(dp2189
S'isArray'
p2190
I00
sS'isElement'
p2191
I00
sS'isMulti'
p2192
I00
sS'isCompound'
p2193
I00
sS'attrChildrenNames'
p2194
(lp2195
ssVtextureThreshold
p2196
(dp2197
S'isArray'
p2198
I00
sS'isElement'
p2199
I00
sS'isMulti'
p2200
I00
sS'isCompound'
p2201
I00
sS'attrChildrenNames'
p2202
(lp2203
ssVcollisionOffsetVelocityIncrement[0].collisionOffsetVelocityIncrement_Position
p2204
(dp2205
S'isArray'
p2206
I00
sS'isElement'
p2207
I00
sS'attrParentLongName'
p2208
VcollisionOffsetVelocityIncrement[0]
p2209
sS'attrChildrenNames'
p2210
(lp2211
ssVweights
p2212
(dp2213
S'isArray'
p2214
I01
sS'isElement'
p2215
I00
sS'isMulti'
p2216
I01
ssVinstObjGroups[0].objectGroups[0].objectGrpColor
p2217
(dp2218
S'isArray'
p2219
I00
sS'attrParentLongName'
p2220
VinstObjGroups[0].objectGroups[0]
p2221
sS'attrChildrenNames'
p2222
(lp2223
sS'isMulti'
p2224
I00
sS'isCompound'
p2225
I00
sS'isElement'
p2226
I00
ssVworldSpace[0]
p2227
(dp2228
g963
I00
sg964
(lp2229
ssVgridDivisionPerSpanV
p2230
(dp2231
S'isArray'
p2232
I00
sS'isElement'
p2233
I00
sS'isMulti'
p2234
I00
sS'attrChildrenNames'
p2235
(lp2236
sS'isCompound'
p2237
I00
ssVmentalRayControls.miOverrideFinalGather
p2238
(dp2239
S'isArray'
p2240
I00
sS'attrParentLongName'
p2241
VmentalRayControls
p2242
sS'attrChildrenNames'
p2243
(lp2244
sS'isMulti'
p2245
I00
sS'isCompound'
p2246
I00
sS'isElement'
p2247
I00
ssVinverseMatrix
p2248
(dp2249
S'isArray'
p2250
I00
sS'isElement'
p2251
I00
sS'attrChildrenNames'
p2252
(lp2253
sS'isCompound'
p2254
I00
sS'isMulti'
p2255
I00
ssVgridDivisionPerSpanU
p2256
(dp2257
S'isArray'
p2258
I00
sS'isElement'
p2259
I00
sS'isMulti'
p2260
I00
sS'isCompound'
p2261
I00
sS'attrChildrenNames'
p2262
(lp2263
ssVcenter.boundingBoxCenterZ
p2264
(dp2265
S'isArray'
p2266
I00
sS'attrParentLongName'
p2267
Vcenter
p2268
sS'attrChildrenNames'
p2269
(lp2270
sS'isMulti'
p2271
I00
sS'isCompound'
p2272
I00
sS'isElement'
p2273
I00
ssVdispCV
p2274
(dp2275
S'isArray'
p2276
I00
sS'isElement'
p2277
I00
sS'isCompound'
p2278
I00
sS'attrChildrenNames'
p2279
(lp2280
sS'isMulti'
p2281
I00
ssVcenter.boundingBoxCenterX
p2282
(dp2283
S'isArray'
p2284
I00
sS'attrParentLongName'
p2285
Vcenter
p2286
sS'attrChildrenNames'
p2287
(lp2288
sS'isMulti'
p2289
I00
sS'isCompound'
p2290
I00
sS'isElement'
p2291
I00
ssVvisibleInRefractions
p2292
(dp2293
S'isArray'
p2294
I00
sS'isElement'
p2295
I00
sS'isCompound'
p2296
I00
sS'attrChildrenNames'
p2297
(lp2298
sS'isMulti'
p2299
I00
ss.