(dp0
VrotateOrder
p1
(dp2
S'isArray'
p3
I00
sS'attrType'
p4
Venum
p5
sS'isMulti'
p6
I00
sS'isCompound'
p7
I00
sS'isSimple'
p8
I01
sS'attrChildrenLongNames'
p9
(lp10
ssVtarget[1].targetParentMatrix
p11
(dp12
S'isArray'
p13
I00
sS'isMulti'
p14
I00
sS'attrChildrenLongNames'
p15
(lp16
sS'isSimple'
p17
I00
sS'attrType'
p18
Vmatrix
p19
ssVghostCustomSteps
p20
(dp21
g3
I00
sg4
VTdataCompound
p22
sg6
I00
sg8
I00
sg9
(lp23
VghostCustomSteps.ghostPreSteps
p24
aVghostCustomSteps.ghostPostSteps
p25
aVghostCustomSteps.ghostStepSize
p26
assVminTransLimitEnable.minTransYLimitEnable
p27
(dp28
g3
I00
sg4
Vbool
p29
sg6
I00
sg7
I00
sg8
I01
sg9
(lp30
ssVrenderLayerInfo.renderLayerRenderable
p31
(dp32
S'attrParentLongName'
p33
VrenderLayerInfo
p34
ssVboundingBox.boundingBoxMin.boundingBoxMinY
p35
(dp36
g3
I00
sg4
VdoubleLinear
p37
sS'attrParentLongName'
p38
VboundingBox.boundingBoxMin
p39
sg8
I01
sg9
(lp40
ssVboundingBox.boundingBoxMin.boundingBoxMinX
p41
(dp42
g3
I00
sg4
VdoubleLinear
p43
sg38
VboundingBox.boundingBoxMin
p44
sg8
I01
sg9
(lp45
ssVboundingBox.boundingBoxMin.boundingBoxMinZ
p46
(dp47
g3
I00
sg4
VdoubleLinear
p48
sg38
VboundingBox.boundingBoxMin
p49
sg8
I01
sg9
(lp50
ssVminRotLimitEnable.minRotYLimitEnable
p51
(dp52
g3
I00
sg4
Vbool
p53
sg6
I00
sg7
I00
sg8
I01
sg9
(lp54
ssVselectHandle
p55
(dp56
g3
I00
sg4
Vdouble3
p57
sg6
I00
sg7
I01
sg8
I01
sg9
(lp58
VselectHandle.selectHandleX
p59
aVselectHandle.selectHandleY
p60
aVselectHandle.selectHandleZ
p61
assVtarget[0].targetRotateCached.targetRotateCachedY
p62
(dp63
S'isArray'
p64
I00
sS'attrType'
p65
VdoubleAngle
p66
sS'attrChildrenNames'
p67
(lp68
sS'isMulti'
p69
I00
sS'isCompound'
p70
I00
sS'isSimple'
p71
I01
sg15
(lp72
ssVtarget[0].targetRotateCached.targetRotateCachedX
p73
(dp74
g64
I00
sg65
VdoubleAngle
p75
sg67
(lp76
sg69
I00
sg70
I00
sg71
I01
sg15
(lp77
ssVtarget[0].targetRotateCached.targetRotateCachedZ
p78
(dp79
g64
I00
sg65
VdoubleAngle
p80
sg67
(lp81
sg69
I00
sg70
I00
sg71
I01
sg15
(lp82
ssVrotateQuaternion.rotateQuaternionZ
p83
(dp84
g3
I00
sg4
Vdouble
p85
sg6
I00
sg7
I00
sg8
I01
sg9
(lp86
ssVrenderLayerInfo[0].renderLayerId
p87
(dp88
g3
I00
sg8
I00
sg9
(lp89
ssVrotateQuaternion.rotateQuaternionX
p90
(dp91
g3
I00
sg4
Vdouble
p92
sg6
I00
sg7
I00
sg8
I01
sg9
(lp93
ssVrotateQuaternion.rotateQuaternionY
p94
(dp95
g3
I00
sg4
Vdouble
p96
sg6
I00
sg7
I00
sg8
I01
sg9
(lp97
ssVmaxRotLimitEnable.maxRotXLimitEnable
p98
(dp99
g3
I00
sg4
Vbool
p100
sg6
I00
sg7
I00
sg8
I01
sg9
(lp101
ssVminScaleLimit.minScaleXLimit
p102
(dp103
g3
I00
sg4
Vdouble
p104
sg6
I00
sg7
I00
sg8
I01
sg9
(lp105
ssVrotateQuaternion.rotateQuaternionW
p106
(dp107
g3
I00
sg4
Vdouble
p108
sg6
I00
sg7
I00
sg8
I01
sg9
(lp109
ssVtemplatePath
p110
(dp111
g3
I00
sg4
Vstring
p112
sg6
I00
sg7
I00
sg8
I01
sg9
(lp113
ssVminTransLimit
p114
(dp115
g3
I00
sg4
Vdouble3
p116
sg6
I00
sg7
I01
sg8
I01
sg9
(lp117
VminTransLimit.minTransXLimit
p118
aVminTransLimit.minTransYLimit
p119
aVminTransLimit.minTransZLimit
p120
assVminRotLimit
p121
(dp122
g3
I00
sg4
Vdouble3
p123
sg6
I00
sg7
I01
sg8
I01
sg9
(lp124
VminRotLimit.minRotXLimit
p125
aVminRotLimit.minRotYLimit
p126
aVminRotLimit.minRotZLimit
p127
assVconstraintRotate
p128
(dp129
g64
I00
sg65
Vdouble3
p130
sg67
(lp131
VconstraintRotate.constraintRotateX
p132
aVconstraintRotate.constraintRotateY
p133
aVconstraintRotate.constraintRotateZ
p134
asg69
I00
sg70
I01
sg71
I01
sg15
(lp135
VconstraintRotate.constraintRotateX
p136
aVconstraintRotate.constraintRotateY
p137
aVconstraintRotate.constraintRotateZ
p138
assVmaxTransLimitEnable.maxTransYLimitEnable
p139
(dp140
g3
I00
sg4
Vbool
p141
sg6
I00
sg7
I00
sg8
I01
sg9
(lp142
ssVlockOutput
p143
(dp144
g3
I00
sg4
Vbool
p145
sg6
I00
sg7
I00
sg8
I01
sg9
(lp146
ssVconstraintParentInverseMatrix
p147
(dp148
g64
I00
sg65
Vmatrix
p149
sg67
(lp150
sg69
I00
sg71
I00
sg15
(lp151
ssVmaxScaleLimitEnable.maxScaleYLimitEnable
p152
(dp153
g3
I00
sg4
Vbool
p154
sg6
I00
sg7
I00
sg8
I01
sg9
(lp155
ssVparentMatrix[0]
p156
(dp157
g3
I00
sg8
I00
sg9
(lp158
ssVinstObjGroups[0].objectGroups[0]
p159
(dp160
g3
I00
sg8
I00
sg9
(lp161
VinstObjGroups[0].objectGroups[0].objectGrpCompList
p162
aVinstObjGroups[0].objectGroups[0].objectGroupId
p163
aVinstObjGroups[0].objectGroups[0].objectGrpColor
p164
assVdynamics
p165
(dp166
g3
I00
sg4
Vbool
p167
sg6
I00
sg7
I00
sg8
I01
sg9
(lp168
ssVmaxTransLimit.maxTransZLimit
p169
(dp170
g3
I00
sg4
VdoubleLinear
p171
sg6
I00
sg7
I00
sg8
I01
sg9
(lp172
ssVrenderLayerInfo[0]
p173
(dp174
g3
I00
sg8
I00
sg9
(lp175
g87
aVrenderLayerInfo[0].renderLayerRenderable
p176
aVrenderLayerInfo[0].renderLayerColor
p177
assVoffset.offsetZ
p178
(dp179
g3
I00
sg4
VdoubleAngle
p180
sg6
I00
sg7
I00
sg8
I01
sg9
(lp181
ssVoffset.offsetX
p182
(dp183
g3
I00
sg4
VdoubleAngle
p184
sg6
I00
sg7
I00
sg8
I01
sg9
(lp185
ssVoffset.offsetY
p186
(dp187
g3
I00
sg4
VdoubleAngle
p188
sg6
I00
sg7
I00
sg8
I01
sg9
(lp189
ssVrotatePivot
p190
(dp191
g3
I00
sg4
Vdouble3
p192
sg6
I00
sg7
I01
sg8
I01
sg9
(lp193
VrotatePivot.rotatePivotX
p194
aVrotatePivot.rotatePivotY
p195
aVrotatePivot.rotatePivotZ
p196
assVtarget[2].targetRotate
p197
(dp198
g13
I00
sS'isSimple'
p199
I00
sg15
(lp200
Vtarget[2].targetRotate.targetRotateX
p201
aVtarget[2].targetRotate.targetRotateY
p202
aVtarget[2].targetRotate.targetRotateZ
p203
assVtemplate
p204
(dp205
g3
I00
sg4
Vbool
p206
sg6
I00
sg7
I00
sg8
I01
sg9
(lp207
ssVtarget[2]
p208
(dp209
g64
I00
sg67
(lp210
Vtarget[2].targetRotate
p211
aVtarget[2].targetRotateOrder
p212
aVtarget[2].targetJointOrient
p213
aVtarget[2].targetParentMatrix
p214
aVtarget[2].targetWeight
p215
aVtarget[2].targetRotateCached
p216
asg199
I00
sg15
(lp217
g197
aVtarget[2].targetRotateOrder
p218
aVtarget[2].targetJointOrient
p219
aVtarget[2].targetParentMatrix
p220
aVtarget[2].targetWeight
p221
aVtarget[2].targetRotateCached
p222
assVparentInverseMatrix[1]
p223
(dp224
g3
I00
sg8
I00
sg9
(lp225
ssg118
(dp226
g3
I00
sg4
VdoubleLinear
p227
sg6
I00
sg7
I00
sg8
I01
sg9
(lp228
ssVdisplayScalePivot
p229
(dp230
g3
I00
sg4
Vbool
p231
sg6
I00
sg7
I00
sg8
I01
sg9
(lp232
ssVmentalRayControls.miHide
p233
(dp234
g3
I00
sg4
Vbool
p235
sg6
I00
sg7
I00
sg8
I01
sg9
(lp236
ssVinstObjGroups.objectGroups
p237
(dp238
g33
VinstObjGroups
p239
ssVpublishedNodeInfo
p240
(dp241
g3
I01
sg4
VTdataCompound
p242
sg8
I00
sg6
I01
ssVdrawOverride.overrideTexturing
p243
(dp244
g3
I00
sg4
Vbool
p245
sg6
I00
sg7
I00
sg8
I01
sg9
(lp246
ssg220
(dp247
g13
I00
sg199
I00
sg15
(lp248
ssg163
(dp249
g3
I00
sg8
I00
sg9
(lp250
ssVdisplayHandle
p251
(dp252
g3
I00
sg4
Vbool
p253
sg6
I00
sg7
I00
sg8
I01
sg9
(lp254
ssVminRotLimitEnable.minRotXLimitEnable
p255
(dp256
g3
I00
sg4
Vbool
p257
sg6
I00
sg7
I00
sg8
I01
sg9
(lp258
ssg119
(dp259
g3
I00
sg4
VdoubleLinear
p260
sg6
I00
sg7
I00
sg8
I01
sg9
(lp261
ssVrotateQuaternion
p262
(dp263
g3
I00
sg4
Vdouble4
p264
sg6
I00
sg8
I00
sg9
(lp265
g90
ag94
ag83
ag106
assVtransMinusRotatePivot.transMinusRotatePivotZ
p266
(dp267
g3
I00
sg4
VdoubleLinear
p268
sg6
I00
sg7
I00
sg8
I01
sg9
(lp269
ssVtransMinusRotatePivot.transMinusRotatePivotX
p270
(dp271
g3
I00
sg4
VdoubleLinear
p272
sg6
I00
sg7
I00
sg8
I01
sg9
(lp273
ssVtransMinusRotatePivot.transMinusRotatePivotY
p274
(dp275
g3
I00
sg4
VdoubleLinear
p276
sg6
I00
sg7
I00
sg8
I01
sg9
(lp277
ssVrotationInterpolation
p278
(dp279
g3
I00
sg4
Venum
p280
sg6
I00
sg7
I00
sg8
I01
sg9
(lp281
ssVminScaleLimit.minScaleYLimit
p282
(dp283
g3
I00
sg4
Vdouble
p284
sg6
I00
sg7
I00
sg8
I01
sg9
(lp285
ssVinstObjGroups[2].objectGroups
p286
(dp287
S'isArray'
p288
I01
sS'isSimple'
p289
I00
ssVshear.shearXZ
p290
(dp291
g3
I00
sg4
Vdouble
p292
sg6
I00
sg7
I00
sg8
I01
sg9
(lp293
ssVshear.shearXY
p294
(dp295
g3
I00
sg4
Vdouble
p296
sg6
I00
sg7
I00
sg8
I01
sg9
(lp297
ssVvisibility
p298
(dp299
g3
I00
sg4
Vbool
p300
sS'isMulti'
p301
I00
sS'isCompound'
p302
I00
sg8
I01
sg9
(lp303
ssVenableRestPosition
p304
(dp305
g3
I00
sg4
Vbool
p306
sg301
I00
sg302
I00
sg8
I01
sg9
(lp307
ssVlastTargetRotate.lastTargetRotateX
p308
(dp309
g3
I00
sg4
VdoubleAngle
p310
sS'isMulti'
p311
I00
sS'isCompound'
p312
I00
sg8
I01
sg9
(lp313
ssVlastTargetRotate.lastTargetRotateY
p314
(dp315
g3
I00
sg4
VdoubleAngle
p316
sg311
I00
sg312
I00
sg8
I01
sg9
(lp317
ssVlastTargetRotate.lastTargetRotateZ
p318
(dp319
g3
I00
sg4
VdoubleAngle
p320
sg301
I00
sg302
I00
sg8
I01
sg9
(lp321
ssVtarget.targetJointOrient
p322
(dp323
g33
Vtarget
p324
ssVinterpType
p325
(dp326
g3
I00
sg4
Venum
p327
sg301
I00
sg302
I00
sg8
I01
sg9
(lp328
ssVlastTargetRotate
p329
(dp330
g3
I00
sg4
Vdouble3
p331
sg6
I00
sg7
I01
sg8
I01
sg9
(lp332
g308
ag314
ag318
assVrenderInfo.layerOverrideColor
p333
(dp334
g3
I00
sg4
Vbyte
p335
sg38
VrenderInfo
p336
sg6
I00
sg8
I00
sg9
(lp337
ssVdisplayRotatePivot
p338
(dp339
g3
I00
sg4
Vbool
p340
sg6
I00
sg7
I00
sg8
I01
sg9
(lp341
ssVmaxTransLimitEnable.maxTransXLimitEnable
p342
(dp343
g3
I00
sg4
Vbool
p344
sg6
I00
sg7
I00
sg8
I01
sg9
(lp345
ssVinstObjGroups[0]
p346
(dp347
g3
I00
sg8
I00
sg9
(lp348
VinstObjGroups[0].objectGroups
p349
assVmentalRayControls.miCaustic
p350
(dp351
g3
I00
sg4
Venum
p352
sg6
I00
sg7
I00
sg8
I01
sg9
(lp353
ssVpublishedNodeInfo[0].isHierarchicalNode
p354
(dp355
g3
I00
sg8
I00
sg9
(lp356
ssVtarget[3].targetJointOrient
p357
(dp358
g13
I00
sg199
I00
sg15
(lp359
Vtarget[3].targetJointOrient.targetJointOrientX
p360
aVtarget[3].targetJointOrient.targetJointOrientY
p361
aVtarget[3].targetJointOrient.targetJointOrientZ
p362
assVtarget[1].targetRotateCached.targetRotateCachedX
p363
(dp364
g13
I00
sg18
VdoubleAngle
p365
sg14
I00
sS'isCompound'
p366
I00
sg17
I01
sg15
(lp367
ssVtarget[1].targetRotateCached.targetRotateCachedY
p368
(dp369
g13
I00
sg18
VdoubleAngle
p370
sg14
I00
sg366
I00
sg17
I01
sg15
(lp371
ssVtarget[1].targetRotateCached.targetRotateCachedZ
p372
(dp373
g13
I00
sg18
VdoubleAngle
p374
sg14
I00
sg366
I00
sg17
I01
sg15
(lp375
ssVboundingBox.boundingBoxSize.boundingBoxSizeY
p376
(dp377
g3
I00
sg4
VdoubleLinear
p378
sg38
VboundingBox.boundingBoxSize
p379
sg8
I01
sg9
(lp380
ssVboundingBox.boundingBoxSize.boundingBoxSizeX
p381
(dp382
g3
I00
sg4
VdoubleLinear
p383
sg38
VboundingBox.boundingBoxSize
p384
sg8
I01
sg9
(lp385
ssVmentalRayControls.miExportGeoShader
p386
(dp387
g3
I00
sg4
Vbool
p388
sg6
I00
sg7
I00
sg8
I01
sg9
(lp389
ssVboundingBox.boundingBoxSize.boundingBoxSizeZ
p390
(dp391
g3
I00
sg4
VdoubleLinear
p392
sg38
VboundingBox.boundingBoxSize
p393
sg8
I01
sg9
(lp394
ssVtemplateName
p395
(dp396
g3
I00
sg4
Vstring
p397
sg6
I00
sg7
I00
sg8
I01
sg9
(lp398
ssVtarget[3].targetRotate.targetRotateZ
p399
(dp400
g13
I00
sg199
I00
sg15
(lp401
ssVghostingControl
p402
(dp403
g3
I00
sg4
Venum
p404
sg6
I00
sg7
I00
sg8
I01
sg9
(lp405
ssVtarget[3].targetRotate.targetRotateX
p406
(dp407
g13
I00
sg199
I00
sg15
(lp408
ssVtarget[3].targetRotate.targetRotateY
p409
(dp410
g13
I00
sg199
I00
sg15
(lp411
ssVminScaleLimitEnable
p412
(dp413
g3
I00
sg4
VTdataCompound
p414
sg6
I00
sg8
I00
sg9
(lp415
VminScaleLimitEnable.minScaleXLimitEnable
p416
aVminScaleLimitEnable.minScaleYLimitEnable
p417
aVminScaleLimitEnable.minScaleZLimitEnable
p418
assVmentalRayControls.miDeriveFromMaya
p419
(dp420
g3
I00
sg4
Vbool
p421
sg6
I00
sg7
I00
sg8
I01
sg9
(lp422
ssVtarget.targetRotateOrder
p423
(dp424
g38
Vtarget
p425
ssVdrawOverride.overrideDisplayType
p426
(dp427
g3
I00
sg4
Venum
p428
sg6
I00
sg7
I00
sg8
I01
sg9
(lp429
ssg221
(dp430
g13
I00
sg199
I00
sg15
(lp431
ssVnodeState
p432
(dp433
g3
I00
sg4
Venum
p434
sg301
I00
sg302
I00
sg8
I01
sg9
(lp435
ssVtarget[1].targetRotateOrder
p436
(dp437
g13
I00
sg18
Venum
p438
sg14
I00
sg366
I00
sg17
I01
sg15
(lp439
ssVminRotLimitEnable
p440
(dp441
g3
I00
sg4
VTdataCompound
p442
sg6
I00
sg8
I00
sg9
(lp443
g255
ag51
aVminRotLimitEnable.minRotZLimitEnable
p444
assVworldMatrix[1]
p445
(dp446
g3
I00
sg8
I00
sg9
(lp447
ssVscalePivotTranslate.scalePivotTranslateZ
p448
(dp449
g3
I00
sg4
VdoubleLinear
p450
sg6
I00
sg7
I00
sg8
I01
sg9
(lp451
ssVscalePivotTranslate.scalePivotTranslateX
p452
(dp453
g3
I00
sg4
VdoubleLinear
p454
sg6
I00
sg7
I00
sg8
I01
sg9
(lp455
ssVscalePivotTranslate.scalePivotTranslateY
p456
(dp457
g3
I00
sg4
VdoubleLinear
p458
sg6
I00
sg7
I00
sg8
I01
sg9
(lp459
ssVtarget[3].targetRotateCached
p460
(dp461
g13
I00
sg199
I00
sg15
(lp462
Vtarget[3].targetRotateCached.targetRotateCachedX
p463
aVtarget[3].targetRotateCached.targetRotateCachedY
p464
aVtarget[3].targetRotateCached.targetRotateCachedZ
p465
assVminTransLimitEnable
p466
(dp467
g3
I00
sg4
VTdataCompound
p468
sg6
I00
sg8
I00
sg9
(lp469
VminTransLimitEnable.minTransXLimitEnable
p470
ag27
aVminTransLimitEnable.minTransZLimitEnable
p471
assVparentInverseMatrix[2]
p472
(dp473
g288
I00
sg289
I00
sS'attrChildrenLongNames'
p474
(lp475
ssVghostFrames
p476
(dp477
g3
I00
sg4
Nsg6
I00
sg8
I00
sg9
(lp478
ssg164
(dp479
g3
I00
sg8
I00
sg9
(lp480
ssg222
(dp481
g13
I00
sg199
I00
sg15
(lp482
Vtarget[2].targetRotateCached.targetRotateCachedX
p483
aVtarget[2].targetRotateCached.targetRotateCachedY
p484
aVtarget[2].targetRotateCached.targetRotateCachedZ
p485
assVdrawOverride.overrideColor
p486
(dp487
g3
I00
sg4
Vbyte
p488
sg6
I00
sg8
I00
sg9
(lp489
ssVrenderLayerInfo.renderLayerId
p490
(dp491
g33
VrenderLayerInfo
p492
ssVtarget[1].targetJointOrient
p493
(dp494
g13
I00
sg18
Vdouble3
p495
sg14
I00
sg366
I01
sg17
I01
sg15
(lp496
Vtarget[1].targetJointOrient.targetJointOrientX
p497
aVtarget[1].targetJointOrient.targetJointOrientY
p498
aVtarget[1].targetJointOrient.targetJointOrientZ
p499
assVrenderLayerInfo[1].renderLayerColor
p500
(dp501
g3
I00
sg8
I00
sg9
(lp502
ssVtarget.targetParentMatrix
p503
(dp504
g38
Vtarget
p505
ssVcustomTreatment
p506
(dp507
g3
I00
sg4
Vstring
p508
sg6
I00
sg7
I00
sg8
I01
sg9
(lp509
ssVshear
p510
(dp511
g3
I00
sg4
Vdouble3
p512
sg6
I00
sg7
I01
sg8
I01
sg9
(lp513
g294
ag290
aVshear.shearYZ
p514
assVinstObjGroups.objectGroups.objectGrpColor
p515
(dp516
g33
VinstObjGroups.objectGroups
p517
ssVcreationDate
p518
(dp519
g3
I00
sg4
Vstring
p520
sg6
I00
sg7
I00
sg8
I01
sg9
(lp521
ssVtarget[3].targetWeight
p522
(dp523
g13
I00
sg199
I00
sg15
(lp524
ssg484
(dp525
g13
I00
sg199
I00
sg15
(lp526
ssg483
(dp527
g13
I00
sg199
I00
sg15
(lp528
ssVisHierarchicalConnection[1]
p529
(dp530
g3
I00
sg8
I00
sg9
(lp531
ssg127
(dp532
g3
I00
sg4
VdoubleAngle
p533
sg6
I00
sg7
I00
sg8
I01
sg9
(lp534
ssg196
(dp535
g3
I00
sg4
VdoubleLinear
p536
sg6
I00
sg7
I00
sg8
I01
sg9
(lp537
ssg194
(dp538
g3
I00
sg4
VdoubleLinear
p539
sg6
I00
sg7
I00
sg8
I01
sg9
(lp540
ssg195
(dp541
g3
I00
sg4
VdoubleLinear
p542
sg6
I00
sg7
I00
sg8
I01
sg9
(lp543
ssVworldMatrix[2]
p544
(dp545
g288
I00
sg289
I00
sg474
(lp546
ssVinstObjGroups[1].objectGroups
p547
(dp548
g3
I01
sg8
I00
ssVmatrix
p549
(dp550
g3
I00
sg4
Vmatrix
p551
sg6
I00
sg8
I00
sg9
(lp552
ssVdisplayLocalAxis
p553
(dp554
g3
I00
sg4
Vbool
p555
sg6
I00
sg7
I00
sg8
I01
sg9
(lp556
ssg59
(dp557
g3
I00
sg4
VdoubleLinear
p558
sg6
I00
sg7
I00
sg8
I01
sg9
(lp559
ssg60
(dp560
g3
I00
sg4
VdoubleLinear
p561
sg6
I00
sg7
I00
sg8
I01
sg9
(lp562
ssg61
(dp563
g3
I00
sg4
VdoubleLinear
p564
sg6
I00
sg7
I00
sg8
I01
sg9
(lp565
ssVmaxRotLimitEnable.maxRotZLimitEnable
p566
(dp567
g3
I00
sg4
Vbool
p568
sg6
I00
sg7
I00
sg8
I01
sg9
(lp569
ssVworldMatrix
p570
(dp571
g3
I01
sg4
Vmatrix
p572
sg8
I00
sg6
I01
ssVcontainerType
p573
(dp574
g3
I00
sg4
Vstring
p575
sg6
I00
sg7
I00
sg8
I01
sg9
(lp576
ssVminScaleLimit.minScaleZLimit
p577
(dp578
g3
I00
sg4
Vdouble
p579
sg6
I00
sg7
I00
sg8
I01
sg9
(lp580
ssVparentInverseMatrix
p581
(dp582
g3
I01
sg4
Vmatrix
p583
sg8
I00
sg6
I01
ssg219
(dp584
g13
I00
sg199
I00
sg15
(lp585
Vtarget[2].targetJointOrient.targetJointOrientX
p586
aVtarget[2].targetJointOrient.targetJointOrientY
p587
aVtarget[2].targetJointOrient.targetJointOrientZ
p588
assVtarget[1].targetRotateCached
p589
(dp590
g13
I00
sg18
Vdouble3
p591
sg14
I00
sg366
I01
sg17
I01
sg15
(lp592
g363
ag368
ag372
assVrenderInfo.layerRenderable
p593
(dp594
g3
I00
sg4
Vbool
p595
sg38
VrenderInfo
p596
sg6
I00
sg7
I00
sg8
I01
sg9
(lp597
ssVrmbCommand
p598
(dp599
g3
I00
sg4
Vstring
p600
sg6
I00
sg7
I00
sg8
I01
sg9
(lp601
ssg24
(dp602
g3
I00
sg4
Vlong
p603
sg6
I00
sg7
I00
sg8
I01
sg9
(lp604
ssVpublishedNodeInfo[1].publishedNodeType
p605
(dp606
g3
I00
sg8
I00
sg9
(lp607
ssVgeometry
p608
(dp609
g3
I00
sg4
Nsg6
I00
sg8
I00
sg9
(lp610
ssVmaxRotLimit.maxRotXLimit
p611
(dp612
g3
I00
sg4
VdoubleAngle
p613
sg6
I00
sg7
I00
sg8
I01
sg9
(lp614
ssVisHierarchicalConnection
p615
(dp616
g3
I01
sg4
VTdataCompound
p617
sg8
I00
sg6
I01
ssg514
(dp618
g3
I00
sg4
Vdouble
p619
sg6
I00
sg7
I00
sg8
I01
sg9
(lp620
ssg125
(dp621
g3
I00
sg4
VdoubleAngle
p622
sg6
I00
sg7
I00
sg8
I01
sg9
(lp623
ssVxformMatrix
p624
(dp625
g3
I00
sg4
Vmatrix
p626
sg6
I00
sg8
I00
sg9
(lp627
ssVinstObjGroups[1]
p628
(dp629
g3
I00
sg8
I00
sg9
(lp630
g547
assVtarget[0].targetRotateCached
p631
(dp632
g64
I00
sg65
Vdouble3
p633
sg67
(lp634
g73
ag62
ag78
asg69
I00
sg70
I01
sg71
I01
sg15
(lp635
Vtarget[0].targetRotateCached.targetRotateCachedX
p636
aVtarget[0].targetRotateCached.targetRotateCachedY
p637
aVtarget[0].targetRotateCached.targetRotateCachedZ
p638
assVparentMatrix[1]
p639
(dp640
g3
I00
sg8
I00
sg9
(lp641
ssVrenderInfo
p642
(dp643
g3
I00
sg4
VTdataCompound
p644
sg6
I00
sg8
I00
sg9
(lp645
VrenderInfo.identification
p646
ag593
ag333
assVmaxScaleLimit.maxScaleZLimit
p647
(dp648
g3
I00
sg4
Vdouble
p649
sg6
I00
sg7
I00
sg8
I01
sg9
(lp650
ssVtarget
p651
(dp652
g64
I01
sg69
I01
sg71
I00
sg65
VTdataCompound
p653
ssVtarget[3]
p654
(dp655
g13
I00
sg199
I00
sg15
(lp656
Vtarget[3].targetRotate
p657
aVtarget[3].targetRotateOrder
p658
ag357
aVtarget[3].targetParentMatrix
p659
ag522
ag460
assVmaxScaleLimit.maxScaleXLimit
p660
(dp661
g3
I00
sg4
Vdouble
p662
sg6
I00
sg7
I00
sg8
I01
sg9
(lp663
ssVscalePivot
p664
(dp665
g3
I00
sg4
Vdouble3
p666
sg6
I00
sg7
I01
sg8
I01
sg9
(lp667
VscalePivot.scalePivotX
p668
aVscalePivot.scalePivotY
p669
aVscalePivot.scalePivotZ
p670
assVworldInverseMatrix[0]
p671
(dp672
g3
I00
sg8
I00
sg9
(lp673
ssg657
(dp674
g13
I00
sg199
I00
sg15
(lp675
g406
ag409
ag399
assVboundingBox.boundingBoxMax.boundingBoxMaxX
p676
(dp677
g3
I00
sg4
VdoubleLinear
p678
sg38
VboundingBox.boundingBoxMax
p679
sg8
I01
sg9
(lp680
ssVtarget[1].targetRotate
p681
(dp682
g13
I00
sg18
Vdouble3
p683
sg14
I00
sg366
I01
sg17
I01
sg15
(lp684
Vtarget[1].targetRotate.targetRotateX
p685
aVtarget[1].targetRotate.targetRotateY
p686
aVtarget[1].targetRotate.targetRotateZ
p687
assVboundingBox.boundingBoxMax.boundingBoxMaxZ
p688
(dp689
g3
I00
sg4
VdoubleLinear
p690
sg38
VboundingBox.boundingBoxMax
p691
sg8
I01
sg9
(lp692
ssVinstObjGroups[0].objectGroups[1].objectGrpColor
p693
(dp694
g3
I00
sg8
I00
sg9
(lp695
ssVisCollapsed
p696
(dp697
g3
I00
sg4
Vbool
p698
sg6
I00
sg7
I00
sg8
I01
sg9
(lp699
ssg218
(dp700
g13
I00
sg199
I00
sg15
(lp701
ssVuseOldOffsetCalculation
p702
(dp703
g3
I00
sg4
Vbool
p704
sg6
I00
sg7
I00
sg8
I01
sg9
(lp705
ssVmaxTransLimit.maxTransXLimit
p706
(dp707
g3
I00
sg4
VdoubleLinear
p708
sg6
I00
sg7
I00
sg8
I01
sg9
(lp709
ssVmaxScaleLimit.maxScaleYLimit
p710
(dp711
g3
I00
sg4
Vdouble
p712
sg6
I00
sg7
I00
sg8
I01
sg9
(lp713
ssVtarget.targetJointOrientX
p714
(dp715
g33
Vtarget.targetJointOrient
p716
ssVtarget.targetJointOrientY
p717
(dp718
g33
Vtarget.targetJointOrient
p719
ssVtarget.targetJointOrientZ
p720
(dp721
g33
Vtarget.targetJointOrient
p722
ssg162
(dp723
g3
I00
sg8
I00
sg9
(lp724
ssVuiTreatment
p725
(dp726
g3
I00
sg4
Venum
p727
sg6
I00
sg7
I00
sg8
I01
sg9
(lp728
ssVrotate.rotateZ
p729
(dp730
g3
I00
sg4
VdoubleAngle
p731
sg301
I00
sg302
I00
sg8
I01
sg9
(lp732
ssVrotate.rotateX
p733
(dp734
g3
I00
sg4
VdoubleAngle
p735
sg301
I00
sg302
I00
sg8
I01
sg9
(lp736
ssVrotate.rotateY
p737
(dp738
g3
I00
sg4
VdoubleAngle
p739
sg301
I00
sg302
I00
sg8
I01
sg9
(lp740
ssVcaching
p741
(dp742
g3
I00
sg4
Vbool
p743
sg6
I00
sg7
I00
sg8
I01
sg9
(lp744
ssVrenderLayerInfo[1].renderLayerRenderable
p745
(dp746
g3
I00
sg8
I00
sg9
(lp747
ssVtranslate.translateZ
p748
(dp749
g3
I00
sg4
VdoubleLinear
p750
sg301
I00
sg302
I00
sg8
I01
sg9
(lp751
ssg658
(dp752
g13
I00
sg199
I00
sg15
(lp753
ssVtranslate.translateX
p754
(dp755
g3
I00
sg4
VdoubleLinear
p756
sg301
I00
sg302
I00
sg8
I01
sg9
(lp757
ssVtranslate.translateY
p758
(dp759
g3
I00
sg4
VdoubleLinear
p760
sg301
I00
sg302
I00
sg8
I01
sg9
(lp761
ssg25
(dp762
g3
I00
sg4
Vlong
p763
sg6
I00
sg7
I00
sg8
I01
sg9
(lp764
ssVmentalRayControls.miVisible
p765
(dp766
g3
I00
sg4
Venum
p767
sg6
I00
sg7
I00
sg8
I01
sg9
(lp768
ssVuseObjectColor
p769
(dp770
g3
I00
sg4
Vbool
p771
sg311
I00
sg312
I00
sg8
I01
sg9
(lp772
ssVdrawOverride.overrideLevelOfDetail
p773
(dp774
g3
I00
sg4
Venum
p775
sg6
I00
sg7
I00
sg8
I01
sg9
(lp776
ssVtarget.targetRotateCachedZ
p777
(dp778
g33
Vtarget.targetRotateCached
p779
ssVtarget.targetRotateCachedY
p780
(dp781
g33
Vtarget.targetRotateCached
p782
ssVtarget.targetRotateCachedX
p783
(dp784
g33
Vtarget.targetRotateCached
p785
ssVparentMatrix[2]
p786
(dp787
g288
I00
sg289
I00
sg474
(lp788
ssVtransMinusRotatePivot
p789
(dp790
g3
I00
sg4
Vdouble3
p791
sg6
I00
sg7
I01
sg8
I01
sg9
(lp792
g270
ag274
ag266
assVbinMembership
p793
(dp794
g3
I00
sg4
Vstring
p795
sg6
I00
sg7
I00
sg8
I01
sg9
(lp796
ssg176
(dp797
g3
I00
sg8
I00
sg9
(lp798
ssg203
(dp799
g13
I00
sg199
I00
sg15
(lp800
ssg202
(dp801
g13
I00
sg199
I00
sg15
(lp802
ssg201
(dp803
g13
I00
sg199
I00
sg15
(lp804
ssVparentMatrix
p805
(dp806
g3
I01
sg4
Vmatrix
p807
sg8
I00
sg6
I01
ssg471
(dp808
g3
I00
sg4
Vbool
p809
sg6
I00
sg7
I00
sg8
I01
sg9
(lp810
ssVscalePivotTranslate
p811
(dp812
g3
I00
sg4
Vdouble3
p813
sg6
I00
sg7
I01
sg8
I01
sg9
(lp814
g452
ag456
ag448
assVrestRotate
p815
(dp816
g3
I00
sg4
Vdouble3
p817
sg6
I00
sg7
I01
sg8
I01
sg9
(lp818
VrestRotate.restRotateX
p819
aVrestRotate.restRotateY
p820
aVrestRotate.restRotateZ
p821
assVdrawOverride.overrideEnabled
p822
(dp823
g3
I00
sg4
Vbool
p824
sg6
I00
sg7
I00
sg8
I01
sg9
(lp825
ssVboundingBox.boundingBoxMax
p826
(dp827
g3
I00
sg4
Vdouble3
p828
sg38
VboundingBox
p829
sg8
I01
sg9
(lp830
g676
aVboundingBox.boundingBoxMax.boundingBoxMaxY
p831
ag688
assVrotateAxis
p832
(dp833
g3
I00
sg4
Vdouble3
p834
sg6
I00
sg7
I01
sg8
I01
sg9
(lp835
VrotateAxis.rotateAxisX
p836
aVrotateAxis.rotateAxisY
p837
aVrotateAxis.rotateAxisZ
p838
assVcreator
p839
(dp840
g3
I00
sg4
Vstring
p841
sg6
I00
sg7
I00
sg8
I01
sg9
(lp842
ssg836
(dp843
g3
I00
sg4
VdoubleAngle
p844
sg6
I00
sg7
I00
sg8
I01
sg9
(lp845
ssg837
(dp846
g3
I00
sg4
VdoubleAngle
p847
sg6
I00
sg7
I00
sg8
I01
sg9
(lp848
ssg838
(dp849
g3
I00
sg4
VdoubleAngle
p850
sg6
I00
sg7
I00
sg8
I01
sg9
(lp851
ssVghostRangeEnd
p852
(dp853
g3
I00
sg4
Vtime
p854
sg6
I00
sg7
I00
sg8
I01
sg9
(lp855
ssVtemplateVersion
p856
(dp857
g3
I00
sg4
Vlong
p858
sg6
I00
sg7
I00
sg8
I01
sg9
(lp859
ssVtarget[0].targetJointOrient.targetJointOrientZ
p860
(dp861
g64
I00
sg65
VdoubleAngle
p862
sg67
(lp863
sg69
I00
sg70
I00
sg71
I01
sg15
(lp864
ssVtarget[0].targetJointOrient.targetJointOrientY
p865
(dp866
g64
I00
sg65
VdoubleAngle
p867
sg67
(lp868
sg69
I00
sg70
I00
sg71
I01
sg15
(lp869
ssVtarget[0].targetJointOrient.targetJointOrientX
p870
(dp871
g64
I00
sg65
VdoubleAngle
p872
sg67
(lp873
sg69
I00
sg70
I00
sg71
I01
sg15
(lp874
ssg417
(dp875
g3
I00
sg4
Vbool
p876
sg6
I00
sg7
I00
sg8
I01
sg9
(lp877
ssVmaxScaleLimitEnable.maxScaleXLimitEnable
p878
(dp879
g3
I00
sg4
Vbool
p880
sg6
I00
sg7
I00
sg8
I01
sg9
(lp881
ssVtarget[0].targetJointOrient
p882
(dp883
g64
I00
sg65
Vdouble3
p884
sg67
(lp885
g870
ag865
ag860
asg69
I00
sg70
I01
sg71
I01
sg15
(lp886
Vtarget[0].targetJointOrient.targetJointOrientX
p887
aVtarget[0].targetJointOrient.targetJointOrientY
p888
aVtarget[0].targetJointOrient.targetJointOrientZ
p889
assVtarget[0].targetRotate.targetRotateY
p890
(dp891
g64
I00
sg65
VdoubleAngle
p892
sg67
(lp893
sg69
I00
sg70
I00
sg71
I01
sg15
(lp894
ssVtarget[0].targetRotate.targetRotateX
p895
(dp896
g64
I00
sg65
VdoubleAngle
p897
sg67
(lp898
sg69
I00
sg70
I00
sg71
I01
sg15
(lp899
ssVtarget[0].targetRotate.targetRotateZ
p900
(dp901
g64
I00
sg65
VdoubleAngle
p902
sg67
(lp903
sg69
I00
sg70
I00
sg71
I01
sg15
(lp904
ssg668
(dp905
g3
I00
sg4
VdoubleLinear
p906
sg6
I00
sg7
I00
sg8
I01
sg9
(lp907
ssg669
(dp908
g3
I00
sg4
VdoubleLinear
p909
sg6
I00
sg7
I00
sg8
I01
sg9
(lp910
ssg670
(dp911
g3
I00
sg4
VdoubleLinear
p912
sg6
I00
sg7
I00
sg8
I01
sg9
(lp913
ssVinstObjGroups.objectGroups.objectGrpCompList
p914
(dp915
g33
VinstObjGroups.objectGroups
p916
ssVpublishedNodeInfo.publishedNodeType
p917
(dp918
g33
VpublishedNodeInfo
p919
ssVpublishedNodeInfo[1]
p920
(dp921
g3
I00
sg8
I00
sg9
(lp922
VpublishedNodeInfo[1].publishedNode
p923
aVpublishedNodeInfo[1].isHierarchicalNode
p924
ag605
assVmaxTransLimit
p925
(dp926
g3
I00
sg4
Vdouble3
p927
sg6
I00
sg7
I01
sg8
I01
sg9
(lp928
g706
aVmaxTransLimit.maxTransYLimit
p929
ag169
assg685
(dp930
g13
I00
sg18
VdoubleAngle
p931
sg14
I00
sg366
I00
sg17
I01
sg15
(lp932
ssg686
(dp933
g13
I00
sg18
VdoubleAngle
p934
sg14
I00
sg366
I00
sg17
I01
sg15
(lp935
ssg687
(dp936
g13
I00
sg18
VdoubleAngle
p937
sg14
I00
sg366
I00
sg17
I01
sg15
(lp938
ssVscale.scaleZ
p939
(dp940
g3
I00
sg4
Vdouble
p941
sg301
I00
sg302
I00
sg8
I01
sg9
(lp942
ssg463
(dp943
g13
I00
sg199
I00
sg15
(lp944
ssg464
(dp945
g13
I00
sg199
I00
sg15
(lp946
ssVghostRangeStart
p947
(dp948
g3
I00
sg4
Vtime
p949
sg6
I00
sg7
I00
sg8
I01
sg9
(lp950
ssVpublishedNodeInfo[0].publishedNodeType
p951
(dp952
g3
I00
sg8
I00
sg9
(lp953
ssVmentalRayControls.miTrace
p954
(dp955
g3
I00
sg4
Venum
p956
sg6
I00
sg7
I00
sg8
I01
sg9
(lp957
ssg929
(dp958
g3
I00
sg4
VdoubleLinear
p959
sg6
I00
sg7
I00
sg8
I01
sg9
(lp960
ssVmaxTransLimitEnable
p961
(dp962
g3
I00
sg4
VTdataCompound
p963
sg6
I00
sg8
I00
sg9
(lp964
g342
ag139
aVmaxTransLimitEnable.maxTransZLimitEnable
p965
assVmaxScaleLimit
p966
(dp967
g3
I00
sg4
Vdouble3
p968
sg6
I00
sg7
I01
sg8
I01
sg9
(lp969
g660
ag710
ag647
assVinheritsTransform
p970
(dp971
g3
I00
sg4
Vbool
p972
sg6
I00
sg7
I00
sg8
I01
sg9
(lp973
ssVisHistoricallyInteresting
p974
(dp975
g3
I00
sg4
Vbyte
p976
sg6
I00
sg8
I00
sg9
(lp977
ssVtarget[0]
p978
(dp979
g64
I00
sg65
VTdataCompound
p980
sg67
(lp981
Vtarget[0].targetRotate
p982
aVtarget[0].targetRotateOrder
p983
ag882
aVtarget[0].targetParentMatrix
p984
aVtarget[0].targetWeight
p985
ag631
asg69
I00
sg71
I00
sg15
(lp986
Vtarget[0].targetRotate
p987
aVtarget[0].targetRotateOrder
p988
aVtarget[0].targetJointOrient
p989
aVtarget[0].targetParentMatrix
p990
aVtarget[0].targetWeight
p991
aVtarget[0].targetRotateCached
p992
assVdrawOverride
p993
(dp994
g3
I00
sg4
VTdataCompound
p995
sg6
I00
sg8
I00
sg9
(lp996
g426
ag773
aVdrawOverride.overrideShading
p997
ag243
aVdrawOverride.overridePlayback
p998
ag822
aVdrawOverride.overrideVisibility
p999
ag486
assg499
(dp1000
g13
I00
sg18
VdoubleAngle
p1001
sg14
I00
sg366
I00
sg17
I01
sg15
(lp1002
ssg497
(dp1003
g13
I00
sg18
VdoubleAngle
p1004
sg14
I00
sg366
I00
sg17
I01
sg15
(lp1005
ssg498
(dp1006
g13
I00
sg18
VdoubleAngle
p1007
sg14
I00
sg366
I00
sg17
I01
sg15
(lp1008
ssVinstObjGroups.objectGroups.objectGroupId
p1009
(dp1010
g33
VinstObjGroups.objectGroups
p1011
ssg470
(dp1012
g3
I00
sg4
Vbool
p1013
sg6
I00
sg7
I00
sg8
I01
sg9
(lp1014
ssVboundingBox
p1015
(dp1016
g3
I00
sg4
VTdataCompound
p1017
sg8
I00
sg9
(lp1018
VboundingBox.boundingBoxMin
p1019
ag826
aVboundingBox.boundingBoxSize
p1020
assg982
(dp1021
g64
I00
sg65
Vdouble3
p1022
sg67
(lp1023
g895
ag890
ag900
asg69
I00
sg70
I01
sg71
I01
sg15
(lp1024
Vtarget[0].targetRotate.targetRotateX
p1025
aVtarget[0].targetRotate.targetRotateY
p1026
aVtarget[0].targetRotate.targetRotateZ
p1027
assg1020
(dp1028
g3
I00
sg4
Vdouble3
p1029
sg38
VboundingBox
p1030
sg8
I01
sg9
(lp1031
g381
ag376
ag390
assVinterpCache
p1032
(dp1033
g3
I00
sg4
Vlong
p1034
sg6
I00
sg7
I00
sg8
I01
sg9
(lp1035
ssg465
(dp1036
g13
I00
sg199
I00
sg15
(lp1037
ssg418
(dp1038
g3
I00
sg4
Vbool
p1039
sg6
I00
sg7
I00
sg8
I01
sg9
(lp1040
ssg831
(dp1041
g3
I00
sg4
VdoubleLinear
p1042
sg38
VboundingBox.boundingBoxMax
p1043
sg8
I01
sg9
(lp1044
ssVmaxScaleLimitEnable
p1045
(dp1046
g3
I00
sg4
VTdataCompound
p1047
sg6
I00
sg8
I00
sg9
(lp1048
g878
ag152
aVmaxScaleLimitEnable.maxScaleZLimitEnable
p1049
assVscale.scaleX
p1050
(dp1051
g3
I00
sg4
Vdouble
p1052
sg301
I00
sg302
I00
sg8
I01
sg9
(lp1053
ssg1049
(dp1054
g3
I00
sg4
Vbool
p1055
sg6
I00
sg7
I00
sg8
I01
sg9
(lp1056
ssg1019
(dp1057
g3
I00
sg4
Vdouble3
p1058
sg38
VboundingBox
p1059
sg8
I01
sg9
(lp1060
g41
ag35
ag46
assVscale.scaleY
p1061
(dp1062
g3
I00
sg4
Vdouble
p1063
sg301
I00
sg302
I00
sg8
I01
sg9
(lp1064
ssg983
(dp1065
g64
I00
sg65
Venum
p1066
sg67
(lp1067
sg69
I00
sg70
I00
sg71
I01
sg15
(lp1068
ssVspecifiedManipLocation
p1069
(dp1070
g3
I00
sg4
Nsg6
I00
sg8
I00
sg9
(lp1071
ssg349
(dp1072
g3
I01
sg8
I00
ssVmaxRotLimitEnable.maxRotYLimitEnable
p1073
(dp1074
g3
I00
sg4
Vbool
p1075
sg6
I00
sg7
I00
sg8
I01
sg9
(lp1076
ssVminScaleLimit
p1077
(dp1078
g3
I00
sg4
Vdouble3
p1079
sg6
I00
sg7
I01
sg8
I01
sg9
(lp1080
g102
ag282
ag577
assVlodVisibility
p1081
(dp1082
g3
I00
sg4
Vbool
p1083
sg6
I00
sg7
I00
sg8
I01
sg9
(lp1084
ssVpublishedNodeInfo.isHierarchicalNode
p1085
(dp1086
g33
VpublishedNodeInfo
p1087
ssVinstObjGroups[0].objectGroups[1].objectGrpCompList
p1088
(dp1089
g3
I00
sg8
I00
sg9
(lp1090
ssg998
(dp1091
g3
I00
sg4
Vbool
p1092
sg6
I00
sg7
I00
sg8
I01
sg9
(lp1093
ssVcenter
p1094
(dp1095
g3
I00
sg4
Vdouble3
p1096
sg8
I01
sg9
(lp1097
Vcenter.boundingBoxCenterX
p1098
aVcenter.boundingBoxCenterY
p1099
aVcenter.boundingBoxCenterZ
p1100
assg997
(dp1101
g3
I00
sg4
Vbool
p1102
sg6
I00
sg7
I00
sg8
I01
sg9
(lp1103
ssVrenderLayerInfo.renderLayerColor
p1104
(dp1105
g33
VrenderLayerInfo
p1106
ssVinstObjGroups[2]
p1107
(dp1108
g288
I00
sg289
I00
sg474
(lp1109
g286
assVviewMode
p1110
(dp1111
g3
I00
sg4
Venum
p1112
sg6
I00
sg7
I00
sg8
I01
sg9
(lp1113
ssVrotatePivotTranslate
p1114
(dp1115
g3
I00
sg4
Vdouble3
p1116
sg6
I00
sg7
I01
sg8
I01
sg9
(lp1117
VrotatePivotTranslate.rotatePivotTranslateX
p1118
aVrotatePivotTranslate.rotatePivotTranslateY
p1119
aVrotatePivotTranslate.rotatePivotTranslateZ
p1120
assVintermediateObject
p1121
(dp1122
g3
I00
sg4
Vbool
p1123
sg6
I00
sg7
I00
sg8
I01
sg9
(lp1124
ssg444
(dp1125
g3
I00
sg4
Vbool
p1126
sg6
I00
sg7
I00
sg8
I01
sg9
(lp1127
ssVtarget[1].targetWeight
p1128
(dp1129
g13
I00
sg18
Vdouble
p1130
sg14
I00
sg366
I00
sg17
I01
sg15
(lp1131
ssVmaxRotLimit.maxRotYLimit
p1132
(dp1133
g3
I00
sg4
VdoubleAngle
p1134
sg6
I00
sg7
I00
sg8
I01
sg9
(lp1135
ssVtarget.targetRotateCached
p1136
(dp1137
g33
Vtarget
p1138
ssg360
(dp1139
g13
I00
sg199
I00
sg15
(lp1140
ssg361
(dp1141
g13
I00
sg199
I00
sg15
(lp1142
ssg362
(dp1143
g13
I00
sg199
I00
sg15
(lp1144
ssg485
(dp1145
g13
I00
sg199
I00
sg15
(lp1146
ssg965
(dp1147
g3
I00
sg4
Vbool
p1148
sg6
I00
sg7
I00
sg8
I01
sg9
(lp1149
ssVworldInverseMatrix[1]
p1150
(dp1151
g3
I00
sg8
I00
sg9
(lp1152
ssg1120
(dp1153
g3
I00
sg4
VdoubleLinear
p1154
sg6
I00
sg7
I00
sg8
I01
sg9
(lp1155
ssg1118
(dp1156
g3
I00
sg4
VdoubleLinear
p1157
sg6
I00
sg7
I00
sg8
I01
sg9
(lp1158
ssg1119
(dp1159
g3
I00
sg4
VdoubleLinear
p1160
sg6
I00
sg7
I00
sg8
I01
sg9
(lp1161
ssVrotate
p1162
(dp1163
g3
I00
sg4
Vdouble3
p1164
sg6
I00
sg7
I01
sg8
I01
sg9
(lp1165
g733
ag737
ag729
assVparentInverseMatrix[0]
p1166
(dp1167
g3
I00
sg8
I00
sg9
(lp1168
ssVrenderLayerInfo[1].renderLayerId
p1169
(dp1170
g3
I00
sg8
I00
sg9
(lp1171
ssVobjectColor
p1172
(dp1173
g3
I00
sg4
Vshort
p1174
sg311
I00
sg312
I00
sg8
I01
sg9
(lp1175
ssVmentalRayControls.miGeoShader
p1176
(dp1177
g3
I00
sg4
Nsg6
I00
sg8
I00
sg9
(lp1178
ssVconstraintRotateOrder
p1179
(dp1180
g64
I00
sg65
Venum
p1181
sg67
(lp1182
sg69
I00
sg70
I00
sg71
I01
sg15
(lp1183
ssVpublishedNodeInfo[0]
p1184
(dp1185
g3
I00
sg8
I00
sg9
(lp1186
VpublishedNodeInfo[0].publishedNode
p1187
ag354
ag951
assg985
(dp1188
g64
I00
sg65
Vdouble
p1189
sg67
(lp1190
sg69
I00
sg70
I00
sg71
I01
sg15
(lp1191
ssg1187
(dp1192
g3
I00
sg8
I00
sg9
(lp1193
ssg924
(dp1194
g3
I00
sg8
I00
sg9
(lp1195
ssVscale
p1196
(dp1197
g3
I00
sg4
Vdouble3
p1198
sg6
I00
sg7
I01
sg8
I01
sg9
(lp1199
g1050
ag1061
ag939
assVtarget.targetRotateZ
p1200
(dp1201
g33
Vtarget.targetRotate
p1202
ssVtarget.targetRotateY
p1203
(dp1204
g33
Vtarget.targetRotate
p1205
ssVtarget.targetRotateX
p1206
(dp1207
g33
Vtarget.targetRotate
p1208
ssVviewName
p1209
(dp1210
g3
I00
sg4
Vstring
p1211
sg6
I00
sg7
I00
sg8
I01
sg9
(lp1212
ssVinstObjGroups[0].objectGroups[1]
p1213
(dp1214
g3
I00
sg8
I00
sg9
(lp1215
g1088
aVinstObjGroups[0].objectGroups[1].objectGroupId
p1216
ag693
assVoffset
p1217
(dp1218
g3
I00
sg4
Vdouble3
p1219
sg6
I00
sg7
I01
sg8
I01
sg9
(lp1220
g182
ag186
ag178
assViconName
p1221
(dp1222
g3
I00
sg4
Vstring
p1223
sg6
I00
sg7
I00
sg8
I01
sg9
(lp1224
ssVinstObjGroups
p1225
(dp1226
g3
I01
sg4
VTdataCompound
p1227
sg8
I00
sg6
I01
ssVworldMatrix[0]
p1228
(dp1229
g3
I00
sg8
I00
sg9
(lp1230
ssg999
(dp1231
g3
I00
sg4
Vbool
p1232
sg6
I00
sg7
I00
sg8
I01
sg9
(lp1233
ssVghosting
p1234
(dp1235
g3
I00
sg4
Vbool
p1236
sg6
I00
sg7
I00
sg8
I01
sg9
(lp1237
ssVworldInverseMatrix[2]
p1238
(dp1239
g288
I00
sg289
I00
sg474
(lp1240
ssg923
(dp1241
g3
I00
sg8
I00
sg9
(lp1242
ssVmaxRotLimit
p1243
(dp1244
g3
I00
sg4
Vdouble3
p1245
sg6
I00
sg7
I01
sg8
I01
sg9
(lp1246
g611
ag1132
aVmaxRotLimit.maxRotZLimit
p1247
assVtarget.targetRotate
p1248
(dp1249
g38
Vtarget
p1250
ssVtranslate
p1251
(dp1252
g3
I00
sg4
Vdouble3
p1253
sg6
I00
sg7
I01
sg8
I01
sg9
(lp1254
g754
ag758
ag748
assVmaxRotLimitEnable
p1255
(dp1256
g3
I00
sg4
VTdataCompound
p1257
sg6
I00
sg8
I00
sg9
(lp1258
g98
ag1073
ag566
assg659
(dp1259
g13
I00
sg199
I00
sg15
(lp1260
ssg1216
(dp1261
g3
I00
sg8
I00
sg9
(lp1262
ssVconstraintJointOrient
p1263
(dp1264
g64
I00
sg65
Vdouble3
p1265
sg67
(lp1266
VconstraintJointOrient.constraintJointOrientX
p1267
aVconstraintJointOrient.constraintJointOrientY
p1268
aVconstraintJointOrient.constraintJointOrientZ
p1269
asg69
I00
sg70
I01
sg71
I01
sg15
(lp1270
VconstraintJointOrient.constraintJointOrientX
p1271
aVconstraintJointOrient.constraintJointOrientY
p1272
aVconstraintJointOrient.constraintJointOrientZ
p1273
assg120
(dp1274
g3
I00
sg4
VdoubleLinear
p1275
sg6
I00
sg7
I00
sg8
I01
sg9
(lp1276
ssg126
(dp1277
g3
I00
sg4
VdoubleAngle
p1278
sg6
I00
sg7
I00
sg8
I01
sg9
(lp1279
ssg821
(dp1280
g3
I00
sg4
VdoubleAngle
p1281
sg301
I00
sg302
I00
sg8
I01
sg9
(lp1282
ssg819
(dp1283
g3
I00
sg4
VdoubleAngle
p1284
sg311
I00
sg312
I00
sg8
I01
sg9
(lp1285
ssg820
(dp1286
g3
I00
sg4
VdoubleAngle
p1287
sg311
I00
sg312
I00
sg8
I01
sg9
(lp1288
ssg1269
(dp1289
g64
I00
sg65
VdoubleAngle
p1290
sg67
(lp1291
sg69
I00
sg70
I00
sg71
I01
sg15
(lp1292
ssg1267
(dp1293
g64
I00
sg65
VdoubleAngle
p1294
sg67
(lp1295
sg69
I00
sg70
I00
sg71
I01
sg15
(lp1296
ssg1268
(dp1297
g64
I00
sg65
VdoubleAngle
p1298
sg67
(lp1299
sg69
I00
sg70
I00
sg71
I01
sg15
(lp1300
ssVmentalRayControls
p1301
(dp1302
g3
I00
sg4
VTdataCompound
p1303
sg6
I00
sg8
I00
sg9
(lp1304
g419
ag233
ag765
ag954
aVmentalRayControls.miShadow
p1305
ag350
aVmentalRayControls.miGlobillum
p1306
ag386
ag1176
aVmentalRayControls.miProxyRenderable
p1307
assVworldInverseMatrix
p1308
(dp1309
g3
I01
sg4
Vmatrix
p1310
sg8
I00
sg6
I01
ssg646
(dp1311
g3
I00
sg4
Vshort
p1312
sg38
VrenderInfo
p1313
sg6
I00
sg7
I00
sg8
I01
sg9
(lp1314
ssVblackBox
p1315
(dp1316
g3
I00
sg4
Vbool
p1317
sg6
I00
sg7
I00
sg8
I01
sg9
(lp1318
ssg1305
(dp1319
g3
I00
sg4
Venum
p1320
sg6
I00
sg7
I00
sg8
I01
sg9
(lp1321
ssg132
(dp1322
g64
I00
sg65
VdoubleAngle
p1323
sS'attrParentLongName'
p1324
VconstraintRotate
p1325
sg67
(lp1326
sg69
I00
sg70
I00
sg71
I01
sg15
(lp1327
ssg133
(dp1328
g64
I00
sg65
VdoubleAngle
p1329
sg1324
VconstraintRotate
p1330
sg67
(lp1331
sg69
I00
sg70
I00
sg71
I01
sg15
(lp1332
ssg134
(dp1333
g64
I00
sg65
VdoubleAngle
p1334
sg1324
VconstraintRotate
p1335
sg67
(lp1336
sg69
I00
sS'isWritable'
p1337
Nsg70
I00
sg71
I01
sg15
(lp1338
ssVisHierarchicalConnection[0]
p1339
(dp1340
g3
I00
sg8
I00
sg9
(lp1341
ssVshowManipDefault
p1342
(dp1343
g3
I00
sg4
Venum
p1344
sg6
I00
sg7
I00
sg8
I01
sg9
(lp1345
ssg1247
(dp1346
g3
I00
sg4
VdoubleAngle
p1347
sg6
I00
sg7
I00
sg8
I01
sg9
(lp1348
ssg177
(dp1349
g3
I00
sg8
I00
sg9
(lp1350
ssVrenderLayerInfo[1]
p1351
(dp1352
g3
I00
sg8
I00
sg9
(lp1353
g1169
ag745
ag500
assg26
(dp1354
g3
I00
sg4
Vlong
p1355
sg6
I00
sg7
I00
sg8
I01
sg9
(lp1356
ssVrenderLayerInfo
p1357
(dp1358
g3
I01
sg4
VTdataCompound
p1359
sg8
I00
sg6
I01
ssVtarget[1]
p1360
(dp1361
g64
I00
sg18
VTdataCompound
p1362
sg67
(lp1363
Vtarget[1].targetRotate
p1364
aVtarget[1].targetRotateOrder
p1365
aVtarget[1].targetJointOrient
p1366
aVtarget[1].targetParentMatrix
p1367
aVtarget[1].targetWeight
p1368
aVtarget[1].targetRotateCached
p1369
asg14
I00
sg17
I00
sg15
(lp1370
g681
ag436
ag493
ag11
ag1128
ag589
assg984
(dp1371
g64
I00
sg65
Vmatrix
p1372
sg67
(lp1373
sg69
I00
sg71
I00
sg15
(lp1374
ssg587
(dp1375
g13
I00
sg199
I00
sg15
(lp1376
ssg586
(dp1377
g13
I00
sg199
I00
sg15
(lp1378
ssg588
(dp1379
g13
I00
sg199
I00
sg15
(lp1380
ssg1307
(dp1381
g3
I00
sg4
Vbool
p1382
sg6
I00
sg7
I00
sg8
I01
sg9
(lp1383
ssg416
(dp1384
g3
I00
sg4
Vbool
p1385
sg6
I00
sg7
I00
sg8
I01
sg9
(lp1386
ssVinverseMatrix
p1387
(dp1388
g3
I00
sg4
Vmatrix
p1389
sg6
I00
sg8
I00
sg9
(lp1390
ssg1306
(dp1391
g3
I00
sg4
Venum
p1392
sg6
I00
sg7
I00
sg8
I01
sg9
(lp1393
ssg1100
(dp1394
g3
I00
sg4
VdoubleLinear
p1395
sg38
Vcenter
p1396
sg8
I01
sg9
(lp1397
ssg1098
(dp1398
g3
I00
sg4
VdoubleLinear
p1399
sg38
Vcenter
p1400
sg8
I01
sg9
(lp1401
ssg1099
(dp1402
g3
I00
sg4
VdoubleLinear
p1403
sg38
Vcenter
p1404
sg8
I01
sg9
(lp1405
ss.