(dp0
Voffset.offsetV
p1
(dp2
S'isArray'
p3
I00
sS'attrParentLongName'
p4
Voffset
p5
sS'attrChildrenNames'
p6
(lp7
sS'isMulti'
p8
I00
sS'isCompound'
p9
I00
sS'isElement'
p10
I00
ssVuvFilterSize.uvFilterSizeX
p11
(dp12
S'isArray'
p13
I00
sS'attrParentLongName'
p14
VuvFilterSize
p15
sS'attrChildrenNames'
p16
(lp17
sS'isMulti'
p18
I00
sS'isCompound'
p19
I00
sS'isElement'
p20
I00
ssVuvFilterSize.uvFilterSizeY
p21
(dp22
S'isArray'
p23
I00
sS'attrParentLongName'
p24
VuvFilterSize
p25
sS'attrChildrenNames'
p26
(lp27
sS'isMulti'
p28
I00
sS'isCompound'
p29
I00
sS'isElement'
p30
I00
ssVwrapV
p31
(dp32
S'isArray'
p33
I00
sS'isElement'
p34
I00
sS'attrChildrenNames'
p35
(lp36
sS'isCompound'
p37
I00
sS'isMulti'
p38
I00
ssVrepeatUV.repeatU
p39
(dp40
S'isArray'
p41
I00
sS'attrParentLongName'
p42
VrepeatUV
p43
sS'attrChildrenNames'
p44
(lp45
sS'isMulti'
p46
I00
sS'isCompound'
p47
I00
sS'isElement'
p48
I00
ssVrepeatUV.repeatV
p49
(dp50
S'isArray'
p51
I00
sS'attrParentLongName'
p52
VrepeatUV
p53
sS'attrChildrenNames'
p54
(lp55
sS'isMulti'
p56
I00
sS'isCompound'
p57
I00
sS'isElement'
p58
I00
ssVvertexUvThree
p59
(dp60
S'isArray'
p61
I00
sS'isElement'
p62
I00
sS'isMulti'
p63
I00
sS'attrChildrenNames'
p64
(lp65
VvertexUvThree.vertexUvThreeU
p66
aVvertexUvThree.vertexUvThreeV
p67
asS'isCompound'
p68
I01
ssVoutUV
p69
(dp70
S'isArray'
p71
I00
sS'isElement'
p72
I00
sS'isCompound'
p73
I01
sS'attrChildrenNames'
p74
(lp75
VoutUV.outU
p76
aVoutUV.outV
p77
asS'isMulti'
p78
I00
ssVtranslateFrame.translateFrameV
p79
(dp80
S'isArray'
p81
I00
sS'attrParentLongName'
p82
VtranslateFrame
p83
sS'attrChildrenNames'
p84
(lp85
sS'isMulti'
p86
I00
sS'isCompound'
p87
I00
sS'isElement'
p88
I00
ssVuvCoord.vCoord
p89
(dp90
S'isArray'
p91
I00
sS'attrParentLongName'
p92
VuvCoord
p93
sS'attrChildrenNames'
p94
(lp95
sS'isMulti'
p96
I00
sS'isCompound'
p97
I00
sS'isElement'
p98
I00
ssVtranslateFrame.translateFrameU
p99
(dp100
S'isArray'
p101
I00
sS'attrParentLongName'
p102
VtranslateFrame
p103
sS'attrChildrenNames'
p104
(lp105
sS'isMulti'
p106
I00
sS'isCompound'
p107
I00
sS'isElement'
p108
I00
ssVwrapU
p109
(dp110
S'isArray'
p111
I00
sS'isElement'
p112
I00
sS'isCompound'
p113
I00
sS'attrChildrenNames'
p114
(lp115
sS'isMulti'
p116
I00
ssVisHistoricallyInteresting
p117
(dp118
S'isArray'
p119
I00
sS'isElement'
p120
I00
sS'isMulti'
p121
I00
sS'attrChildrenNames'
p122
(lp123
sS'isCompound'
p124
I00
ssVmirrorU
p125
(dp126
S'isArray'
p127
I00
sS'isElement'
p128
I00
sS'attrChildrenNames'
p129
(lp130
sS'isCompound'
p131
I00
sS'isMulti'
p132
I00
ssVmirrorV
p133
(dp134
S'isArray'
p135
I00
sS'isElement'
p136
I00
sS'isCompound'
p137
I00
sS'attrChildrenNames'
p138
(lp139
sS'isMulti'
p140
I00
ssVtranslateFrame
p141
(dp142
S'isArray'
p143
I00
sS'isElement'
p144
I00
sS'isCompound'
p145
I01
sS'attrChildrenNames'
p146
(lp147
VtranslateFrame.translateFrameU
p148
aVtranslateFrame.translateFrameV
p149
asS'isMulti'
p150
I00
ssVvertexCameraOne.vertexCameraOneZ
p151
(dp152
S'isArray'
p153
I00
sS'attrParentLongName'
p154
VvertexCameraOne
p155
sS'attrChildrenNames'
p156
(lp157
sS'isMulti'
p158
I00
sS'isCompound'
p159
I00
sS'isElement'
p160
I00
ssVvertexCameraOne.vertexCameraOneX
p161
(dp162
S'isArray'
p163
I00
sS'attrParentLongName'
p164
VvertexCameraOne
p165
sS'attrChildrenNames'
p166
(lp167
sS'isMulti'
p168
I00
sS'isCompound'
p169
I00
sS'isElement'
p170
I00
ssVvertexCameraOne.vertexCameraOneY
p171
(dp172
S'isArray'
p173
I00
sS'attrParentLongName'
p174
VvertexCameraOne
p175
sS'attrChildrenNames'
p176
(lp177
sS'isMulti'
p178
I00
sS'isCompound'
p179
I00
sS'isElement'
p180
I00
ssVvertexUvTwo
p181
(dp182
S'isArray'
p183
I00
sS'isElement'
p184
I00
sS'isMulti'
p185
I00
sS'attrChildrenNames'
p186
(lp187
VvertexUvTwo.vertexUvTwoU
p188
aVvertexUvTwo.vertexUvTwoV
p189
asS'isCompound'
p190
I01
ssVvertexUvThree.vertexUvThreeV
p191
(dp192
S'isArray'
p193
I00
sS'attrParentLongName'
p194
VvertexUvThree
p195
sS'attrChildrenNames'
p196
(lp197
sS'isMulti'
p198
I00
sS'isCompound'
p199
I00
sS'isElement'
p200
I00
ssVfast
p201
(dp202
S'isArray'
p203
I00
sS'isElement'
p204
I00
sS'attrChildrenNames'
p205
(lp206
sS'isCompound'
p207
I00
sS'isMulti'
p208
I00
ssVvertexUvOne.vertexUvOneV
p209
(dp210
S'isArray'
p211
I00
sS'attrParentLongName'
p212
VvertexUvOne
p213
sS'attrChildrenNames'
p214
(lp215
sS'isMulti'
p216
I00
sS'isCompound'
p217
I00
sS'isElement'
p218
I00
ssVvertexUvOne.vertexUvOneU
p219
(dp220
S'isArray'
p221
I00
sS'attrParentLongName'
p222
VvertexUvOne
p223
sS'attrChildrenNames'
p224
(lp225
sS'isMulti'
p226
I00
sS'isCompound'
p227
I00
sS'isElement'
p228
I00
ssVcoverage.coverageU
p229
(dp230
S'isArray'
p231
I00
sS'attrParentLongName'
p232
Vcoverage
p233
sS'attrChildrenNames'
p234
(lp235
sS'isMulti'
p236
I00
sS'isCompound'
p237
I00
sS'isElement'
p238
I00
ssVcoverage.coverageV
p239
(dp240
S'isArray'
p241
I00
sS'attrParentLongName'
p242
Vcoverage
p243
sS'attrChildrenNames'
p244
(lp245
sS'isMulti'
p246
I00
sS'isCompound'
p247
I00
sS'isElement'
p248
I00
ssVdoTransform
p249
(dp250
S'isArray'
p251
I00
sS'isElement'
p252
I00
sS'isCompound'
p253
I00
sS'attrChildrenNames'
p254
(lp255
sS'isMulti'
p256
I00
ssVnodeState
p257
(dp258
S'isArray'
p259
I00
sS'isElement'
p260
I00
sS'isMulti'
p261
I00
sS'isCompound'
p262
I00
sS'attrChildrenNames'
p263
(lp264
ssVuvFilterSize
p265
(dp266
S'isArray'
p267
I00
sS'isElement'
p268
I00
sS'isCompound'
p269
I01
sS'attrChildrenNames'
p270
(lp271
VuvFilterSize.uvFilterSizeX
p272
aVuvFilterSize.uvFilterSizeY
p273
asS'isMulti'
p274
I00
ssVuvCoord
p275
(dp276
S'isArray'
p277
I00
sS'isElement'
p278
I00
sS'isMulti'
p279
I00
sS'attrChildrenNames'
p280
(lp281
VuvCoord.uCoord
p282
aVuvCoord.vCoord
p283
asS'isCompound'
p284
I01
ssVoutUvFilterSize
p285
(dp286
S'isArray'
p287
I00
sS'isElement'
p288
I00
sS'isCompound'
p289
I01
sS'attrChildrenNames'
p290
(lp291
VoutUvFilterSize.outUvFilterSizeX
p292
aVoutUvFilterSize.outUvFilterSizeY
p293
asS'isMulti'
p294
I00
ssVrepeatUV
p295
(dp296
S'isArray'
p297
I00
sS'isElement'
p298
I00
sS'isCompound'
p299
I01
sS'attrChildrenNames'
p300
(lp301
VrepeatUV.repeatU
p302
aVrepeatUV.repeatV
p303
asS'isMulti'
p304
I00
ssVcoverage
p305
(dp306
S'isArray'
p307
I00
sS'isElement'
p308
I00
sS'isCompound'
p309
I01
sS'attrChildrenNames'
p310
(lp311
Vcoverage.coverageU
p312
aVcoverage.coverageV
p313
asS'isMulti'
p314
I00
ssVoffset
p315
(dp316
S'isArray'
p317
I00
sS'isElement'
p318
I00
sS'isCompound'
p319
I01
sS'attrChildrenNames'
p320
(lp321
Voffset.offsetU
p322
aVoffset.offsetV
p323
asS'isMulti'
p324
I00
ssVoutUV.outV
p325
(dp326
S'isArray'
p327
I00
sS'attrParentLongName'
p328
VoutUV
p329
sS'attrChildrenNames'
p330
(lp331
sS'isMulti'
p332
I00
sS'isCompound'
p333
I00
sS'isElement'
p334
I00
ssVoutUV.outU
p335
(dp336
S'isArray'
p337
I00
sS'attrParentLongName'
p338
VoutUV
p339
sS'attrChildrenNames'
p340
(lp341
sS'isMulti'
p342
I00
sS'isCompound'
p343
I00
sS'isElement'
p344
I00
ssVoffset.offsetU
p345
(dp346
S'isArray'
p347
I00
sS'attrParentLongName'
p348
Voffset
p349
sS'attrChildrenNames'
p350
(lp351
sS'isMulti'
p352
I00
sS'isCompound'
p353
I00
sS'isElement'
p354
I00
ssVoutUvFilterSize.outUvFilterSizeX
p355
(dp356
S'isArray'
p357
I00
sS'attrParentLongName'
p358
VoutUvFilterSize
p359
sS'attrChildrenNames'
p360
(lp361
sS'isMulti'
p362
I00
sS'isCompound'
p363
I00
sS'isElement'
p364
I00
ssVoutUvFilterSize.outUvFilterSizeY
p365
(dp366
S'isArray'
p367
I00
sS'attrParentLongName'
p368
VoutUvFilterSize
p369
sS'attrChildrenNames'
p370
(lp371
sS'isMulti'
p372
I00
sS'isCompound'
p373
I00
sS'isElement'
p374
I00
ssVvertexCameraOne
p375
(dp376
S'isArray'
p377
I00
sS'isElement'
p378
I00
sS'isMulti'
p379
I00
sS'attrChildrenNames'
p380
(lp381
VvertexCameraOne.vertexCameraOneX
p382
aVvertexCameraOne.vertexCameraOneY
p383
aVvertexCameraOne.vertexCameraOneZ
p384
asS'isCompound'
p385
I01
ssVvertexUvTwo.vertexUvTwoV
p386
(dp387
S'isArray'
p388
I00
sS'attrParentLongName'
p389
VvertexUvTwo
p390
sS'attrChildrenNames'
p391
(lp392
sS'isMulti'
p393
I00
sS'isCompound'
p394
I00
sS'isElement'
p395
I00
ssVvertexUvTwo.vertexUvTwoU
p396
(dp397
S'isArray'
p398
I00
sS'attrParentLongName'
p399
VvertexUvTwo
p400
sS'attrChildrenNames'
p401
(lp402
sS'isMulti'
p403
I00
sS'isCompound'
p404
I00
sS'isElement'
p405
I00
ssVnoiseUV.noiseV
p406
(dp407
S'isArray'
p408
I00
sS'attrParentLongName'
p409
VnoiseUV
p410
sS'attrChildrenNames'
p411
(lp412
sS'isMulti'
p413
I00
sS'isCompound'
p414
I00
sS'isElement'
p415
I00
ssVnoiseUV.noiseU
p416
(dp417
S'isArray'
p418
I00
sS'attrParentLongName'
p419
VnoiseUV
p420
sS'attrChildrenNames'
p421
(lp422
sS'isMulti'
p423
I00
sS'isCompound'
p424
I00
sS'isElement'
p425
I00
ssVrotateFrame
p426
(dp427
S'isArray'
p428
I00
sS'isElement'
p429
I00
sS'isCompound'
p430
I00
sS'attrChildrenNames'
p431
(lp432
sS'isMulti'
p433
I00
ssVrotateUV
p434
(dp435
S'isArray'
p436
I00
sS'isElement'
p437
I00
sS'isCompound'
p438
I00
sS'attrChildrenNames'
p439
(lp440
sS'isMulti'
p441
I00
ssVstagger
p442
(dp443
S'isArray'
p444
I00
sS'isElement'
p445
I00
sS'attrChildrenNames'
p446
(lp447
sS'isCompound'
p448
I00
sS'isMulti'
p449
I00
ssVcaching
p450
(dp451
S'isArray'
p452
I00
sS'isElement'
p453
I00
sS'isMulti'
p454
I00
sS'isCompound'
p455
I00
sS'attrChildrenNames'
p456
(lp457
ssVuvCoord.uCoord
p458
(dp459
S'isArray'
p460
I00
sS'attrParentLongName'
p461
VuvCoord
p462
sS'attrChildrenNames'
p463
(lp464
sS'isMulti'
p465
I00
sS'isCompound'
p466
I00
sS'isElement'
p467
I00
ssVnoiseUV
p468
(dp469
S'isArray'
p470
I00
sS'isElement'
p471
I00
sS'attrChildrenNames'
p472
(lp473
VnoiseUV.noiseU
p474
aVnoiseUV.noiseV
p475
asS'isCompound'
p476
I01
sS'isMulti'
p477
I00
ssVvertexUvOne
p478
(dp479
S'isArray'
p480
I00
sS'isElement'
p481
I00
sS'isMulti'
p482
I00
sS'attrChildrenNames'
p483
(lp484
VvertexUvOne.vertexUvOneU
p485
aVvertexUvOne.vertexUvOneV
p486
asS'isCompound'
p487
I01
ssVvertexUvThree.vertexUvThreeU
p488
(dp489
S'isArray'
p490
I00
sS'attrParentLongName'
p491
VvertexUvThree
p492
sS'attrChildrenNames'
p493
(lp494
sS'isMulti'
p495
I00
sS'isCompound'
p496
I00
sS'isElement'
p497
I00
ss.