(dp0
VparameterU
p1
(dp2
S'isArray'
p3
I00
sS'attrChildrenNames'
p4
(lp5
sS'isMulti'
p6
I00
sS'isCompound'
p7
I00
sS'attrChildrenLongNames'
p8
(lp9
sS'isElement'
p10
I00
ssVparameterV
p11
(dp12
S'isArray'
p13
I00
sS'attrChildrenNames'
p14
(lp15
sS'isMulti'
p16
I00
sS'isCompound'
p17
I00
sg8
(lp18
sS'isElement'
p19
I00
ssVresult.normalizedTangentV
p20
(dp21
S'isArray'
p22
I00
sS'attrParentLongName'
p23
Vresult
p24
sS'attrChildrenNames'
p25
(lp26
Vresult.normalizedTangentV.normalizedTangentVX
p27
aVresult.normalizedTangentV.normalizedTangentVY
p28
aVresult.normalizedTangentV.normalizedTangentVZ
p29
asS'isMulti'
p30
I00
sS'isCompound'
p31
I01
sg8
(lp32
Vresult.normalizedTangentV.normalizedTangentVX
p33
aVresult.normalizedTangentV.normalizedTangentVY
p34
aVresult.normalizedTangentV.normalizedTangentVZ
p35
asS'isElement'
p36
I00
ssVresult.tangentU
p37
(dp38
S'isArray'
p39
I00
sS'attrParentLongName'
p40
Vresult
p41
sS'attrChildrenNames'
p42
(lp43
Vresult.tangentU.tangentUx
p44
aVresult.tangentU.tangentUy
p45
aVresult.tangentU.tangentUz
p46
asS'isMulti'
p47
I00
sS'isCompound'
p48
I01
sg8
(lp49
Vresult.tangentU.tangentUx
p50
aVresult.tangentU.tangentUy
p51
aVresult.tangentU.tangentUz
p52
asS'isElement'
p53
I00
ssVresult.tangentV
p54
(dp55
S'isArray'
p56
I00
sS'attrParentLongName'
p57
Vresult
p58
sS'attrChildrenNames'
p59
(lp60
Vresult.tangentV.tangentVx
p61
aVresult.tangentV.tangentVy
p62
aVresult.tangentV.tangentVz
p63
asS'isMulti'
p64
I00
sS'isCompound'
p65
I01
sg8
(lp66
Vresult.tangentV.tangentVx
p67
aVresult.tangentV.tangentVy
p68
aVresult.tangentV.tangentVz
p69
asS'isElement'
p70
I00
ssVresult.normalizedNormal
p71
(dp72
S'isArray'
p73
I00
sS'attrParentLongName'
p74
Vresult
p75
sS'attrChildrenNames'
p76
(lp77
Vresult.normalizedNormal.normalizedNormalX
p78
aVresult.normalizedNormal.normalizedNormalY
p79
aVresult.normalizedNormal.normalizedNormalZ
p80
asS'isMulti'
p81
I00
sS'isCompound'
p82
I01
sg8
(lp83
Vresult.normalizedNormal.normalizedNormalX
p84
aVresult.normalizedNormal.normalizedNormalY
p85
aVresult.normalizedNormal.normalizedNormalZ
p86
asS'isElement'
p87
I00
ssVisHistoricallyInteresting
p88
(dp89
S'isArray'
p90
I00
sS'isElement'
p91
I00
sS'isMulti'
p92
I00
sS'isCompound'
p93
I00
sS'attrChildrenNames'
p94
(lp95
ssVresult.position
p96
(dp97
S'isArray'
p98
I00
sS'attrParentLongName'
p99
Vresult
p100
sS'attrChildrenNames'
p101
(lp102
Vresult.position.positionX
p103
aVresult.position.positionY
p104
aVresult.position.positionZ
p105
asS'isMulti'
p106
I00
sS'isCompound'
p107
I01
sg8
(lp108
Vresult.position.positionX
p109
aVresult.position.positionY
p110
aVresult.position.positionZ
p111
asS'isElement'
p112
I00
ssVresult.normalizedNormal.normalizedNormalX
p113
(dp114
S'isArray'
p115
I00
sS'attrParentLongName'
p116
Vresult.normalizedNormal
p117
sS'attrChildrenNames'
p118
(lp119
sS'isMulti'
p120
I00
sS'isCompound'
p121
I00
sg8
(lp122
sS'isElement'
p123
I00
ssVresult.normalizedNormal.normalizedNormalY
p124
(dp125
S'isArray'
p126
I00
sS'attrParentLongName'
p127
Vresult.normalizedNormal
p128
sS'attrChildrenNames'
p129
(lp130
sS'isMulti'
p131
I00
sS'isCompound'
p132
I00
sg8
(lp133
sS'isElement'
p134
I00
ssVresult.normalizedNormal.normalizedNormalZ
p135
(dp136
S'isArray'
p137
I00
sS'attrParentLongName'
p138
Vresult.normalizedNormal
p139
sS'attrChildrenNames'
p140
(lp141
sS'isMulti'
p142
I00
sS'isCompound'
p143
I00
sg8
(lp144
sS'isElement'
p145
I00
ssVresult.tangentV.tangentVy
p146
(dp147
S'isArray'
p148
I00
sS'attrParentLongName'
p149
Vresult.tangentV
p150
sS'attrChildrenNames'
p151
(lp152
sS'isMulti'
p153
I00
sS'isCompound'
p154
I00
sg8
(lp155
sS'isElement'
p156
I00
ssVresult.normalizedTangentV.normalizedTangentVX
p157
(dp158
S'isArray'
p159
I00
sS'attrParentLongName'
p160
Vresult.normalizedTangentV
p161
sS'attrChildrenNames'
p162
(lp163
sS'isMulti'
p164
I00
sS'isCompound'
p165
I00
sg8
(lp166
sS'isElement'
p167
I00
ssVresult.normalizedTangentV.normalizedTangentVY
p168
(dp169
S'isArray'
p170
I00
sS'attrParentLongName'
p171
Vresult.normalizedTangentV
p172
sS'attrChildrenNames'
p173
(lp174
sS'isMulti'
p175
I00
sS'isCompound'
p176
I00
sg8
(lp177
sS'isElement'
p178
I00
ssVresult.normalizedTangentV.normalizedTangentVZ
p179
(dp180
S'isArray'
p181
I00
sS'attrParentLongName'
p182
Vresult.normalizedTangentV
p183
sS'attrChildrenNames'
p184
(lp185
sS'isMulti'
p186
I00
sS'isCompound'
p187
I00
sg8
(lp188
sS'isElement'
p189
I00
ssVcaching
p190
(dp191
S'isArray'
p192
I00
sS'isElement'
p193
I00
sS'isMulti'
p194
I00
sS'attrChildrenNames'
p195
(lp196
sS'isCompound'
p197
I00
ssVinputSurface
p198
(dp199
S'isArray'
p200
I00
sS'attrChildrenNames'
p201
(lp202
sS'isMulti'
p203
I00
sS'isCompound'
p204
I00
sg8
(lp205
sS'isElement'
p206
I00
ssVnodeState
p207
(dp208
S'isArray'
p209
I00
sS'isElement'
p210
I00
sS'isMulti'
p211
I00
sS'attrChildrenNames'
p212
(lp213
sS'isCompound'
p214
I00
ssVresult.normalizedTangentU.normalizedTangentUZ
p215
(dp216
S'isArray'
p217
I00
sS'attrParentLongName'
p218
Vresult.normalizedTangentU
p219
sS'attrChildrenNames'
p220
(lp221
sS'isMulti'
p222
I00
sS'isCompound'
p223
I00
sg8
(lp224
sS'isElement'
p225
I00
ssVresult.tangentU.tangentUx
p226
(dp227
S'isArray'
p228
I00
sS'attrParentLongName'
p229
Vresult.tangentU
p230
sS'attrChildrenNames'
p231
(lp232
sS'isMulti'
p233
I00
sS'isCompound'
p234
I00
sg8
(lp235
sS'isElement'
p236
I00
ssVresult.normalizedTangentU.normalizedTangentUX
p237
(dp238
S'isArray'
p239
I00
sS'attrParentLongName'
p240
Vresult.normalizedTangentU
p241
sS'attrChildrenNames'
p242
(lp243
sS'isMulti'
p244
I00
sS'isCompound'
p245
I00
sg8
(lp246
sS'isElement'
p247
I00
ssVresult.normalizedTangentU.normalizedTangentUY
p248
(dp249
S'isArray'
p250
I00
sS'attrParentLongName'
p251
Vresult.normalizedTangentU
p252
sS'attrChildrenNames'
p253
(lp254
sS'isMulti'
p255
I00
sS'isCompound'
p256
I00
sg8
(lp257
sS'isElement'
p258
I00
ssVresult.normal.normalX
p259
(dp260
S'isArray'
p261
I00
sS'attrParentLongName'
p262
Vresult.normal
p263
sS'attrChildrenNames'
p264
(lp265
sS'isMulti'
p266
I00
sS'isCompound'
p267
I00
sg8
(lp268
sS'isElement'
p269
I00
ssVresult.position.positionX
p270
(dp271
S'isArray'
p272
I00
sS'attrParentLongName'
p273
Vresult.position
p274
sS'attrChildrenNames'
p275
(lp276
sS'isMulti'
p277
I00
sS'isCompound'
p278
I00
sg8
(lp279
sS'isElement'
p280
I00
ssVresult.normal
p281
(dp282
S'isArray'
p283
I00
sS'attrParentLongName'
p284
Vresult
p285
sS'attrChildrenNames'
p286
(lp287
Vresult.normal.normalX
p288
aVresult.normal.normalY
p289
aVresult.normal.normalZ
p290
asS'isMulti'
p291
I00
sS'isCompound'
p292
I01
sg8
(lp293
Vresult.normal.normalX
p294
aVresult.normal.normalY
p295
aVresult.normal.normalZ
p296
asS'isElement'
p297
I00
ssVresult.position.positionZ
p298
(dp299
S'isArray'
p300
I00
sS'attrParentLongName'
p301
Vresult.position
p302
sS'attrChildrenNames'
p303
(lp304
sS'isMulti'
p305
I00
sS'isCompound'
p306
I00
sg8
(lp307
sS'isElement'
p308
I00
ssVresult.normalizedTangentU
p309
(dp310
S'isArray'
p311
I00
sS'attrParentLongName'
p312
Vresult
p313
sS'attrChildrenNames'
p314
(lp315
Vresult.normalizedTangentU.normalizedTangentUX
p316
aVresult.normalizedTangentU.normalizedTangentUY
p317
aVresult.normalizedTangentU.normalizedTangentUZ
p318
asS'isMulti'
p319
I00
sS'isCompound'
p320
I01
sg8
(lp321
Vresult.normalizedTangentU.normalizedTangentUX
p322
aVresult.normalizedTangentU.normalizedTangentUY
p323
aVresult.normalizedTangentU.normalizedTangentUZ
p324
asS'isElement'
p325
I00
ssVturnOnPercentage
p326
(dp327
S'isArray'
p328
I00
sS'attrChildrenNames'
p329
(lp330
sS'isMulti'
p331
I00
sS'isCompound'
p332
I00
sg8
(lp333
sS'isElement'
p334
I00
ssVresult.position.positionY
p335
(dp336
S'isArray'
p337
I00
sS'attrParentLongName'
p338
Vresult.position
p339
sS'attrChildrenNames'
p340
(lp341
sS'isMulti'
p342
I00
sS'isCompound'
p343
I00
sg8
(lp344
sS'isElement'
p345
I00
ssVresult.tangentV.tangentVz
p346
(dp347
S'isArray'
p348
I00
sS'attrParentLongName'
p349
Vresult.tangentV
p350
sS'attrChildrenNames'
p351
(lp352
sS'isMulti'
p353
I00
sS'isCompound'
p354
I00
sg8
(lp355
sS'isElement'
p356
I00
ssVresult.normal.normalZ
p357
(dp358
S'isArray'
p359
I00
sS'attrParentLongName'
p360
Vresult.normal
p361
sS'attrChildrenNames'
p362
(lp363
sS'isMulti'
p364
I00
sS'isCompound'
p365
I00
sg8
(lp366
sS'isElement'
p367
I00
ssVresult.tangentU.tangentUy
p368
(dp369
S'isArray'
p370
I00
sS'attrParentLongName'
p371
Vresult.tangentU
p372
sS'attrChildrenNames'
p373
(lp374
sS'isMulti'
p375
I00
sS'isCompound'
p376
I00
sg8
(lp377
sS'isElement'
p378
I00
ssVresult.tangentU.tangentUz
p379
(dp380
S'isArray'
p381
I00
sS'attrParentLongName'
p382
Vresult.tangentU
p383
sS'attrChildrenNames'
p384
(lp385
sS'isMulti'
p386
I00
sS'isCompound'
p387
I00
sg8
(lp388
sS'isElement'
p389
I00
ssVresult.normal.normalY
p390
(dp391
S'isArray'
p392
I00
sS'attrParentLongName'
p393
Vresult.normal
p394
sS'attrChildrenNames'
p395
(lp396
sS'isMulti'
p397
I00
sS'isCompound'
p398
I00
sg8
(lp399
sS'isElement'
p400
I00
ssVresult.tangentV.tangentVx
p401
(dp402
S'isArray'
p403
I00
sS'attrParentLongName'
p404
Vresult.tangentV
p405
sS'attrChildrenNames'
p406
(lp407
sS'isMulti'
p408
I00
sS'isCompound'
p409
I00
sg8
(lp410
sS'isElement'
p411
I00
ssVresult
p412
(dp413
S'isArray'
p414
I00
sS'attrChildrenNames'
p415
(lp416
Vresult.position
p417
aVresult.normal
p418
aVresult.normalizedNormal
p419
aVresult.tangentU
p420
aVresult.normalizedTangentU
p421
aVresult.tangentV
p422
aVresult.normalizedTangentV
p423
asS'isMulti'
p424
I00
sS'isCompound'
p425
I01
sg8
(lp426
Vresult.position
p427
aVresult.normal
p428
aVresult.normalizedNormal
p429
aVresult.tangentU
p430
aVresult.normalizedTangentU
p431
aVresult.tangentV
p432
aVresult.normalizedTangentV
p433
asS'isElement'
p434
I00
ss.