(dp0
VrotateOrder
p1
(dp2
S'isArray'
p3
I00
sS'attrType'
p4
Venum
p5
sS'attrChildrenNames'
p6
(lp7
sS'isMulti'
p8
I00
sS'isCompound'
p9
I00
sS'isSimple'
p10
I01
sS'attrChildrenLongNames'
p11
(lp12
sS'isElement'
p13
I00
ssVtarget[1].targetParentMatrix
p14
(dp15
S'isArray'
p16
I00
sS'isSimple'
p17
I00
sS'attrChildrenLongNames'
p18
(lp19
ssVtarget[0].targetTranslate.targetTranslateZ
p20
(dp21
S'isArray'
p22
I00
sS'attrParentLongName'
p23
Vtarget[0].targetTranslate
p24
sS'attrChildrenNames'
p25
(lp26
sS'attrType'
p27
VdoubleLinear
p28
sS'isMulti'
p29
I00
sS'isWritable'
p30
NsS'isCompound'
p31
I00
sg17
I01
sg18
(lp32
sS'isElement'
p33
I00
ssVtarget[0].targetTranslate.targetTranslateY
p34
(dp35
S'isArray'
p36
I00
sS'attrParentLongName'
p37
Vtarget[0].targetTranslate
p38
sS'attrChildrenNames'
p39
(lp40
sg27
VdoubleLinear
p41
sS'isMulti'
p42
I00
sg30
NsS'isCompound'
p43
I00
sg17
I01
sg18
(lp44
sS'isElement'
p45
I00
ssVtarget[0].targetTranslate.targetTranslateX
p46
(dp47
S'isArray'
p48
I00
sS'attrParentLongName'
p49
Vtarget[0].targetTranslate
p50
sS'attrChildrenNames'
p51
(lp52
sg27
VdoubleLinear
p53
sS'isMulti'
p54
I00
sg30
NsS'isCompound'
p55
I00
sg17
I01
sg18
(lp56
sS'isElement'
p57
I00
ssVminTransLimitEnable.minTransYLimitEnable
p58
(dp59
S'isArray'
p60
I00
sg4
Vbool
p61
sS'isMulti'
p62
I00
sS'isCompound'
p63
I00
sg10
I01
sg11
(lp64
ssVrenderLayerInfo.renderLayerRenderable
p65
(dp66
S'attrParentLongName'
p67
VrenderLayerInfo
p68
ssVtarget.targetRotateTranslateZ
p69
(dp70
g67
Vtarget.targetRotateTranslate
p71
ssVtarget.targetRotateTranslateX
p72
(dp73
g67
Vtarget.targetRotateTranslate
p74
ssVtarget.targetRotateTranslateY
p75
(dp76
g67
Vtarget.targetRotateTranslate
p77
ssVupVector.upVectorX
p78
(dp79
S'isArray'
p80
I00
sS'attrParentLongName'
p81
VupVector
p82
sS'attrChildrenNames'
p83
(lp84
sg27
Vdouble
p85
sS'isMulti'
p86
I00
sS'isCompound'
p87
I00
sg17
I01
sg18
(lp88
sS'isElement'
p89
I00
ssVboundingBox.boundingBoxMin.boundingBoxMinY
p90
(dp91
S'isArray'
p92
I00
sS'attrParentLongName'
p93
VboundingBox.boundingBoxMin
p94
sS'attrChildrenNames'
p95
(lp96
sg4
VdoubleLinear
p97
sS'isMulti'
p98
I00
sS'isCompound'
p99
I00
sg10
I01
sg11
(lp100
sS'isElement'
p101
I00
ssVboundingBox.boundingBoxMin.boundingBoxMinX
p102
(dp103
S'isArray'
p104
I00
sS'attrParentLongName'
p105
VboundingBox.boundingBoxMin
p106
sS'attrChildrenNames'
p107
(lp108
sg4
VdoubleLinear
p109
sS'isMulti'
p110
I00
sS'isCompound'
p111
I00
sg10
I01
sg11
(lp112
sS'isElement'
p113
I00
ssVboundingBox.boundingBoxMin.boundingBoxMinZ
p114
(dp115
S'isArray'
p116
I00
sS'attrParentLongName'
p117
VboundingBox.boundingBoxMin
p118
sS'attrChildrenNames'
p119
(lp120
sg4
VdoubleLinear
p121
sS'isMulti'
p122
I00
sS'isCompound'
p123
I00
sg10
I01
sg11
(lp124
sS'isElement'
p125
I00
ssVminRotLimitEnable.minRotYLimitEnable
p126
(dp127
g60
I00
sg4
Vbool
p128
sg62
I00
sg63
I00
sg10
I01
sg11
(lp129
ssVselectHandle
p130
(dp131
S'isArray'
p132
I00
sg4
Vdouble3
p133
sS'attrChildrenNames'
p134
(lp135
VselectHandle.selectHandleX
p136
aVselectHandle.selectHandleY
p137
aVselectHandle.selectHandleZ
p138
asS'isMulti'
p139
I00
sS'isCompound'
p140
I01
sg10
I01
sg11
(lp141
VselectHandle.selectHandleX
p142
aVselectHandle.selectHandleY
p143
aVselectHandle.selectHandleZ
p144
asS'isElement'
p145
I00
ssVrotateQuaternion.rotateQuaternionZ
p146
(dp147
S'isArray'
p148
I00
sS'attrParentLongName'
p149
VrotateQuaternion
p150
sS'attrChildrenNames'
p151
(lp152
sg4
Vdouble
p153
sS'isMulti'
p154
I00
sS'isCompound'
p155
I00
sg10
I01
sg11
(lp156
sS'isElement'
p157
I00
ssVrenderLayerInfo[0].renderLayerId
p158
(dp159
S'isArray'
p160
I00
sS'attrParentLongName'
p161
VrenderLayerInfo[0]
p162
sS'attrChildrenNames'
p163
(lp164
sg10
I00
sg11
(lp165
sS'isElement'
p166
I00
ssVrotateQuaternion.rotateQuaternionX
p167
(dp168
S'isArray'
p169
I00
sS'attrParentLongName'
p170
VrotateQuaternion
p171
sS'attrChildrenNames'
p172
(lp173
sg4
Vdouble
p174
sS'isMulti'
p175
I00
sS'isCompound'
p176
I00
sg10
I01
sg11
(lp177
sS'isElement'
p178
I00
ssVrotateQuaternion.rotateQuaternionY
p179
(dp180
S'isArray'
p181
I00
sS'attrParentLongName'
p182
VrotateQuaternion
p183
sS'attrChildrenNames'
p184
(lp185
sg4
Vdouble
p186
sS'isMulti'
p187
I00
sS'isCompound'
p188
I00
sg10
I01
sg11
(lp189
sS'isElement'
p190
I00
ssVminScaleLimit.minScaleXLimit
p191
(dp192
g60
I00
sg4
Vdouble
p193
sg62
I00
sg63
I00
sg10
I01
sg11
(lp194
ssVrotateQuaternion.rotateQuaternionW
p195
(dp196
S'isArray'
p197
I00
sS'attrParentLongName'
p198
VrotateQuaternion
p199
sS'attrChildrenNames'
p200
(lp201
sg4
Vdouble
p202
sS'isMulti'
p203
I00
sS'isCompound'
p204
I00
sg10
I01
sg11
(lp205
sS'isElement'
p206
I00
ssVtemplatePath
p207
(dp208
S'isArray'
p209
I00
sg4
Vstring
p210
sS'attrChildrenNames'
p211
(lp212
sS'isMulti'
p213
I00
sS'isCompound'
p214
I00
sg10
I01
sg11
(lp215
sS'isElement'
p216
I00
ssVminTransLimit
p217
(dp218
g60
I00
sg4
Vdouble3
p219
sg62
I00
sg63
I01
sg10
I01
sg11
(lp220
VminTransLimit.minTransXLimit
p221
aVminTransLimit.minTransYLimit
p222
aVminTransLimit.minTransZLimit
p223
assVminRotLimit
p224
(dp225
g60
I00
sg4
Vdouble3
p226
sg62
I00
sg63
I01
sg10
I01
sg11
(lp227
VminRotLimit.minRotXLimit
p228
aVminRotLimit.minRotYLimit
p229
aVminRotLimit.minRotZLimit
p230
assVconstraintRotate
p231
(dp232
S'isArray'
p233
I00
sg27
Vdouble3
p234
sS'attrChildrenNames'
p235
(lp236
VconstraintRotate.constraintRotateX
p237
aVconstraintRotate.constraintRotateY
p238
aVconstraintRotate.constraintRotateZ
p239
asS'isMulti'
p240
I00
sS'isCompound'
p241
I01
sg17
I01
sg18
(lp242
VconstraintRotate.constraintRotateX
p243
aVconstraintRotate.constraintRotateY
p244
aVconstraintRotate.constraintRotateZ
p245
asS'isElement'
p246
I00
ssVmaxTransLimitEnable.maxTransYLimitEnable
p247
(dp248
g60
I00
sg4
Vbool
p249
sg62
I00
sg63
I00
sg10
I01
sg11
(lp250
ssVlockOutput
p251
(dp252
S'isArray'
p253
I00
sg4
Vbool
p254
sS'attrChildrenNames'
p255
(lp256
sS'isMulti'
p257
I00
sS'isCompound'
p258
I00
sg10
I01
sg11
(lp259
sS'isElement'
p260
I00
ssVconstraintParentInverseMatrix
p261
(dp262
S'isArray'
p263
I00
sg27
NsS'attrChildrenNames'
p264
(lp265
sS'isMulti'
p266
I00
sS'isCompound'
p267
I00
sg17
I00
sg18
(lp268
sS'isElement'
p269
I00
ssVmaxScaleLimitEnable.maxScaleYLimitEnable
p270
(dp271
g60
I00
sg4
Vbool
p272
sg62
I00
sg63
I00
sg10
I01
sg11
(lp273
ssVparentMatrix[0]
p274
(dp275
g60
I00
sg10
I00
sg11
(lp276
ssVinstObjGroups[0].objectGroups[0]
p277
(dp278
g60
I00
sg10
I00
sg11
(lp279
VinstObjGroups[0].objectGroups[0].objectGrpCompList
p280
aVinstObjGroups[0].objectGroups[0].objectGroupId
p281
aVinstObjGroups[0].objectGroups[0].objectGrpColor
p282
assVconstraintTranslate
p283
(dp284
S'isArray'
p285
I00
sg27
Vdouble3
p286
sS'attrChildrenNames'
p287
(lp288
VconstraintTranslate.constraintTranslateX
p289
aVconstraintTranslate.constraintTranslateY
p290
aVconstraintTranslate.constraintTranslateZ
p291
asS'isMulti'
p292
I00
sS'isCompound'
p293
I01
sg17
I01
sg18
(lp294
VconstraintTranslate.constraintTranslateX
p295
aVconstraintTranslate.constraintTranslateY
p296
aVconstraintTranslate.constraintTranslateZ
p297
asS'isElement'
p298
I00
ssVdynamics
p299
(dp300
S'isArray'
p301
I00
sg4
Vbool
p302
sS'attrChildrenNames'
p303
(lp304
sS'isMulti'
p305
I00
sS'isCompound'
p306
I00
sg10
I01
sg11
(lp307
sS'isElement'
p308
I00
ssVmaxTransLimit.maxTransZLimit
p309
(dp310
g60
I00
sg4
VdoubleLinear
p311
sg62
I00
sg63
I00
sg10
I01
sg11
(lp312
ssVoffset.offsetZ
p313
(dp314
S'isArray'
p315
I00
sS'attrParentLongName'
p316
Voffset
p317
sS'attrChildrenNames'
p318
(lp319
sg4
VdoubleAngle
p320
sS'isMulti'
p321
I00
sS'isCompound'
p322
I00
sg10
I01
sg11
(lp323
sS'isElement'
p324
I00
ssVoffset.offsetX
p325
(dp326
S'isArray'
p327
I00
sS'attrParentLongName'
p328
Voffset
p329
sS'attrChildrenNames'
p330
(lp331
sg4
VdoubleAngle
p332
sS'isMulti'
p333
I00
sS'isCompound'
p334
I00
sg10
I01
sg11
(lp335
sS'isElement'
p336
I00
ssVoffset.offsetY
p337
(dp338
S'isArray'
p339
I00
sS'attrParentLongName'
p340
Voffset
p341
sS'attrChildrenNames'
p342
(lp343
sg4
VdoubleAngle
p344
sS'isMulti'
p345
I00
sS'isCompound'
p346
I00
sg10
I01
sg11
(lp347
sS'isElement'
p348
I00
ssVrotatePivot
p349
(dp350
S'isArray'
p351
I00
sg4
Vdouble3
p352
sS'attrChildrenNames'
p353
(lp354
VrotatePivot.rotatePivotX
p355
aVrotatePivot.rotatePivotY
p356
aVrotatePivot.rotatePivotZ
p357
asS'isMulti'
p358
I00
sS'isCompound'
p359
I01
sg10
I01
sg11
(lp360
VrotatePivot.rotatePivotX
p361
aVrotatePivot.rotatePivotY
p362
aVrotatePivot.rotatePivotZ
p363
asS'isElement'
p364
I00
ssVtemplate
p365
(dp366
S'isArray'
p367
I00
sg4
Vbool
p368
sS'attrChildrenNames'
p369
(lp370
sS'isMulti'
p371
I00
sS'isCompound'
p372
I00
sg10
I01
sg11
(lp373
sS'isElement'
p374
I00
ssVtarget[2]
p375
(dp376
g16
I00
sg17
I00
sg18
(lp377
Vtarget[2].targetTranslate
p378
aVtarget[2].targetRotatePivot
p379
aVtarget[2].targetRotateTranslate
p380
aVtarget[2].targetParentMatrix
p381
aVtarget[2].targetWeight
p382
assVparentInverseMatrix[1]
p383
(dp384
g60
I00
sg10
I00
sg11
(lp385
ssg221
(dp386
g60
I00
sg4
VdoubleLinear
p387
sg62
I00
sg63
I00
sg10
I01
sg11
(lp388
ssVdisplayScalePivot
p389
(dp390
S'isArray'
p391
I00
sg4
Vbool
p392
sS'attrChildrenNames'
p393
(lp394
sS'isMulti'
p395
I00
sS'isCompound'
p396
I00
sg10
I01
sg11
(lp397
sS'isElement'
p398
I00
ssVtarget[0].targetRotateTranslate
p399
(dp400
S'isArray'
p401
I00
sS'attrParentLongName'
p402
Vtarget[0]
p403
sS'attrChildrenNames'
p404
(lp405
Vtarget[0].targetRotateTranslate.targetRotateTranslateX
p406
aVtarget[0].targetRotateTranslate.targetRotateTranslateY
p407
aVtarget[0].targetRotateTranslate.targetRotateTranslateZ
p408
asg27
Vdouble3
p409
sS'isMulti'
p410
I00
sS'isCompound'
p411
I01
sg17
I01
sg18
(lp412
Vtarget[0].targetRotateTranslate.targetRotateTranslateX
p413
aVtarget[0].targetRotateTranslate.targetRotateTranslateY
p414
aVtarget[0].targetRotateTranslate.targetRotateTranslateZ
p415
asS'isElement'
p416
I00
ssVmentalRayControls.miHide
p417
(dp418
S'isArray'
p419
I00
sS'attrParentLongName'
p420
VmentalRayControls
p421
sS'attrChildrenNames'
p422
(lp423
sg4
Vbool
p424
sS'isMulti'
p425
I00
sS'isCompound'
p426
I00
sg10
I01
sg11
(lp427
sS'isElement'
p428
I00
ssVinstObjGroups.objectGroups
p429
(dp430
g67
VinstObjGroups
p431
ssVpublishedNodeInfo
p432
(dp433
S'isArray'
p434
I01
sS'isElement'
p435
I00
sS'isMulti'
p436
I01
sg10
I00
sg4
VTdataCompound
p437
ssVdrawOverride.overrideTexturing
p438
(dp439
S'isArray'
p440
I00
sS'attrParentLongName'
p441
VdrawOverride
p442
sS'attrChildrenNames'
p443
(lp444
sg4
Vbool
p445
sS'isMulti'
p446
I00
sS'isCompound'
p447
I00
sg10
I01
sg11
(lp448
sS'isElement'
p449
I00
ssg381
(dp450
g16
I00
sg17
I00
sg18
(lp451
ssVconstraintTranslate.constraintTranslateZ
p452
(dp453
S'isArray'
p454
I00
sS'attrParentLongName'
p455
VconstraintTranslate
p456
sS'attrChildrenNames'
p457
(lp458
sg27
VdoubleLinear
p459
sS'isMulti'
p460
I00
sg30
NsS'isCompound'
p461
I00
sg17
I01
sg18
(lp462
sS'isElement'
p463
I00
ssVconstraintRotatePivot
p464
(dp465
S'isArray'
p466
I00
sg27
Vdouble3
p467
sS'attrChildrenNames'
p468
(lp469
VconstraintRotatePivot.constraintRotatePivotX
p470
aVconstraintRotatePivot.constraintRotatePivotY
p471
aVconstraintRotatePivot.constraintRotatePivotZ
p472
asS'isMulti'
p473
I00
sS'isCompound'
p474
I01
sg17
I01
sg18
(lp475
VconstraintRotatePivot.constraintRotatePivotX
p476
aVconstraintRotatePivot.constraintRotatePivotY
p477
aVconstraintRotatePivot.constraintRotatePivotZ
p478
asS'isElement'
p479
I00
ssVconstraintTranslate.constraintTranslateX
p480
(dp481
S'isArray'
p482
I00
sS'attrParentLongName'
p483
VconstraintTranslate
p484
sS'attrChildrenNames'
p485
(lp486
sg27
VdoubleLinear
p487
sS'isMulti'
p488
I00
sg30
NsS'isCompound'
p489
I00
sg17
I01
sg18
(lp490
sS'isElement'
p491
I00
ssVconstraintTranslate.constraintTranslateY
p492
(dp493
S'isArray'
p494
I00
sS'attrParentLongName'
p495
VconstraintTranslate
p496
sS'attrChildrenNames'
p497
(lp498
sg27
VdoubleLinear
p499
sS'isMulti'
p500
I00
sg30
NsS'isCompound'
p501
I00
sg17
I01
sg18
(lp502
sS'isElement'
p503
I00
ssVdisplayHandle
p504
(dp505
S'isArray'
p506
I00
sg4
Vbool
p507
sS'attrChildrenNames'
p508
(lp509
sS'isMulti'
p510
I00
sS'isCompound'
p511
I00
sg10
I01
sg11
(lp512
sS'isElement'
p513
I00
ssVminRotLimitEnable.minRotXLimitEnable
p514
(dp515
g60
I00
sg4
Vbool
p516
sg62
I00
sg63
I00
sg10
I01
sg11
(lp517
ssVoffset
p518
(dp519
S'isArray'
p520
I00
sg4
Vdouble3
p521
sS'attrChildrenNames'
p522
(lp523
Voffset.offsetX
p524
aVoffset.offsetY
p525
aVoffset.offsetZ
p526
asS'isMulti'
p527
I00
sS'isCompound'
p528
I01
sg10
I01
sg11
(lp529
Voffset.offsetX
p530
aVoffset.offsetY
p531
aVoffset.offsetZ
p532
asS'isElement'
p533
I00
ssVtarget.targetRotateTranslate
p534
(dp535
S'attrParentLongName'
p536
Vtarget
p537
ssVrotateQuaternion
p538
(dp539
S'isArray'
p540
I00
sg4
Vdouble4
p541
sS'attrChildrenNames'
p542
(lp543
VrotateQuaternion.rotateQuaternionX
p544
aVrotateQuaternion.rotateQuaternionY
p545
aVrotateQuaternion.rotateQuaternionZ
p546
aVrotateQuaternion.rotateQuaternionW
p547
asS'isMulti'
p548
I00
sS'isCompound'
p549
I01
sg10
I00
sg11
(lp550
VrotateQuaternion.rotateQuaternionX
p551
aVrotateQuaternion.rotateQuaternionY
p552
aVrotateQuaternion.rotateQuaternionZ
p553
aVrotateQuaternion.rotateQuaternionW
p554
asS'isElement'
p555
I00
ssg380
(dp556
g16
I00
sg17
I00
sg18
(lp557
Vtarget[2].targetRotateTranslate.targetRotateTranslateX
p558
aVtarget[2].targetRotateTranslate.targetRotateTranslateY
p559
aVtarget[2].targetRotateTranslate.targetRotateTranslateZ
p560
assVtransMinusRotatePivot.transMinusRotatePivotX
p561
(dp562
S'isArray'
p563
I00
sS'attrParentLongName'
p564
VtransMinusRotatePivot
p565
sS'attrChildrenNames'
p566
(lp567
sg4
VdoubleLinear
p568
sS'isMulti'
p569
I00
sS'isCompound'
p570
I00
sg10
I01
sg11
(lp571
sS'isElement'
p572
I00
ssVtransMinusRotatePivot.transMinusRotatePivotY
p573
(dp574
S'isArray'
p575
I00
sS'attrParentLongName'
p576
VtransMinusRotatePivot
p577
sS'attrChildrenNames'
p578
(lp579
sg4
VdoubleLinear
p580
sS'isMulti'
p581
I00
sS'isCompound'
p582
I00
sg10
I01
sg11
(lp583
sS'isElement'
p584
I00
ssVrotationInterpolation
p585
(dp586
S'isArray'
p587
I00
sg4
Venum
p588
sS'attrChildrenNames'
p589
(lp590
sS'isMulti'
p591
I00
sS'isCompound'
p592
I00
sg10
I01
sg11
(lp593
sS'isElement'
p594
I00
ssVminScaleLimit.minScaleYLimit
p595
(dp596
g60
I00
sg4
Vdouble
p597
sg62
I00
sg63
I00
sg10
I01
sg11
(lp598
ssVinstObjGroups[2].objectGroups
p599
(dp600
S'isArray'
p601
I01
sS'isSimple'
p602
I00
ssVtarget.targetTranslateY
p603
(dp604
g67
Vtarget.targetTranslate
p605
ssVtarget.targetTranslateX
p606
(dp607
g67
Vtarget.targetTranslate
p608
ssVtarget.targetTranslateZ
p609
(dp610
g67
Vtarget.targetTranslate
p611
ssVtarget[1].targetRotateTranslate.targetRotateTranslateY
p612
(dp613
g16
I00
sg17
I00
sg18
(lp614
ssVshear.shearXZ
p615
(dp616
S'isArray'
p617
I00
sS'attrParentLongName'
p618
Vshear
p619
sS'attrChildrenNames'
p620
(lp621
sg4
Vdouble
p622
sS'isMulti'
p623
I00
sS'isCompound'
p624
I00
sg10
I01
sg11
(lp625
sS'isElement'
p626
I00
ssVshear.shearXY
p627
(dp628
S'isArray'
p629
I00
sS'attrParentLongName'
p630
Vshear
p631
sS'attrChildrenNames'
p632
(lp633
sg4
Vdouble
p634
sS'isMulti'
p635
I00
sS'isCompound'
p636
I00
sg10
I01
sg11
(lp637
sS'isElement'
p638
I00
ssVvisibility
p639
(dp640
S'isArray'
p641
I00
sg4
Vbool
p642
sS'attrChildrenNames'
p643
(lp644
sS'isMulti'
p645
I00
sS'isCompound'
p646
I00
sg10
I01
sg11
(lp647
sS'isElement'
p648
I00
ssVenableRestPosition
p649
(dp650
S'isArray'
p651
I00
sg4
Vbool
p652
sS'attrChildrenNames'
p653
(lp654
sS'isMulti'
p655
I00
sS'isCompound'
p656
I00
sg10
I01
sg11
(lp657
sS'isElement'
p658
I00
ssVrenderInfo.layerOverrideColor
p659
(dp660
S'isArray'
p661
I00
sS'attrParentLongName'
p662
VrenderInfo
p663
sS'attrChildrenNames'
p664
(lp665
sg4
Vbyte
p666
sS'isMulti'
p667
I00
sS'isCompound'
p668
I00
sg10
I00
sg11
(lp669
sS'isElement'
p670
I00
ssVdisplayRotatePivot
p671
(dp672
S'isArray'
p673
I00
sg4
Vbool
p674
sS'attrChildrenNames'
p675
(lp676
sS'isMulti'
p677
I00
sS'isCompound'
p678
I00
sg10
I01
sg11
(lp679
sS'isElement'
p680
I00
ssVmaxTransLimitEnable.maxTransXLimitEnable
p681
(dp682
g60
I00
sg4
Vbool
p683
sg62
I00
sg63
I00
sg10
I01
sg11
(lp684
ssVinstObjGroups[0]
p685
(dp686
g60
I00
sg10
I00
sg11
(lp687
VinstObjGroups[0].objectGroups
p688
assVmentalRayControls.miCaustic
p689
(dp690
S'isArray'
p691
I00
sS'attrParentLongName'
p692
VmentalRayControls
p693
sS'attrChildrenNames'
p694
(lp695
sg4
Venum
p696
sS'isMulti'
p697
I00
sS'isCompound'
p698
I00
sg10
I01
sg11
(lp699
sS'isElement'
p700
I00
ssVpublishedNodeInfo[0].isHierarchicalNode
p701
(dp702
S'isArray'
p703
I00
sS'attrParentLongName'
p704
VpublishedNodeInfo[0]
p705
sS'attrChildrenNames'
p706
(lp707
sg10
I00
sg11
(lp708
sS'isElement'
p709
I00
ssVboundingBox.boundingBoxSize.boundingBoxSizeY
p710
(dp711
S'isArray'
p712
I00
sS'attrParentLongName'
p713
VboundingBox.boundingBoxSize
p714
sS'attrChildrenNames'
p715
(lp716
sg4
VdoubleLinear
p717
sS'isMulti'
p718
I00
sS'isCompound'
p719
I00
sg10
I01
sg11
(lp720
sS'isElement'
p721
I00
ssVboundingBox.boundingBoxSize.boundingBoxSizeX
p722
(dp723
S'isArray'
p724
I00
sS'attrParentLongName'
p725
VboundingBox.boundingBoxSize
p726
sS'attrChildrenNames'
p727
(lp728
sg4
VdoubleLinear
p729
sS'isMulti'
p730
I00
sS'isCompound'
p731
I00
sg10
I01
sg11
(lp732
sS'isElement'
p733
I00
ssVmentalRayControls.miExportGeoShader
p734
(dp735
S'isArray'
p736
I00
sS'attrParentLongName'
p737
VmentalRayControls
p738
sS'attrChildrenNames'
p739
(lp740
sg4
Vbool
p741
sS'isMulti'
p742
I00
sS'isCompound'
p743
I00
sg10
I01
sg11
(lp744
sS'isElement'
p745
I00
ssVboundingBox.boundingBoxSize.boundingBoxSizeZ
p746
(dp747
S'isArray'
p748
I00
sS'attrParentLongName'
p749
VboundingBox.boundingBoxSize
p750
sS'attrChildrenNames'
p751
(lp752
sg4
VdoubleLinear
p753
sS'isMulti'
p754
I00
sS'isCompound'
p755
I00
sg10
I01
sg11
(lp756
sS'isElement'
p757
I00
ssVtemplateName
p758
(dp759
S'isArray'
p760
I00
sg4
Vstring
p761
sS'attrChildrenNames'
p762
(lp763
sS'isMulti'
p764
I00
sS'isCompound'
p765
I00
sg10
I01
sg11
(lp766
sS'isElement'
p767
I00
ssVghostingControl
p768
(dp769
S'isArray'
p770
I00
sg4
Venum
p771
sS'attrChildrenNames'
p772
(lp773
sS'isMulti'
p774
I00
sS'isCompound'
p775
I00
sg10
I01
sg11
(lp776
sS'isElement'
p777
I00
ssVtarget[1].targetTranslate.targetTranslateZ
p778
(dp779
g16
I00
sg17
I00
sg18
(lp780
ssVminScaleLimitEnable
p781
(dp782
g60
I00
sg4
VTdataCompound
p783
sg62
I00
sg10
I00
sg11
(lp784
VminScaleLimitEnable.minScaleXLimitEnable
p785
aVminScaleLimitEnable.minScaleYLimitEnable
p786
aVminScaleLimitEnable.minScaleZLimitEnable
p787
assVtarget[1].targetTranslate.targetTranslateX
p788
(dp789
g16
I00
sg17
I00
sg18
(lp790
ssVtarget[1].targetTranslate.targetTranslateY
p791
(dp792
g16
I00
sg17
I00
sg18
(lp793
ssVdrawOverride.overrideDisplayType
p794
(dp795
S'isArray'
p796
I00
sS'attrParentLongName'
p797
VdrawOverride
p798
sS'attrChildrenNames'
p799
(lp800
sg4
Venum
p801
sS'isMulti'
p802
I00
sS'isCompound'
p803
I00
sg10
I01
sg11
(lp804
sS'isElement'
p805
I00
ssg382
(dp806
g16
I00
sg17
I00
sg18
(lp807
ssVnodeState
p808
(dp809
S'isArray'
p810
I00
sg4
Venum
p811
sS'attrChildrenNames'
p812
(lp813
sS'isMulti'
p814
I00
sS'isCompound'
p815
I00
sg10
I01
sg11
(lp816
sS'isElement'
p817
I00
ssVminRotLimitEnable
p818
(dp819
g60
I00
sg4
VTdataCompound
p820
sg62
I00
sg10
I00
sg11
(lp821
g514
ag126
aVminRotLimitEnable.minRotZLimitEnable
p822
assVworldMatrix[1]
p823
(dp824
g60
I00
sg10
I00
sg11
(lp825
ssVscalePivotTranslate.scalePivotTranslateZ
p826
(dp827
S'isArray'
p828
I00
sS'attrParentLongName'
p829
VscalePivotTranslate
p830
sS'attrChildrenNames'
p831
(lp832
sg4
VdoubleLinear
p833
sS'isMulti'
p834
I00
sS'isCompound'
p835
I00
sg10
I01
sg11
(lp836
sS'isElement'
p837
I00
ssVworldUpType
p838
(dp839
S'isArray'
p840
I00
sg27
Venum
p841
sS'attrChildrenNames'
p842
(lp843
sS'isMulti'
p844
I00
sS'isCompound'
p845
I00
sg17
I01
sg18
(lp846
sS'isElement'
p847
I00
ssVscalePivotTranslate.scalePivotTranslateX
p848
(dp849
S'isArray'
p850
I00
sS'attrParentLongName'
p851
VscalePivotTranslate
p852
sS'attrChildrenNames'
p853
(lp854
sg4
VdoubleLinear
p855
sS'isMulti'
p856
I00
sS'isCompound'
p857
I00
sg10
I01
sg11
(lp858
sS'isElement'
p859
I00
ssVisHierarchicalConnection
p860
(dp861
g60
I01
sg4
VTdataCompound
p862
sg10
I00
sg62
I01
ssVminTransLimitEnable
p863
(dp864
g60
I00
sg4
VTdataCompound
p865
sg62
I00
sg10
I00
sg11
(lp866
VminTransLimitEnable.minTransXLimitEnable
p867
ag58
aVminTransLimitEnable.minTransZLimitEnable
p868
assVparentInverseMatrix[2]
p869
(dp870
g601
I00
sg602
I00
sS'attrChildrenLongNames'
p871
(lp872
ssVghostFrames
p873
(dp874
S'isArray'
p875
I00
sg4
NsS'attrChildrenNames'
p876
(lp877
sS'isMulti'
p878
I00
sS'isCompound'
p879
I00
sg10
I00
sg11
(lp880
sS'isElement'
p881
I00
ssVinstObjGroups[0].objectGroups[0].objectGrpColor
p882
(dp883
S'isArray'
p884
I00
sS'attrParentLongName'
p885
VinstObjGroups[0].objectGroups[0]
p886
sS'attrChildrenNames'
p887
(lp888
sg10
I00
sg11
(lp889
sS'isElement'
p890
I00
ssVdrawOverride.overrideColor
p891
(dp892
S'isArray'
p893
I00
sS'attrParentLongName'
p894
VdrawOverride
p895
sS'attrChildrenNames'
p896
(lp897
sg4
Vbyte
p898
sS'isMulti'
p899
I00
sS'isCompound'
p900
I00
sg10
I00
sg11
(lp901
sS'isElement'
p902
I00
ssVrenderLayerInfo.renderLayerId
p903
(dp904
g67
VrenderLayerInfo
p905
ssVrenderLayerInfo[1].renderLayerColor
p906
(dp907
g60
I00
sg10
I00
sg11
(lp908
ssVtarget.targetParentMatrix
p909
(dp910
g536
Vtarget
p911
ssVcustomTreatment
p912
(dp913
S'isArray'
p914
I00
sg4
Vstring
p915
sS'attrChildrenNames'
p916
(lp917
sS'isMulti'
p918
I00
sS'isCompound'
p919
I00
sg10
I01
sg11
(lp920
sS'isElement'
p921
I00
ssVshear
p922
(dp923
S'isArray'
p924
I00
sg4
Vdouble3
p925
sS'attrChildrenNames'
p926
(lp927
Vshear.shearXY
p928
aVshear.shearXZ
p929
aVshear.shearYZ
p930
asS'isMulti'
p931
I00
sS'isCompound'
p932
I01
sg10
I01
sg11
(lp933
Vshear.shearXY
p934
aVshear.shearXZ
p935
aVshear.shearYZ
p936
asS'isElement'
p937
I00
ssVinstObjGroups.objectGroups.objectGrpColor
p938
(dp939
g67
VinstObjGroups.objectGroups
p940
ssVcreationDate
p941
(dp942
S'isArray'
p943
I00
sg4
Vstring
p944
sS'attrChildrenNames'
p945
(lp946
sS'isMulti'
p947
I00
sS'isCompound'
p948
I00
sg10
I01
sg11
(lp949
sS'isElement'
p950
I00
ssVmentalRayControls.miDeriveFromMaya
p951
(dp952
S'isArray'
p953
I00
sS'attrParentLongName'
p954
VmentalRayControls
p955
sS'attrChildrenNames'
p956
(lp957
sg4
Vbool
p958
sS'isMulti'
p959
I00
sS'isCompound'
p960
I00
sg10
I01
sg11
(lp961
sS'isElement'
p962
I00
ssVisHierarchicalConnection[1]
p963
(dp964
g60
I00
sg10
I00
sg11
(lp965
ssg230
(dp966
g60
I00
sg4
VdoubleAngle
p967
sg62
I00
sg63
I00
sg10
I01
sg11
(lp968
ssVrotatePivot.rotatePivotZ
p969
(dp970
S'isArray'
p971
I00
sS'attrParentLongName'
p972
VrotatePivot
p973
sS'attrChildrenNames'
p974
(lp975
sg4
VdoubleLinear
p976
sS'isMulti'
p977
I00
sS'isCompound'
p978
I00
sg10
I01
sg11
(lp979
sS'isElement'
p980
I00
ssVrotatePivot.rotatePivotX
p981
(dp982
S'isArray'
p983
I00
sS'attrParentLongName'
p984
VrotatePivot
p985
sS'attrChildrenNames'
p986
(lp987
sg4
VdoubleLinear
p988
sS'isMulti'
p989
I00
sS'isCompound'
p990
I00
sg10
I01
sg11
(lp991
sS'isElement'
p992
I00
ssVrotatePivot.rotatePivotY
p993
(dp994
S'isArray'
p995
I00
sS'attrParentLongName'
p996
VrotatePivot
p997
sS'attrChildrenNames'
p998
(lp999
sg4
VdoubleLinear
p1000
sS'isMulti'
p1001
I00
sS'isCompound'
p1002
I00
sg10
I01
sg11
(lp1003
sS'isElement'
p1004
I00
ssVtarget[0].targetTranslate
p1005
(dp1006
S'isArray'
p1007
I00
sS'attrParentLongName'
p1008
Vtarget[0]
p1009
sS'attrChildrenNames'
p1010
(lp1011
Vtarget[0].targetTranslate.targetTranslateX
p1012
aVtarget[0].targetTranslate.targetTranslateY
p1013
aVtarget[0].targetTranslate.targetTranslateZ
p1014
asg27
Vdouble3
p1015
sS'isMulti'
p1016
I00
sS'isCompound'
p1017
I01
sg17
I01
sg18
(lp1018
Vtarget[0].targetTranslate.targetTranslateX
p1019
aVtarget[0].targetTranslate.targetTranslateY
p1020
aVtarget[0].targetTranslate.targetTranslateZ
p1021
asS'isElement'
p1022
I00
ssVworldMatrix[2]
p1023
(dp1024
g601
I00
sg602
I00
sg871
(lp1025
ssVtarget[2].targetRotatePivot.targetRotatePivotY
p1026
(dp1027
g16
I00
sg17
I00
sg18
(lp1028
ssVtarget[2].targetRotatePivot.targetRotatePivotX
p1029
(dp1030
g16
I00
sg17
I00
sg18
(lp1031
ssVtarget[2].targetRotatePivot.targetRotatePivotZ
p1032
(dp1033
g16
I00
sg17
I00
sg18
(lp1034
ssVinstObjGroups[1].objectGroups
p1035
(dp1036
g60
I01
sg10
I00
ssVmatrix
p1037
(dp1038
S'isArray'
p1039
I00
sg4
Vmatrix
p1040
sS'attrChildrenNames'
p1041
(lp1042
sS'isMulti'
p1043
I00
sS'isCompound'
p1044
I00
sg10
I00
sg11
(lp1045
sS'isElement'
p1046
I00
ssVworldInverseMatrix[2]
p1047
(dp1048
g601
I00
sg602
I00
sg871
(lp1049
ssVselectHandle.selectHandleX
p1050
(dp1051
S'isArray'
p1052
I00
sS'attrParentLongName'
p1053
VselectHandle
p1054
sS'attrChildrenNames'
p1055
(lp1056
sg4
VdoubleLinear
p1057
sS'isMulti'
p1058
I00
sS'isCompound'
p1059
I00
sg10
I01
sg11
(lp1060
sS'isElement'
p1061
I00
ssVselectHandle.selectHandleY
p1062
(dp1063
S'isArray'
p1064
I00
sS'attrParentLongName'
p1065
VselectHandle
p1066
sS'attrChildrenNames'
p1067
(lp1068
sg4
VdoubleLinear
p1069
sS'isMulti'
p1070
I00
sS'isCompound'
p1071
I00
sg10
I01
sg11
(lp1072
sS'isElement'
p1073
I00
ssVselectHandle.selectHandleZ
p1074
(dp1075
S'isArray'
p1076
I00
sS'attrParentLongName'
p1077
VselectHandle
p1078
sS'attrChildrenNames'
p1079
(lp1080
sg4
VdoubleLinear
p1081
sS'isMulti'
p1082
I00
sS'isCompound'
p1083
I00
sg10
I01
sg11
(lp1084
sS'isElement'
p1085
I00
ssVmaxRotLimitEnable.maxRotZLimitEnable
p1086
(dp1087
g60
I00
sg4
Vbool
p1088
sg62
I00
sg63
I00
sg10
I01
sg11
(lp1089
ssVworldMatrix
p1090
(dp1091
S'isArray'
p1092
I01
sS'isElement'
p1093
I00
sS'isMulti'
p1094
I01
sg10
I00
sg4
Vmatrix
p1095
ssVupVector.upVectorY
p1096
(dp1097
S'isArray'
p1098
I00
sS'attrParentLongName'
p1099
VupVector
p1100
sS'attrChildrenNames'
p1101
(lp1102
sg27
Vdouble
p1103
sS'isMulti'
p1104
I00
sg30
NsS'isCompound'
p1105
I00
sg17
I01
sg18
(lp1106
sS'isElement'
p1107
I00
ssVupVector.upVectorZ
p1108
(dp1109
S'isArray'
p1110
I00
sS'attrParentLongName'
p1111
VupVector
p1112
sS'attrChildrenNames'
p1113
(lp1114
sg27
Vdouble
p1115
sS'isMulti'
p1116
I00
sg30
NsS'isCompound'
p1117
I00
sg17
I01
sg18
(lp1118
sS'isElement'
p1119
I00
ssVcontainerType
p1120
(dp1121
S'isArray'
p1122
I00
sg4
Vstring
p1123
sS'attrChildrenNames'
p1124
(lp1125
sS'isMulti'
p1126
I00
sS'isCompound'
p1127
I00
sg10
I01
sg11
(lp1128
sS'isElement'
p1129
I00
ssVminScaleLimit.minScaleZLimit
p1130
(dp1131
g60
I00
sg4
Vdouble
p1132
sg62
I00
sg63
I00
sg10
I01
sg11
(lp1133
ssVparentInverseMatrix
p1134
(dp1135
S'isArray'
p1136
I01
sS'isElement'
p1137
I00
sS'isMulti'
p1138
I01
sg10
I00
sg4
Vmatrix
p1139
ssg379
(dp1140
g16
I00
sg17
I00
sg18
(lp1141
g1029
ag1026
ag1032
assVrenderInfo.layerRenderable
p1142
(dp1143
S'isArray'
p1144
I00
sS'attrParentLongName'
p1145
VrenderInfo
p1146
sS'attrChildrenNames'
p1147
(lp1148
sg4
Vbool
p1149
sS'isMulti'
p1150
I00
sS'isCompound'
p1151
I00
sg10
I01
sg11
(lp1152
sS'isElement'
p1153
I00
ssVrmbCommand
p1154
(dp1155
g60
I00
sg4
Vstring
p1156
sg62
I00
sg63
I00
sg10
I01
sg11
(lp1157
ssVghostCustomSteps.ghostPreSteps
p1158
(dp1159
S'isArray'
p1160
I00
sS'attrParentLongName'
p1161
VghostCustomSteps
p1162
sS'attrChildrenNames'
p1163
(lp1164
sg4
Vlong
p1165
sS'isMulti'
p1166
I00
sS'isCompound'
p1167
I00
sg10
I01
sg11
(lp1168
sS'isElement'
p1169
I00
ssVpublishedNodeInfo[1].publishedNodeType
p1170
(dp1171
g60
I00
sg10
I00
sg11
(lp1172
ssVgeometry
p1173
(dp1174
S'isArray'
p1175
I00
sg4
NsS'attrChildrenNames'
p1176
(lp1177
sS'isMulti'
p1178
I00
sS'isCompound'
p1179
I00
sg10
I00
sg11
(lp1180
sS'isElement'
p1181
I00
ssVconstraintRotateTranslate
p1182
(dp1183
S'isArray'
p1184
I00
sg27
Vdouble3
p1185
sS'attrChildrenNames'
p1186
(lp1187
VconstraintRotateTranslate.constraintRotateTranslateX
p1188
aVconstraintRotateTranslate.constraintRotateTranslateY
p1189
aVconstraintRotateTranslate.constraintRotateTranslateZ
p1190
asS'isMulti'
p1191
I00
sS'isCompound'
p1192
I01
sg17
I01
sg18
(lp1193
VconstraintRotateTranslate.constraintRotateTranslateX
p1194
aVconstraintRotateTranslate.constraintRotateTranslateY
p1195
aVconstraintRotateTranslate.constraintRotateTranslateZ
p1196
asS'isElement'
p1197
I00
ssVtarget.targetWeight
p1198
(dp1199
g536
Vtarget
p1200
ssVshear.shearYZ
p1201
(dp1202
S'isArray'
p1203
I00
sS'attrParentLongName'
p1204
Vshear
p1205
sS'attrChildrenNames'
p1206
(lp1207
sg4
Vdouble
p1208
sS'isMulti'
p1209
I00
sS'isCompound'
p1210
I00
sg10
I01
sg11
(lp1211
sS'isElement'
p1212
I00
ssg228
(dp1213
g60
I00
sg4
VdoubleAngle
p1214
sg62
I00
sg63
I00
sg10
I01
sg11
(lp1215
ssg559
(dp1216
g16
I00
sg17
I00
sg18
(lp1217
ssg558
(dp1218
g16
I00
sg17
I00
sg18
(lp1219
ssg560
(dp1220
g16
I00
sg17
I00
sg18
(lp1221
ssVxformMatrix
p1222
(dp1223
S'isArray'
p1224
I00
sg4
Vmatrix
p1225
sS'attrChildrenNames'
p1226
(lp1227
sS'isMulti'
p1228
I00
sS'isCompound'
p1229
I00
sg10
I00
sg11
(lp1230
sS'isElement'
p1231
I00
ssVinstObjGroups[1]
p1232
(dp1233
g60
I00
sg10
I00
sg11
(lp1234
g1035
assVparentMatrix[1]
p1235
(dp1236
g60
I00
sg10
I00
sg11
(lp1237
ssVrenderInfo
p1238
(dp1239
S'isArray'
p1240
I00
sg4
VTdataCompound
p1241
sS'attrChildrenNames'
p1242
(lp1243
VrenderInfo.identification
p1244
aVrenderInfo.layerRenderable
p1245
aVrenderInfo.layerOverrideColor
p1246
asS'isMulti'
p1247
I00
sS'isCompound'
p1248
I01
sg10
I00
sg11
(lp1249
VrenderInfo.identification
p1250
aVrenderInfo.layerRenderable
p1251
aVrenderInfo.layerOverrideColor
p1252
asS'isElement'
p1253
I00
ssVscalePivotTranslate.scalePivotTranslateY
p1254
(dp1255
S'isArray'
p1256
I00
sS'attrParentLongName'
p1257
VscalePivotTranslate
p1258
sS'attrChildrenNames'
p1259
(lp1260
sg4
VdoubleLinear
p1261
sS'isMulti'
p1262
I00
sS'isCompound'
p1263
I00
sg10
I01
sg11
(lp1264
sS'isElement'
p1265
I00
ssVmaxScaleLimit.maxScaleZLimit
p1266
(dp1267
g60
I00
sg4
Vdouble
p1268
sg62
I00
sg63
I00
sg10
I01
sg11
(lp1269
ssVtarget
p1270
(dp1271
S'isArray'
p1272
I01
sS'isElement'
p1273
I00
sS'isMulti'
p1274
I01
sg17
I00
sg27
VTdataCompound
p1275
ssVmaxScaleLimit.maxScaleXLimit
p1276
(dp1277
g60
I00
sg4
Vdouble
p1278
sg62
I00
sg63
I00
sg10
I01
sg11
(lp1279
ssVscalePivot
p1280
(dp1281
S'isArray'
p1282
I00
sg4
Vdouble3
p1283
sS'attrChildrenNames'
p1284
(lp1285
VscalePivot.scalePivotX
p1286
aVscalePivot.scalePivotY
p1287
aVscalePivot.scalePivotZ
p1288
asS'isMulti'
p1289
I00
sS'isCompound'
p1290
I01
sg10
I01
sg11
(lp1291
VscalePivot.scalePivotX
p1292
aVscalePivot.scalePivotY
p1293
aVscalePivot.scalePivotZ
p1294
asS'isElement'
p1295
I00
ssVworldInverseMatrix[0]
p1296
(dp1297
g60
I00
sg10
I00
sg11
(lp1298
ssVboundingBox.boundingBoxMax.boundingBoxMaxY
p1299
(dp1300
S'isArray'
p1301
I00
sS'attrParentLongName'
p1302
VboundingBox.boundingBoxMax
p1303
sS'attrChildrenNames'
p1304
(lp1305
sg4
VdoubleLinear
p1306
sS'isMulti'
p1307
I00
sS'isCompound'
p1308
I00
sg10
I01
sg11
(lp1309
sS'isElement'
p1310
I00
ssVboundingBox.boundingBoxMax.boundingBoxMaxX
p1311
(dp1312
S'isArray'
p1313
I00
sS'attrParentLongName'
p1314
VboundingBox.boundingBoxMax
p1315
sS'attrChildrenNames'
p1316
(lp1317
sg4
VdoubleLinear
p1318
sS'isMulti'
p1319
I00
sS'isCompound'
p1320
I00
sg10
I01
sg11
(lp1321
sS'isElement'
p1322
I00
ssVboundingBox.boundingBoxMax.boundingBoxMaxZ
p1323
(dp1324
S'isArray'
p1325
I00
sS'attrParentLongName'
p1326
VboundingBox.boundingBoxMax
p1327
sS'attrChildrenNames'
p1328
(lp1329
sg4
VdoubleLinear
p1330
sS'isMulti'
p1331
I00
sS'isCompound'
p1332
I00
sg10
I01
sg11
(lp1333
sS'isElement'
p1334
I00
ssVinstObjGroups[0].objectGroups[1].objectGrpColor
p1335
(dp1336
g60
I00
sg10
I00
sg11
(lp1337
ssVisCollapsed
p1338
(dp1339
S'isArray'
p1340
I00
sg4
Vbool
p1341
sS'attrChildrenNames'
p1342
(lp1343
sS'isMulti'
p1344
I00
sS'isCompound'
p1345
I00
sg10
I01
sg11
(lp1346
sS'isElement'
p1347
I00
ssg378
(dp1348
g16
I00
sg17
I00
sg18
(lp1349
Vtarget[2].targetTranslate.targetTranslateX
p1350
aVtarget[2].targetTranslate.targetTranslateY
p1351
aVtarget[2].targetTranslate.targetTranslateZ
p1352
assVboundingBox
p1353
(dp1354
S'isArray'
p1355
I00
sg4
VTdataCompound
p1356
sS'attrChildrenNames'
p1357
(lp1358
VboundingBox.boundingBoxMin
p1359
aVboundingBox.boundingBoxMax
p1360
aVboundingBox.boundingBoxSize
p1361
asS'isMulti'
p1362
I00
sS'isCompound'
p1363
I01
sg10
I00
sg11
(lp1364
VboundingBox.boundingBoxMin
p1365
aVboundingBox.boundingBoxMax
p1366
aVboundingBox.boundingBoxSize
p1367
asS'isElement'
p1368
I00
ssVtemplateVersion
p1369
(dp1370
S'isArray'
p1371
I00
sg4
Vlong
p1372
sS'attrChildrenNames'
p1373
(lp1374
sS'isMulti'
p1375
I00
sS'isCompound'
p1376
I00
sg10
I01
sg11
(lp1377
sS'isElement'
p1378
I00
ssVuseOldOffsetCalculation
p1379
(dp1380
S'isArray'
p1381
I00
sg4
Vbool
p1382
sS'attrChildrenNames'
p1383
(lp1384
sS'isMulti'
p1385
I00
sS'isCompound'
p1386
I00
sg10
I01
sg11
(lp1387
sS'isElement'
p1388
I00
ssVmaxTransLimit.maxTransXLimit
p1389
(dp1390
g60
I00
sg4
VdoubleLinear
p1391
sg62
I00
sg63
I00
sg10
I01
sg11
(lp1392
ssVmaxScaleLimit.maxScaleYLimit
p1393
(dp1394
g60
I00
sg4
Vdouble
p1395
sg62
I00
sg63
I00
sg10
I01
sg11
(lp1396
ssVinstObjGroups[0].objectGroups[0].objectGrpCompList
p1397
(dp1398
S'isArray'
p1399
I00
sS'attrParentLongName'
p1400
VinstObjGroups[0].objectGroups[0]
p1401
sS'attrChildrenNames'
p1402
(lp1403
sg10
I00
sg11
(lp1404
sS'isElement'
p1405
I00
ssVuiTreatment
p1406
(dp1407
S'isArray'
p1408
I00
sg4
Venum
p1409
sS'attrChildrenNames'
p1410
(lp1411
sS'isMulti'
p1412
I00
sS'isCompound'
p1413
I00
sg10
I01
sg11
(lp1414
sS'isElement'
p1415
I00
ssVrotate.rotateZ
p1416
(dp1417
S'isArray'
p1418
I00
sS'attrParentLongName'
p1419
Vrotate
p1420
sS'attrChildrenNames'
p1421
(lp1422
sg4
VdoubleAngle
p1423
sS'isMulti'
p1424
I00
sS'isCompound'
p1425
I00
sg10
I01
sg11
(lp1426
sS'isElement'
p1427
I00
ssVrotate.rotateX
p1428
(dp1429
S'isArray'
p1430
I00
sS'attrParentLongName'
p1431
Vrotate
p1432
sS'attrChildrenNames'
p1433
(lp1434
sg4
VdoubleAngle
p1435
sS'isMulti'
p1436
I00
sS'isCompound'
p1437
I00
sg10
I01
sg11
(lp1438
sS'isElement'
p1439
I00
ssVrotate.rotateY
p1440
(dp1441
S'isArray'
p1442
I00
sS'attrParentLongName'
p1443
Vrotate
p1444
sS'attrChildrenNames'
p1445
(lp1446
sg4
VdoubleAngle
p1447
sS'isMulti'
p1448
I00
sS'isCompound'
p1449
I00
sg10
I01
sg11
(lp1450
sS'isElement'
p1451
I00
ssVcaching
p1452
(dp1453
S'isArray'
p1454
I00
sg4
Vbool
p1455
sS'attrChildrenNames'
p1456
(lp1457
sS'isMulti'
p1458
I00
sS'isCompound'
p1459
I00
sg10
I01
sg11
(lp1460
sS'isElement'
p1461
I00
ssVrenderLayerInfo[1].renderLayerRenderable
p1462
(dp1463
g60
I00
sg10
I00
sg11
(lp1464
ssVtranslate.translateZ
p1465
(dp1466
S'isArray'
p1467
I00
sS'attrParentLongName'
p1468
Vtranslate
p1469
sS'attrChildrenNames'
p1470
(lp1471
sg4
VdoubleLinear
p1472
sS'isMulti'
p1473
I00
sS'isCompound'
p1474
I00
sg10
I01
sg11
(lp1475
sS'isElement'
p1476
I00
ssVtranslate.translateX
p1477
(dp1478
S'isArray'
p1479
I00
sS'attrParentLongName'
p1480
Vtranslate
p1481
sS'attrChildrenNames'
p1482
(lp1483
sg4
VdoubleLinear
p1484
sS'isMulti'
p1485
I00
sS'isCompound'
p1486
I00
sg10
I01
sg11
(lp1487
sS'isElement'
p1488
I00
ssVtranslate.translateY
p1489
(dp1490
S'isArray'
p1491
I00
sS'attrParentLongName'
p1492
Vtranslate
p1493
sS'attrChildrenNames'
p1494
(lp1495
sg4
VdoubleLinear
p1496
sS'isMulti'
p1497
I00
sS'isCompound'
p1498
I00
sg10
I01
sg11
(lp1499
sS'isElement'
p1500
I00
ssVghostCustomSteps.ghostPostSteps
p1501
(dp1502
S'isArray'
p1503
I00
sS'attrParentLongName'
p1504
VghostCustomSteps
p1505
sS'attrChildrenNames'
p1506
(lp1507
sg4
Vlong
p1508
sS'isMulti'
p1509
I00
sS'isCompound'
p1510
I00
sg10
I01
sg11
(lp1511
sS'isElement'
p1512
I00
ssVmentalRayControls.miVisible
p1513
(dp1514
S'isArray'
p1515
I00
sS'attrParentLongName'
p1516
VmentalRayControls
p1517
sS'attrChildrenNames'
p1518
(lp1519
sg4
Venum
p1520
sS'isMulti'
p1521
I00
sS'isCompound'
p1522
I00
sg10
I01
sg11
(lp1523
sS'isElement'
p1524
I00
ssVuseObjectColor
p1525
(dp1526
S'isArray'
p1527
I00
sg4
Vbool
p1528
sS'attrChildrenNames'
p1529
(lp1530
sS'isMulti'
p1531
I00
sS'isCompound'
p1532
I00
sg10
I01
sg11
(lp1533
sS'isElement'
p1534
I00
ssVdrawOverride.overrideLevelOfDetail
p1535
(dp1536
S'isArray'
p1537
I00
sS'attrParentLongName'
p1538
VdrawOverride
p1539
sS'attrChildrenNames'
p1540
(lp1541
sg4
Venum
p1542
sS'isMulti'
p1543
I00
sS'isCompound'
p1544
I00
sg10
I01
sg11
(lp1545
sS'isElement'
p1546
I00
ssVinstObjGroups[0].objectGroups[0].objectGroupId
p1547
(dp1548
S'isArray'
p1549
I00
sS'attrParentLongName'
p1550
VinstObjGroups[0].objectGroups[0]
p1551
sS'attrChildrenNames'
p1552
(lp1553
sg10
I00
sg11
(lp1554
sS'isElement'
p1555
I00
ssVmaxRotLimitEnable.maxRotXLimitEnable
p1556
(dp1557
g60
I00
sg4
Vbool
p1558
sg62
I00
sg63
I00
sg10
I01
sg11
(lp1559
ssVparentMatrix[2]
p1560
(dp1561
g601
I00
sg602
I00
sg871
(lp1562
ssVtransMinusRotatePivot
p1563
(dp1564
S'isArray'
p1565
I00
sg4
Vdouble3
p1566
sS'attrChildrenNames'
p1567
(lp1568
VtransMinusRotatePivot.transMinusRotatePivotX
p1569
aVtransMinusRotatePivot.transMinusRotatePivotY
p1570
aVtransMinusRotatePivot.transMinusRotatePivotZ
p1571
asS'isMulti'
p1572
I00
sS'isCompound'
p1573
I01
sg10
I01
sg11
(lp1574
VtransMinusRotatePivot.transMinusRotatePivotX
p1575
aVtransMinusRotatePivot.transMinusRotatePivotY
p1576
aVtransMinusRotatePivot.transMinusRotatePivotZ
p1577
asS'isElement'
p1578
I00
ssVbinMembership
p1579
(dp1580
g60
I00
sg4
Vstring
p1581
sg62
I00
sg63
I00
sg10
I01
sg11
(lp1582
ssVrenderLayerInfo[0].renderLayerRenderable
p1583
(dp1584
S'isArray'
p1585
I00
sS'attrParentLongName'
p1586
VrenderLayerInfo[0]
p1587
sS'attrChildrenNames'
p1588
(lp1589
sg10
I00
sg11
(lp1590
sS'isElement'
p1591
I00
ssVparentMatrix
p1592
(dp1593
S'isArray'
p1594
I01
sS'isElement'
p1595
I00
sS'isMulti'
p1596
I01
sg10
I00
sg4
Vmatrix
p1597
ssg868
(dp1598
g60
I00
sg4
Vbool
p1599
sg62
I00
sg63
I00
sg10
I01
sg11
(lp1600
ssVscalePivotTranslate
p1601
(dp1602
S'isArray'
p1603
I00
sg4
Vdouble3
p1604
sS'attrChildrenNames'
p1605
(lp1606
VscalePivotTranslate.scalePivotTranslateX
p1607
aVscalePivotTranslate.scalePivotTranslateY
p1608
aVscalePivotTranslate.scalePivotTranslateZ
p1609
asS'isMulti'
p1610
I00
sS'isCompound'
p1611
I01
sg10
I01
sg11
(lp1612
VscalePivotTranslate.scalePivotTranslateX
p1613
aVscalePivotTranslate.scalePivotTranslateY
p1614
aVscalePivotTranslate.scalePivotTranslateZ
p1615
asS'isElement'
p1616
I00
ssVrestRotate
p1617
(dp1618
S'isArray'
p1619
I00
sg4
Vdouble3
p1620
sS'attrChildrenNames'
p1621
(lp1622
VrestRotate.restRotateX
p1623
aVrestRotate.restRotateY
p1624
aVrestRotate.restRotateZ
p1625
asS'isMulti'
p1626
I00
sS'isCompound'
p1627
I01
sg10
I01
sg11
(lp1628
VrestRotate.restRotateX
p1629
aVrestRotate.restRotateY
p1630
aVrestRotate.restRotateZ
p1631
asS'isElement'
p1632
I00
ssg1351
(dp1633
g16
I00
sg17
I00
sg18
(lp1634
ssg1350
(dp1635
g16
I00
sg17
I00
sg18
(lp1636
ssg1352
(dp1637
g16
I00
sg17
I00
sg18
(lp1638
ssVtarget.targetRotatePivot
p1639
(dp1640
g536
Vtarget
p1641
ssVdrawOverride.overrideEnabled
p1642
(dp1643
S'isArray'
p1644
I00
sS'attrParentLongName'
p1645
VdrawOverride
p1646
sS'attrChildrenNames'
p1647
(lp1648
sg4
Vbool
p1649
sS'isMulti'
p1650
I00
sS'isCompound'
p1651
I00
sg10
I01
sg11
(lp1652
sS'isElement'
p1653
I00
ssVboundingBox.boundingBoxMax
p1654
(dp1655
S'isArray'
p1656
I00
sS'attrParentLongName'
p1657
VboundingBox
p1658
sS'attrChildrenNames'
p1659
(lp1660
VboundingBox.boundingBoxMax.boundingBoxMaxX
p1661
aVboundingBox.boundingBoxMax.boundingBoxMaxY
p1662
aVboundingBox.boundingBoxMax.boundingBoxMaxZ
p1663
asg4
Vdouble3
p1664
sS'isMulti'
p1665
I00
sS'isCompound'
p1666
I01
sg10
I01
sg11
(lp1667
VboundingBox.boundingBoxMax.boundingBoxMaxX
p1668
aVboundingBox.boundingBoxMax.boundingBoxMaxY
p1669
aVboundingBox.boundingBoxMax.boundingBoxMaxZ
p1670
asS'isElement'
p1671
I00
ssVconstraintRotateTranslate.constraintRotateTranslateZ
p1672
(dp1673
S'isArray'
p1674
I00
sS'attrParentLongName'
p1675
VconstraintRotateTranslate
p1676
sS'attrChildrenNames'
p1677
(lp1678
sg27
VdoubleLinear
p1679
sS'isMulti'
p1680
I00
sS'isCompound'
p1681
I00
sg17
I01
sg18
(lp1682
sS'isElement'
p1683
I00
ssVconstraintRotateTranslate.constraintRotateTranslateX
p1684
(dp1685
S'isArray'
p1686
I00
sS'attrParentLongName'
p1687
VconstraintRotateTranslate
p1688
sS'attrChildrenNames'
p1689
(lp1690
sg27
VdoubleLinear
p1691
sS'isMulti'
p1692
I00
sS'isCompound'
p1693
I00
sg17
I01
sg18
(lp1694
sS'isElement'
p1695
I00
ssVconstraintRotateTranslate.constraintRotateTranslateY
p1696
(dp1697
S'isArray'
p1698
I00
sS'attrParentLongName'
p1699
VconstraintRotateTranslate
p1700
sS'attrChildrenNames'
p1701
(lp1702
sg27
VdoubleLinear
p1703
sS'isMulti'
p1704
I00
sS'isCompound'
p1705
I00
sg17
I01
sg18
(lp1706
sS'isElement'
p1707
I00
ssVrotateAxis
p1708
(dp1709
S'isArray'
p1710
I00
sg4
Vdouble3
p1711
sS'attrChildrenNames'
p1712
(lp1713
VrotateAxis.rotateAxisX
p1714
aVrotateAxis.rotateAxisY
p1715
aVrotateAxis.rotateAxisZ
p1716
asS'isMulti'
p1717
I00
sS'isCompound'
p1718
I01
sg10
I01
sg11
(lp1719
VrotateAxis.rotateAxisX
p1720
aVrotateAxis.rotateAxisY
p1721
aVrotateAxis.rotateAxisZ
p1722
asS'isElement'
p1723
I00
ssVcreator
p1724
(dp1725
S'isArray'
p1726
I00
sg4
Vstring
p1727
sS'attrChildrenNames'
p1728
(lp1729
sS'isMulti'
p1730
I00
sS'isCompound'
p1731
I00
sg10
I01
sg11
(lp1732
sS'isElement'
p1733
I00
ssVrotateAxis.rotateAxisX
p1734
(dp1735
S'isArray'
p1736
I00
sS'attrParentLongName'
p1737
VrotateAxis
p1738
sS'attrChildrenNames'
p1739
(lp1740
sg4
VdoubleAngle
p1741
sS'isMulti'
p1742
I00
sS'isCompound'
p1743
I00
sg10
I01
sg11
(lp1744
sS'isElement'
p1745
I00
ssVrotateAxis.rotateAxisY
p1746
(dp1747
S'isArray'
p1748
I00
sS'attrParentLongName'
p1749
VrotateAxis
p1750
sS'attrChildrenNames'
p1751
(lp1752
sg4
VdoubleAngle
p1753
sS'isMulti'
p1754
I00
sS'isCompound'
p1755
I00
sg10
I01
sg11
(lp1756
sS'isElement'
p1757
I00
ssVrotateAxis.rotateAxisZ
p1758
(dp1759
S'isArray'
p1760
I00
sS'attrParentLongName'
p1761
VrotateAxis
p1762
sS'attrChildrenNames'
p1763
(lp1764
sg4
VdoubleAngle
p1765
sS'isMulti'
p1766
I00
sS'isCompound'
p1767
I00
sg10
I01
sg11
(lp1768
sS'isElement'
p1769
I00
ssVghostRangeEnd
p1770
(dp1771
S'isArray'
p1772
I00
sg4
Vtime
p1773
sS'attrChildrenNames'
p1774
(lp1775
sS'isMulti'
p1776
I00
sS'isCompound'
p1777
I00
sg10
I01
sg11
(lp1778
sS'isElement'
p1779
I00
ssVworldUpMatrix
p1780
(dp1781
S'isArray'
p1782
I00
sg27
Vmatrix
p1783
sS'attrChildrenNames'
p1784
(lp1785
sS'isMulti'
p1786
I00
sS'isCompound'
p1787
I00
sg17
I00
sg18
(lp1788
sS'isElement'
p1789
I00
ssg786
(dp1790
g60
I00
sg4
Vbool
p1791
sg62
I00
sg63
I00
sg10
I01
sg11
(lp1792
ssVmaxScaleLimitEnable.maxScaleXLimitEnable
p1793
(dp1794
g60
I00
sg4
Vbool
p1795
sg62
I00
sg63
I00
sg10
I01
sg11
(lp1796
ssVscalePivot.scalePivotX
p1797
(dp1798
S'isArray'
p1799
I00
sS'attrParentLongName'
p1800
VscalePivot
p1801
sS'attrChildrenNames'
p1802
(lp1803
sg4
VdoubleLinear
p1804
sS'isMulti'
p1805
I00
sS'isCompound'
p1806
I00
sg10
I01
sg11
(lp1807
sS'isElement'
p1808
I00
ssVscalePivot.scalePivotY
p1809
(dp1810
S'isArray'
p1811
I00
sS'attrParentLongName'
p1812
VscalePivot
p1813
sS'attrChildrenNames'
p1814
(lp1815
sg4
VdoubleLinear
p1816
sS'isMulti'
p1817
I00
sS'isCompound'
p1818
I00
sg10
I01
sg11
(lp1819
sS'isElement'
p1820
I00
ssVscalePivot.scalePivotZ
p1821
(dp1822
S'isArray'
p1823
I00
sS'attrParentLongName'
p1824
VscalePivot
p1825
sS'attrChildrenNames'
p1826
(lp1827
sg4
VdoubleLinear
p1828
sS'isMulti'
p1829
I00
sS'isCompound'
p1830
I00
sg10
I01
sg11
(lp1831
sS'isElement'
p1832
I00
ssVinstObjGroups.objectGroups.objectGrpCompList
p1833
(dp1834
g67
VinstObjGroups.objectGroups
p1835
ssVpublishedNodeInfo.publishedNodeType
p1836
(dp1837
g67
VpublishedNodeInfo
p1838
ssVpublishedNodeInfo[1]
p1839
(dp1840
g60
I00
sg10
I00
sg11
(lp1841
VpublishedNodeInfo[1].publishedNode
p1842
aVpublishedNodeInfo[1].isHierarchicalNode
p1843
ag1170
assVmaxTransLimit
p1844
(dp1845
g60
I00
sg4
Vdouble3
p1846
sg62
I00
sg63
I01
sg10
I01
sg11
(lp1847
g1389
aVmaxTransLimit.maxTransYLimit
p1848
ag309
assVscale.scaleZ
p1849
(dp1850
S'isArray'
p1851
I00
sS'attrParentLongName'
p1852
Vscale
p1853
sS'attrChildrenNames'
p1854
(lp1855
sg4
Vdouble
p1856
sS'isMulti'
p1857
I00
sS'isCompound'
p1858
I00
sg10
I01
sg11
(lp1859
sS'isElement'
p1860
I00
ssVscale.scaleX
p1861
(dp1862
S'isArray'
p1863
I00
sS'attrParentLongName'
p1864
Vscale
p1865
sS'attrChildrenNames'
p1866
(lp1867
sg4
Vdouble
p1868
sS'isMulti'
p1869
I00
sS'isCompound'
p1870
I00
sg10
I01
sg11
(lp1871
sS'isElement'
p1872
I00
ssVscale.scaleY
p1873
(dp1874
S'isArray'
p1875
I00
sS'attrParentLongName'
p1876
Vscale
p1877
sS'attrChildrenNames'
p1878
(lp1879
sg4
Vdouble
p1880
sS'isMulti'
p1881
I00
sS'isCompound'
p1882
I00
sg10
I01
sg11
(lp1883
sS'isElement'
p1884
I00
ssVghostRangeStart
p1885
(dp1886
S'isArray'
p1887
I00
sg4
Vtime
p1888
sS'attrChildrenNames'
p1889
(lp1890
sS'isMulti'
p1891
I00
sS'isCompound'
p1892
I00
sg10
I01
sg11
(lp1893
sS'isElement'
p1894
I00
ssVpublishedNodeInfo[0].publishedNodeType
p1895
(dp1896
S'isArray'
p1897
I00
sS'attrParentLongName'
p1898
VpublishedNodeInfo[0]
p1899
sS'attrChildrenNames'
p1900
(lp1901
sg10
I00
sg11
(lp1902
sS'isElement'
p1903
I00
ssVmentalRayControls.miTrace
p1904
(dp1905
S'isArray'
p1906
I00
sS'attrParentLongName'
p1907
VmentalRayControls
p1908
sS'attrChildrenNames'
p1909
(lp1910
sg4
Venum
p1911
sS'isMulti'
p1912
I00
sS'isCompound'
p1913
I00
sg10
I01
sg11
(lp1914
sS'isElement'
p1915
I00
ssg1848
(dp1916
g60
I00
sg4
VdoubleLinear
p1917
sg62
I00
sg63
I00
sg10
I01
sg11
(lp1918
ssVmaxTransLimitEnable
p1919
(dp1920
g60
I00
sg4
VTdataCompound
p1921
sg62
I00
sg10
I00
sg11
(lp1922
g681
ag247
aVmaxTransLimitEnable.maxTransZLimitEnable
p1923
assVmaxScaleLimit
p1924
(dp1925
g60
I00
sg4
Vdouble3
p1926
sg62
I00
sg63
I01
sg10
I01
sg11
(lp1927
g1276
ag1393
ag1266
assVaimVector
p1928
(dp1929
S'isArray'
p1930
I00
sg27
Vdouble3
p1931
sS'attrChildrenNames'
p1932
(lp1933
VaimVector.aimVectorX
p1934
aVaimVector.aimVectorY
p1935
aVaimVector.aimVectorZ
p1936
asS'isMulti'
p1937
I00
sS'isCompound'
p1938
I01
sg17
I01
sg18
(lp1939
VaimVector.aimVectorX
p1940
aVaimVector.aimVectorY
p1941
aVaimVector.aimVectorZ
p1942
asS'isElement'
p1943
I00
ssVinheritsTransform
p1944
(dp1945
S'isArray'
p1946
I00
sg4
Vbool
p1947
sS'attrChildrenNames'
p1948
(lp1949
sS'isMulti'
p1950
I00
sS'isCompound'
p1951
I00
sg10
I01
sg11
(lp1952
sS'isElement'
p1953
I00
ssVisHistoricallyInteresting
p1954
(dp1955
S'isArray'
p1956
I00
sg4
Vbyte
p1957
sS'attrChildrenNames'
p1958
(lp1959
sS'isMulti'
p1960
I00
sS'isCompound'
p1961
I00
sg10
I00
sg11
(lp1962
sS'isElement'
p1963
I00
ssVghostCustomSteps
p1964
(dp1965
S'isArray'
p1966
I00
sg4
VTdataCompound
p1967
sS'attrChildrenNames'
p1968
(lp1969
VghostCustomSteps.ghostPreSteps
p1970
aVghostCustomSteps.ghostPostSteps
p1971
aVghostCustomSteps.ghostStepSize
p1972
asS'isMulti'
p1973
I00
sS'isCompound'
p1974
I01
sg10
I00
sg11
(lp1975
VghostCustomSteps.ghostPreSteps
p1976
aVghostCustomSteps.ghostPostSteps
p1977
aVghostCustomSteps.ghostStepSize
p1978
asS'isElement'
p1979
I00
ssVtarget[0]
p1980
(dp1981
g16
I00
sg27
VTdataCompound
p1982
sS'isMulti'
p1983
I00
sg17
I00
sg18
(lp1984
Vtarget[0].targetTranslate
p1985
aVtarget[0].targetRotatePivot
p1986
aVtarget[0].targetRotateTranslate
p1987
aVtarget[0].targetParentMatrix
p1988
aVtarget[0].targetWeight
p1989
assVdrawOverride
p1990
(dp1991
S'isArray'
p1992
I00
sg4
VTdataCompound
p1993
sS'attrChildrenNames'
p1994
(lp1995
VdrawOverride.overrideDisplayType
p1996
aVdrawOverride.overrideLevelOfDetail
p1997
aVdrawOverride.overrideShading
p1998
aVdrawOverride.overrideTexturing
p1999
aVdrawOverride.overridePlayback
p2000
aVdrawOverride.overrideEnabled
p2001
aVdrawOverride.overrideVisibility
p2002
aVdrawOverride.overrideColor
p2003
asS'isMulti'
p2004
I00
sS'isCompound'
p2005
I01
sg10
I00
sg11
(lp2006
VdrawOverride.overrideDisplayType
p2007
aVdrawOverride.overrideLevelOfDetail
p2008
aVdrawOverride.overrideShading
p2009
aVdrawOverride.overrideTexturing
p2010
aVdrawOverride.overridePlayback
p2011
aVdrawOverride.overrideEnabled
p2012
aVdrawOverride.overrideVisibility
p2013
aVdrawOverride.overrideColor
p2014
asS'isElement'
p2015
I00
ssVinstObjGroups.objectGroups.objectGroupId
p2016
(dp2017
g67
VinstObjGroups.objectGroups
p2018
ssg867
(dp2019
g60
I00
sg4
Vbool
p2020
sg62
I00
sg63
I00
sg10
I01
sg11
(lp2021
ssVmaxRotLimit.maxRotXLimit
p2022
(dp2023
g60
I00
sg4
VdoubleAngle
p2024
sg62
I00
sg63
I00
sg10
I01
sg11
(lp2025
ssVboundingBox.boundingBoxSize
p2026
(dp2027
S'isArray'
p2028
I00
sS'attrParentLongName'
p2029
VboundingBox
p2030
sS'attrChildrenNames'
p2031
(lp2032
VboundingBox.boundingBoxSize.boundingBoxSizeX
p2033
aVboundingBox.boundingBoxSize.boundingBoxSizeY
p2034
aVboundingBox.boundingBoxSize.boundingBoxSizeZ
p2035
asg4
Vdouble3
p2036
sS'isMulti'
p2037
I00
sS'isCompound'
p2038
I01
sg10
I01
sg11
(lp2039
VboundingBox.boundingBoxSize.boundingBoxSizeX
p2040
aVboundingBox.boundingBoxSize.boundingBoxSizeY
p2041
aVboundingBox.boundingBoxSize.boundingBoxSizeZ
p2042
asS'isElement'
p2043
I00
ssVrenderLayerInfo[0]
p2044
(dp2045
g60
I00
sg10
I00
sg11
(lp2046
VrenderLayerInfo[0].renderLayerId
p2047
aVrenderLayerInfo[0].renderLayerRenderable
p2048
aVrenderLayerInfo[0].renderLayerColor
p2049
assVtarget[1].targetRotatePivot.targetRotatePivotZ
p2050
(dp2051
g16
I00
sg17
I00
sg18
(lp2052
ssVtarget[1].targetRotatePivot.targetRotatePivotX
p2053
(dp2054
g16
I00
sg17
I00
sg18
(lp2055
ssVtarget[1].targetRotatePivot.targetRotatePivotY
p2056
(dp2057
g16
I00
sg17
I00
sg18
(lp2058
ssg787
(dp2059
g60
I00
sg4
Vbool
p2060
sg62
I00
sg63
I00
sg10
I01
sg11
(lp2061
ssVmaxScaleLimitEnable
p2062
(dp2063
g60
I00
sg4
VTdataCompound
p2064
sg62
I00
sg10
I00
sg11
(lp2065
g1793
ag270
aVmaxScaleLimitEnable.maxScaleZLimitEnable
p2066
assg2066
(dp2067
g60
I00
sg4
Vbool
p2068
sg62
I00
sg63
I00
sg10
I01
sg11
(lp2069
ssVspecifiedManipLocation
p2070
(dp2071
S'isArray'
p2072
I00
sg4
NsS'attrChildrenNames'
p2073
(lp2074
sS'isMulti'
p2075
I00
sS'isCompound'
p2076
I00
sg10
I00
sg11
(lp2077
sS'isElement'
p2078
I00
ssVtarget[1].targetRotateTranslate.targetRotateTranslateZ
p2079
(dp2080
g16
I00
sg17
I00
sg18
(lp2081
ssVtarget[1].targetRotateTranslate.targetRotateTranslateX
p2082
(dp2083
g16
I00
sg17
I00
sg18
(lp2084
ssVinstObjGroups[0].objectGroups
p2085
(dp2086
S'isArray'
p2087
I01
sS'isElement'
p2088
I00
sS'attrParentLongName'
p2089
VinstObjGroups[0]
p2090
sg10
I00
ssVmaxRotLimitEnable.maxRotYLimitEnable
p2091
(dp2092
g60
I00
sg4
Vbool
p2093
sg62
I00
sg63
I00
sg10
I01
sg11
(lp2094
ssVminScaleLimit
p2095
(dp2096
g60
I00
sg4
Vdouble3
p2097
sg62
I00
sg63
I01
sg10
I01
sg11
(lp2098
g191
ag595
ag1130
assVlodVisibility
p2099
(dp2100
S'isArray'
p2101
I00
sg4
Vbool
p2102
sS'attrChildrenNames'
p2103
(lp2104
sS'isMulti'
p2105
I00
sS'isCompound'
p2106
I00
sg10
I01
sg11
(lp2107
sS'isElement'
p2108
I00
ssVpublishedNodeInfo.isHierarchicalNode
p2109
(dp2110
g67
VpublishedNodeInfo
p2111
ssVinstObjGroups[0].objectGroups[1].objectGrpCompList
p2112
(dp2113
g60
I00
sg10
I00
sg11
(lp2114
ssVdrawOverride.overridePlayback
p2115
(dp2116
S'isArray'
p2117
I00
sS'attrParentLongName'
p2118
VdrawOverride
p2119
sS'attrChildrenNames'
p2120
(lp2121
sg4
Vbool
p2122
sS'isMulti'
p2123
I00
sS'isCompound'
p2124
I00
sg10
I01
sg11
(lp2125
sS'isElement'
p2126
I00
ssVcenter
p2127
(dp2128
S'isArray'
p2129
I00
sg4
Vdouble3
p2130
sS'attrChildrenNames'
p2131
(lp2132
Vcenter.boundingBoxCenterX
p2133
aVcenter.boundingBoxCenterY
p2134
aVcenter.boundingBoxCenterZ
p2135
asS'isMulti'
p2136
I00
sS'isCompound'
p2137
I01
sg10
I01
sg11
(lp2138
Vcenter.boundingBoxCenterX
p2139
aVcenter.boundingBoxCenterY
p2140
aVcenter.boundingBoxCenterZ
p2141
asS'isElement'
p2142
I00
ssVdrawOverride.overrideShading
p2143
(dp2144
S'isArray'
p2145
I00
sS'attrParentLongName'
p2146
VdrawOverride
p2147
sS'attrChildrenNames'
p2148
(lp2149
sg4
Vbool
p2150
sS'isMulti'
p2151
I00
sS'isCompound'
p2152
I00
sg10
I01
sg11
(lp2153
sS'isElement'
p2154
I00
ssVmentalRayControls.miShadow
p2155
(dp2156
S'isArray'
p2157
I00
sS'attrParentLongName'
p2158
VmentalRayControls
p2159
sS'attrChildrenNames'
p2160
(lp2161
sg4
Venum
p2162
sS'isMulti'
p2163
I00
sS'isCompound'
p2164
I00
sg10
I01
sg11
(lp2165
sS'isElement'
p2166
I00
ssVinstObjGroups[2]
p2167
(dp2168
g601
I00
sg602
I00
sg871
(lp2169
g599
assVviewMode
p2170
(dp2171
S'isArray'
p2172
I00
sg4
Venum
p2173
sS'attrChildrenNames'
p2174
(lp2175
sS'isMulti'
p2176
I00
sS'isCompound'
p2177
I00
sg10
I01
sg11
(lp2178
sS'isElement'
p2179
I00
ssVrotatePivotTranslate
p2180
(dp2181
S'isArray'
p2182
I00
sg4
Vdouble3
p2183
sS'attrChildrenNames'
p2184
(lp2185
VrotatePivotTranslate.rotatePivotTranslateX
p2186
aVrotatePivotTranslate.rotatePivotTranslateY
p2187
aVrotatePivotTranslate.rotatePivotTranslateZ
p2188
asS'isMulti'
p2189
I00
sS'isCompound'
p2190
I01
sg10
I01
sg11
(lp2191
VrotatePivotTranslate.rotatePivotTranslateX
p2192
aVrotatePivotTranslate.rotatePivotTranslateY
p2193
aVrotatePivotTranslate.rotatePivotTranslateZ
p2194
asS'isElement'
p2195
I00
ssVintermediateObject
p2196
(dp2197
S'isArray'
p2198
I00
sg4
Vbool
p2199
sS'attrChildrenNames'
p2200
(lp2201
sS'isMulti'
p2202
I00
sS'isCompound'
p2203
I00
sg10
I01
sg11
(lp2204
sS'isElement'
p2205
I00
ssg822
(dp2206
g60
I00
sg4
Vbool
p2207
sg62
I00
sg63
I00
sg10
I01
sg11
(lp2208
ssVtarget[1].targetWeight
p2209
(dp2210
g16
I00
sg17
I00
sg18
(lp2211
ssVupVector
p2212
(dp2213
S'isArray'
p2214
I00
sg27
Vdouble3
p2215
sS'attrChildrenNames'
p2216
(lp2217
VupVector.upVectorX
p2218
aVupVector.upVectorY
p2219
aVupVector.upVectorZ
p2220
asS'isMulti'
p2221
I00
sS'isCompound'
p2222
I01
sg17
I01
sg18
(lp2223
VupVector.upVectorX
p2224
aVupVector.upVectorY
p2225
aVupVector.upVectorZ
p2226
asS'isElement'
p2227
I00
ssVmaxRotLimit.maxRotYLimit
p2228
(dp2229
g60
I00
sg4
VdoubleAngle
p2230
sg62
I00
sg63
I00
sg10
I01
sg11
(lp2231
ssVboundingBox.boundingBoxMin
p2232
(dp2233
S'isArray'
p2234
I00
sS'attrParentLongName'
p2235
VboundingBox
p2236
sS'attrChildrenNames'
p2237
(lp2238
VboundingBox.boundingBoxMin.boundingBoxMinX
p2239
aVboundingBox.boundingBoxMin.boundingBoxMinY
p2240
aVboundingBox.boundingBoxMin.boundingBoxMinZ
p2241
asg4
Vdouble3
p2242
sS'isMulti'
p2243
I00
sS'isCompound'
p2244
I01
sg10
I01
sg11
(lp2245
VboundingBox.boundingBoxMin.boundingBoxMinX
p2246
aVboundingBox.boundingBoxMin.boundingBoxMinY
p2247
aVboundingBox.boundingBoxMin.boundingBoxMinZ
p2248
asS'isElement'
p2249
I00
ssg1923
(dp2250
g60
I00
sg4
Vbool
p2251
sg62
I00
sg63
I00
sg10
I01
sg11
(lp2252
ssVworldInverseMatrix[1]
p2253
(dp2254
g60
I00
sg10
I00
sg11
(lp2255
ssVrotatePivotTranslate.rotatePivotTranslateZ
p2256
(dp2257
S'isArray'
p2258
I00
sS'attrParentLongName'
p2259
VrotatePivotTranslate
p2260
sS'attrChildrenNames'
p2261
(lp2262
sg4
VdoubleLinear
p2263
sS'isMulti'
p2264
I00
sS'isCompound'
p2265
I00
sg10
I01
sg11
(lp2266
sS'isElement'
p2267
I00
ssVrotatePivotTranslate.rotatePivotTranslateX
p2268
(dp2269
S'isArray'
p2270
I00
sS'attrParentLongName'
p2271
VrotatePivotTranslate
p2272
sS'attrChildrenNames'
p2273
(lp2274
sg4
VdoubleLinear
p2275
sS'isMulti'
p2276
I00
sS'isCompound'
p2277
I00
sg10
I01
sg11
(lp2278
sS'isElement'
p2279
I00
ssVrotatePivotTranslate.rotatePivotTranslateY
p2280
(dp2281
S'isArray'
p2282
I00
sS'attrParentLongName'
p2283
VrotatePivotTranslate
p2284
sS'attrChildrenNames'
p2285
(lp2286
sg4
VdoubleLinear
p2287
sS'isMulti'
p2288
I00
sS'isCompound'
p2289
I00
sg10
I01
sg11
(lp2290
sS'isElement'
p2291
I00
ssVrotate
p2292
(dp2293
S'isArray'
p2294
I00
sg4
Vdouble3
p2295
sS'attrChildrenNames'
p2296
(lp2297
Vrotate.rotateX
p2298
aVrotate.rotateY
p2299
aVrotate.rotateZ
p2300
asS'isMulti'
p2301
I00
sS'isCompound'
p2302
I01
sg10
I01
sg11
(lp2303
Vrotate.rotateX
p2304
aVrotate.rotateY
p2305
aVrotate.rotateZ
p2306
asS'isElement'
p2307
I00
ssVparentInverseMatrix[0]
p2308
(dp2309
g60
I00
sg10
I00
sg11
(lp2310
ssVrenderLayerInfo[1].renderLayerId
p2311
(dp2312
g60
I00
sg10
I00
sg11
(lp2313
ssVworldUpVector.worldUpVectorZ
p2314
(dp2315
S'isArray'
p2316
I00
sS'attrParentLongName'
p2317
VworldUpVector
p2318
sS'attrChildrenNames'
p2319
(lp2320
sg27
Vdouble
p2321
sS'isMulti'
p2322
I00
sg30
NsS'isCompound'
p2323
I00
sg17
I01
sg18
(lp2324
sS'isElement'
p2325
I00
ssVobjectColor
p2326
(dp2327
S'isArray'
p2328
I00
sg4
Vshort
p2329
sS'attrChildrenNames'
p2330
(lp2331
sS'isMulti'
p2332
I00
sS'isCompound'
p2333
I00
sg10
I01
sg11
(lp2334
sS'isElement'
p2335
I00
ssVworldUpVector.worldUpVectorX
p2336
(dp2337
S'isArray'
p2338
I00
sS'attrParentLongName'
p2339
VworldUpVector
p2340
sS'attrChildrenNames'
p2341
(lp2342
sg27
Vdouble
p2343
sS'isMulti'
p2344
I00
sg30
NsS'isCompound'
p2345
I00
sg17
I01
sg18
(lp2346
sS'isElement'
p2347
I00
ssVworldUpVector.worldUpVectorY
p2348
(dp2349
S'isArray'
p2350
I00
sS'attrParentLongName'
p2351
VworldUpVector
p2352
sS'attrChildrenNames'
p2353
(lp2354
sg27
Vdouble
p2355
sS'isMulti'
p2356
I00
sg30
NsS'isCompound'
p2357
I00
sg17
I01
sg18
(lp2358
sS'isElement'
p2359
I00
ssVmentalRayControls.miGeoShader
p2360
(dp2361
S'isArray'
p2362
I00
sS'attrParentLongName'
p2363
VmentalRayControls
p2364
sS'attrChildrenNames'
p2365
(lp2366
sg4
NsS'isMulti'
p2367
I00
sS'isCompound'
p2368
I00
sg10
I00
sg11
(lp2369
sS'isElement'
p2370
I00
ssVconstraintRotateOrder
p2371
(dp2372
S'isArray'
p2373
I00
sg27
Venum
p2374
sS'attrChildrenNames'
p2375
(lp2376
sS'isMulti'
p2377
I00
sS'isCompound'
p2378
I00
sg17
I01
sg18
(lp2379
sS'isElement'
p2380
I00
ssVpublishedNodeInfo[0]
p2381
(dp2382
g60
I00
sg10
I00
sg11
(lp2383
VpublishedNodeInfo[0].publishedNode
p2384
aVpublishedNodeInfo[0].isHierarchicalNode
p2385
aVpublishedNodeInfo[0].publishedNodeType
p2386
assVtarget[1].targetRotateTranslate
p2387
(dp2388
g16
I00
sg17
I00
sg18
(lp2389
g2082
ag612
ag2079
assVtarget[0].targetWeight
p2390
(dp2391
S'isArray'
p2392
I00
sS'attrParentLongName'
p2393
Vtarget[0]
p2394
sS'attrChildrenNames'
p2395
(lp2396
sg27
Vdouble
p2397
sS'isMulti'
p2398
I00
sS'isCompound'
p2399
I00
sg17
I01
sg18
(lp2400
sS'isElement'
p2401
I00
ssVpublishedNodeInfo[0].publishedNode
p2402
(dp2403
S'isArray'
p2404
I00
sS'attrParentLongName'
p2405
VpublishedNodeInfo[0]
p2406
sS'attrChildrenNames'
p2407
(lp2408
sg10
I00
sg11
(lp2409
sS'isElement'
p2410
I00
ssg1843
(dp2411
g60
I00
sg10
I00
sg11
(lp2412
ssVscale
p2413
(dp2414
S'isArray'
p2415
I00
sg4
Vdouble3
p2416
sS'attrChildrenNames'
p2417
(lp2418
Vscale.scaleX
p2419
aVscale.scaleY
p2420
aVscale.scaleZ
p2421
asS'isMulti'
p2422
I00
sS'isCompound'
p2423
I01
sg10
I01
sg11
(lp2424
Vscale.scaleX
p2425
aVscale.scaleY
p2426
aVscale.scaleZ
p2427
asS'isElement'
p2428
I00
ssVtransMinusRotatePivot.transMinusRotatePivotZ
p2429
(dp2430
S'isArray'
p2431
I00
sS'attrParentLongName'
p2432
VtransMinusRotatePivot
p2433
sS'attrChildrenNames'
p2434
(lp2435
sg4
VdoubleLinear
p2436
sS'isMulti'
p2437
I00
sS'isCompound'
p2438
I00
sg10
I01
sg11
(lp2439
sS'isElement'
p2440
I00
ssVrenderLayerInfo[0].renderLayerColor
p2441
(dp2442
S'isArray'
p2443
I00
sS'attrParentLongName'
p2444
VrenderLayerInfo[0]
p2445
sS'attrChildrenNames'
p2446
(lp2447
sg10
I00
sg11
(lp2448
sS'isElement'
p2449
I00
ssVworldUpVector
p2450
(dp2451
S'isArray'
p2452
I00
sg27
Vdouble3
p2453
sS'attrChildrenNames'
p2454
(lp2455
VworldUpVector.worldUpVectorX
p2456
aVworldUpVector.worldUpVectorY
p2457
aVworldUpVector.worldUpVectorZ
p2458
asS'isMulti'
p2459
I00
sS'isCompound'
p2460
I01
sg17
I01
sg18
(lp2461
VworldUpVector.worldUpVectorX
p2462
aVworldUpVector.worldUpVectorY
p2463
aVworldUpVector.worldUpVectorZ
p2464
asS'isElement'
p2465
I00
ssVviewName
p2466
(dp2467
S'isArray'
p2468
I00
sg4
Vstring
p2469
sS'attrChildrenNames'
p2470
(lp2471
sS'isMulti'
p2472
I00
sS'isCompound'
p2473
I00
sg10
I01
sg11
(lp2474
sS'isElement'
p2475
I00
ssVtarget[1].targetTranslate
p2476
(dp2477
g16
I00
sg17
I00
sg18
(lp2478
g788
ag791
ag778
assVinstObjGroups[0].objectGroups[1]
p2479
(dp2480
g60
I00
sg10
I00
sg11
(lp2481
g2112
aVinstObjGroups[0].objectGroups[1].objectGroupId
p2482
ag1335
assg222
(dp2483
g60
I00
sg4
VdoubleLinear
p2484
sg62
I00
sg63
I00
sg10
I01
sg11
(lp2485
ssViconName
p2486
(dp2487
S'isArray'
p2488
I00
sg4
Vstring
p2489
sS'attrChildrenNames'
p2490
(lp2491
sS'isMulti'
p2492
I00
sS'isCompound'
p2493
I00
sg10
I01
sg11
(lp2494
sS'isElement'
p2495
I00
ssVtarget[0].targetRotatePivot
p2496
(dp2497
S'isArray'
p2498
I00
sS'attrParentLongName'
p2499
Vtarget[0]
p2500
sS'attrChildrenNames'
p2501
(lp2502
Vtarget[0].targetRotatePivot.targetRotatePivotX
p2503
aVtarget[0].targetRotatePivot.targetRotatePivotY
p2504
aVtarget[0].targetRotatePivot.targetRotatePivotZ
p2505
asg27
Vdouble3
p2506
sS'isMulti'
p2507
I00
sS'isCompound'
p2508
I01
sg17
I01
sg18
(lp2509
Vtarget[0].targetRotatePivot.targetRotatePivotX
p2510
aVtarget[0].targetRotatePivot.targetRotatePivotY
p2511
aVtarget[0].targetRotatePivot.targetRotatePivotZ
p2512
asS'isElement'
p2513
I00
ssVinstObjGroups
p2514
(dp2515
S'isArray'
p2516
I01
sS'isElement'
p2517
I00
sS'isMulti'
p2518
I01
sg10
I00
sg4
VTdataCompound
p2519
ssVworldMatrix[0]
p2520
(dp2521
g60
I00
sg10
I00
sg11
(lp2522
ssVdrawOverride.overrideVisibility
p2523
(dp2524
S'isArray'
p2525
I00
sS'attrParentLongName'
p2526
VdrawOverride
p2527
sS'attrChildrenNames'
p2528
(lp2529
sg4
Vbool
p2530
sS'isMulti'
p2531
I00
sS'isCompound'
p2532
I00
sg10
I01
sg11
(lp2533
sS'isElement'
p2534
I00
ssVghosting
p2535
(dp2536
S'isArray'
p2537
I00
sg4
Vbool
p2538
sS'attrChildrenNames'
p2539
(lp2540
sS'isMulti'
p2541
I00
sS'isCompound'
p2542
I00
sg10
I01
sg11
(lp2543
sS'isElement'
p2544
I00
ssVdisplayLocalAxis
p2545
(dp2546
S'isArray'
p2547
I00
sg4
Vbool
p2548
sS'attrChildrenNames'
p2549
(lp2550
sS'isMulti'
p2551
I00
sS'isCompound'
p2552
I00
sg10
I01
sg11
(lp2553
sS'isElement'
p2554
I00
ssg1842
(dp2555
g60
I00
sg10
I00
sg11
(lp2556
ssVmaxRotLimit
p2557
(dp2558
g60
I00
sg4
Vdouble3
p2559
sg62
I00
sg63
I01
sg10
I01
sg11
(lp2560
g2022
ag2228
aVmaxRotLimit.maxRotZLimit
p2561
assVtranslate
p2562
(dp2563
S'isArray'
p2564
I00
sg4
Vdouble3
p2565
sS'attrChildrenNames'
p2566
(lp2567
Vtranslate.translateX
p2568
aVtranslate.translateY
p2569
aVtranslate.translateZ
p2570
asS'isMulti'
p2571
I00
sS'isCompound'
p2572
I01
sg10
I01
sg11
(lp2573
Vtranslate.translateX
p2574
aVtranslate.translateY
p2575
aVtranslate.translateZ
p2576
asS'isElement'
p2577
I00
ssVtarget[0].targetRotateTranslate.targetRotateTranslateZ
p2578
(dp2579
S'isArray'
p2580
I00
sS'attrParentLongName'
p2581
Vtarget[0].targetRotateTranslate
p2582
sS'attrChildrenNames'
p2583
(lp2584
sg27
VdoubleLinear
p2585
sS'isMulti'
p2586
I00
sS'isCompound'
p2587
I00
sg17
I01
sg18
(lp2588
sS'isElement'
p2589
I00
ssVtarget[0].targetRotateTranslate.targetRotateTranslateY
p2590
(dp2591
S'isArray'
p2592
I00
sS'attrParentLongName'
p2593
Vtarget[0].targetRotateTranslate
p2594
sS'attrChildrenNames'
p2595
(lp2596
sg27
VdoubleLinear
p2597
sS'isMulti'
p2598
I00
sS'isCompound'
p2599
I00
sg17
I01
sg18
(lp2600
sS'isElement'
p2601
I00
ssVtarget[0].targetRotateTranslate.targetRotateTranslateX
p2602
(dp2603
S'isArray'
p2604
I00
sS'attrParentLongName'
p2605
Vtarget[0].targetRotateTranslate
p2606
sS'attrChildrenNames'
p2607
(lp2608
sg27
VdoubleLinear
p2609
sS'isMulti'
p2610
I00
sS'isCompound'
p2611
I00
sg17
I01
sg18
(lp2612
sS'isElement'
p2613
I00
ssVtarget[1]
p2614
(dp2615
g16
I00
sg17
I00
sg18
(lp2616
g2476
aVtarget[1].targetRotatePivot
p2617
ag2387
ag14
ag2209
assVtarget.targetRotatePivotX
p2618
(dp2619
g67
Vtarget.targetRotatePivot
p2620
ssVtarget.targetRotatePivotY
p2621
(dp2622
g67
Vtarget.targetRotatePivot
p2623
ssVtarget.targetRotatePivotZ
p2624
(dp2625
g67
Vtarget.targetRotatePivot
p2626
ssVmaxRotLimitEnable
p2627
(dp2628
g60
I00
sg4
VTdataCompound
p2629
sg62
I00
sg10
I00
sg11
(lp2630
g1556
ag2091
ag1086
assVtarget[0].targetRotatePivot.targetRotatePivotX
p2631
(dp2632
S'isArray'
p2633
I00
sS'attrParentLongName'
p2634
Vtarget[0].targetRotatePivot
p2635
sS'attrChildrenNames'
p2636
(lp2637
sg27
VdoubleLinear
p2638
sS'isMulti'
p2639
I00
sS'isCompound'
p2640
I00
sg17
I01
sg18
(lp2641
sS'isElement'
p2642
I00
ssg2482
(dp2643
g60
I00
sg10
I00
sg11
(lp2644
ssVconstraintVector
p2645
(dp2646
S'isArray'
p2647
I00
sg27
Vdouble3
p2648
sS'attrChildrenNames'
p2649
(lp2650
VconstraintVector.constraintVectorX
p2651
aVconstraintVector.constraintVectorY
p2652
aVconstraintVector.constraintVectorZ
p2653
asS'isMulti'
p2654
I00
sS'isCompound'
p2655
I01
sg17
I01
sg18
(lp2656
VconstraintVector.constraintVectorX
p2657
aVconstraintVector.constraintVectorY
p2658
aVconstraintVector.constraintVectorZ
p2659
asS'isElement'
p2660
I00
ssVconstraintJointOrient
p2661
(dp2662
S'isArray'
p2663
I00
sg27
Vdouble3
p2664
sS'attrChildrenNames'
p2665
(lp2666
VconstraintJointOrient.constraintJointOrientX
p2667
aVconstraintJointOrient.constraintJointOrientY
p2668
aVconstraintJointOrient.constraintJointOrientZ
p2669
asS'isMulti'
p2670
I00
sS'isCompound'
p2671
I01
sg17
I01
sg18
(lp2672
VconstraintJointOrient.constraintJointOrientX
p2673
aVconstraintJointOrient.constraintJointOrientY
p2674
aVconstraintJointOrient.constraintJointOrientZ
p2675
asS'isElement'
p2676
I00
ssg223
(dp2677
g60
I00
sg4
VdoubleLinear
p2678
sg62
I00
sg63
I00
sg10
I01
sg11
(lp2679
ssg229
(dp2680
g60
I00
sg4
VdoubleAngle
p2681
sg62
I00
sg63
I00
sg10
I01
sg11
(lp2682
ssg2617
(dp2683
g16
I00
sg17
I00
sg18
(lp2684
g2053
ag2056
ag2050
assVconstraintRotatePivot.constraintRotatePivotZ
p2685
(dp2686
S'isArray'
p2687
I00
sS'attrParentLongName'
p2688
VconstraintRotatePivot
p2689
sS'attrChildrenNames'
p2690
(lp2691
sg27
VdoubleLinear
p2692
sS'isMulti'
p2693
I00
sS'isCompound'
p2694
I00
sg17
I01
sg18
(lp2695
sS'isElement'
p2696
I00
ssVconstraintRotatePivot.constraintRotatePivotX
p2697
(dp2698
S'isArray'
p2699
I00
sS'attrParentLongName'
p2700
VconstraintRotatePivot
p2701
sS'attrChildrenNames'
p2702
(lp2703
sg27
VdoubleLinear
p2704
sS'isMulti'
p2705
I00
sS'isCompound'
p2706
I00
sg17
I01
sg18
(lp2707
sS'isElement'
p2708
I00
ssVconstraintRotatePivot.constraintRotatePivotY
p2709
(dp2710
S'isArray'
p2711
I00
sS'attrParentLongName'
p2712
VconstraintRotatePivot
p2713
sS'attrChildrenNames'
p2714
(lp2715
sg27
VdoubleLinear
p2716
sS'isMulti'
p2717
I00
sS'isCompound'
p2718
I00
sg17
I01
sg18
(lp2719
sS'isElement'
p2720
I00
ssVrestRotate.restRotateZ
p2721
(dp2722
S'isArray'
p2723
I00
sS'attrParentLongName'
p2724
VrestRotate
p2725
sS'attrChildrenNames'
p2726
(lp2727
sg4
VdoubleAngle
p2728
sS'isMulti'
p2729
I00
sS'isCompound'
p2730
I00
sg10
I01
sg11
(lp2731
sS'isElement'
p2732
I00
ssVrestRotate.restRotateX
p2733
(dp2734
S'isArray'
p2735
I00
sS'attrParentLongName'
p2736
VrestRotate
p2737
sS'attrChildrenNames'
p2738
(lp2739
sg4
VdoubleAngle
p2740
sS'isMulti'
p2741
I00
sS'isCompound'
p2742
I00
sg10
I01
sg11
(lp2743
sS'isElement'
p2744
I00
ssVrestRotate.restRotateY
p2745
(dp2746
S'isArray'
p2747
I00
sS'attrParentLongName'
p2748
VrestRotate
p2749
sS'attrChildrenNames'
p2750
(lp2751
sg4
VdoubleAngle
p2752
sS'isMulti'
p2753
I00
sS'isCompound'
p2754
I00
sg10
I01
sg11
(lp2755
sS'isElement'
p2756
I00
ssVconstraintJointOrient.constraintJointOrientZ
p2757
(dp2758
S'isArray'
p2759
I00
sS'attrParentLongName'
p2760
VconstraintJointOrient
p2761
sS'attrChildrenNames'
p2762
(lp2763
sg27
VdoubleAngle
p2764
sS'isMulti'
p2765
I00
sS'isCompound'
p2766
I00
sg17
I01
sg18
(lp2767
sS'isElement'
p2768
I00
ssVconstraintJointOrient.constraintJointOrientX
p2769
(dp2770
S'isArray'
p2771
I00
sS'attrParentLongName'
p2772
VconstraintJointOrient
p2773
sS'attrChildrenNames'
p2774
(lp2775
sg27
VdoubleAngle
p2776
sS'isMulti'
p2777
I00
sS'isCompound'
p2778
I00
sg17
I01
sg18
(lp2779
sS'isElement'
p2780
I00
ssVconstraintJointOrient.constraintJointOrientY
p2781
(dp2782
S'isArray'
p2783
I00
sS'attrParentLongName'
p2784
VconstraintJointOrient
p2785
sS'attrChildrenNames'
p2786
(lp2787
sg27
VdoubleAngle
p2788
sS'isMulti'
p2789
I00
sS'isCompound'
p2790
I00
sg17
I01
sg18
(lp2791
sS'isElement'
p2792
I00
ssVmentalRayControls
p2793
(dp2794
S'isArray'
p2795
I00
sg4
VTdataCompound
p2796
sS'attrChildrenNames'
p2797
(lp2798
VmentalRayControls.miDeriveFromMaya
p2799
aVmentalRayControls.miHide
p2800
aVmentalRayControls.miVisible
p2801
aVmentalRayControls.miTrace
p2802
aVmentalRayControls.miShadow
p2803
aVmentalRayControls.miCaustic
p2804
aVmentalRayControls.miGlobillum
p2805
aVmentalRayControls.miExportGeoShader
p2806
aVmentalRayControls.miGeoShader
p2807
aVmentalRayControls.miProxyRenderable
p2808
asS'isMulti'
p2809
I00
sS'isCompound'
p2810
I01
sg10
I00
sg11
(lp2811
VmentalRayControls.miDeriveFromMaya
p2812
aVmentalRayControls.miHide
p2813
aVmentalRayControls.miVisible
p2814
aVmentalRayControls.miTrace
p2815
aVmentalRayControls.miShadow
p2816
aVmentalRayControls.miCaustic
p2817
aVmentalRayControls.miGlobillum
p2818
aVmentalRayControls.miExportGeoShader
p2819
aVmentalRayControls.miGeoShader
p2820
aVmentalRayControls.miProxyRenderable
p2821
asS'isElement'
p2822
I00
ssVworldInverseMatrix
p2823
(dp2824
S'isArray'
p2825
I01
sS'isElement'
p2826
I00
sS'isMulti'
p2827
I01
sg10
I00
sg4
Vmatrix
p2828
ssVrenderInfo.identification
p2829
(dp2830
S'isArray'
p2831
I00
sS'attrParentLongName'
p2832
VrenderInfo
p2833
sS'attrChildrenNames'
p2834
(lp2835
sg4
Vshort
p2836
sS'isMulti'
p2837
I00
sS'isCompound'
p2838
I00
sg10
I01
sg11
(lp2839
sS'isElement'
p2840
I00
ssVblackBox
p2841
(dp2842
S'isArray'
p2843
I00
sg4
Vbool
p2844
sS'attrChildrenNames'
p2845
(lp2846
sS'isMulti'
p2847
I00
sS'isCompound'
p2848
I00
sg10
I01
sg11
(lp2849
sS'isElement'
p2850
I00
ssVrenderLayerInfo.renderLayerColor
p2851
(dp2852
g67
VrenderLayerInfo
p2853
ssVconstraintRotate.constraintRotateX
p2854
(dp2855
S'isArray'
p2856
I00
sS'attrParentLongName'
p2857
VconstraintRotate
p2858
sS'attrChildrenNames'
p2859
(lp2860
sg27
VdoubleAngle
p2861
sS'isMulti'
p2862
I00
sg30
NsS'isCompound'
p2863
I00
sg17
I01
sg18
(lp2864
sS'isElement'
p2865
I00
ssVconstraintRotate.constraintRotateY
p2866
(dp2867
S'isArray'
p2868
I00
sS'attrParentLongName'
p2869
VconstraintRotate
p2870
sS'attrChildrenNames'
p2871
(lp2872
sg27
VdoubleAngle
p2873
sS'isMulti'
p2874
I00
sg30
NsS'isCompound'
p2875
I00
sg17
I01
sg18
(lp2876
sS'isElement'
p2877
I00
ssVconstraintRotate.constraintRotateZ
p2878
(dp2879
S'isArray'
p2880
I00
sS'attrParentLongName'
p2881
VconstraintRotate
p2882
sS'attrChildrenNames'
p2883
(lp2884
sg27
VdoubleAngle
p2885
sS'isMulti'
p2886
I00
sg30
NsS'isCompound'
p2887
I00
sg17
I01
sg18
(lp2888
sS'isElement'
p2889
I00
ssVisHierarchicalConnection[0]
p2890
(dp2891
g60
I00
sg10
I00
sg11
(lp2892
ssVshowManipDefault
p2893
(dp2894
S'isArray'
p2895
I00
sg4
Venum
p2896
sS'attrChildrenNames'
p2897
(lp2898
sS'isMulti'
p2899
I00
sS'isCompound'
p2900
I00
sg10
I01
sg11
(lp2901
sS'isElement'
p2902
I00
ssg2561
(dp2903
g60
I00
sg4
VdoubleAngle
p2904
sg62
I00
sg63
I00
sg10
I01
sg11
(lp2905
ssVconstraintVector.constraintVectorX
p2906
(dp2907
S'isArray'
p2908
I00
sS'attrParentLongName'
p2909
VconstraintVector
p2910
sS'attrChildrenNames'
p2911
(lp2912
sg27
VdoubleLinear
p2913
sS'isMulti'
p2914
I00
sg30
NsS'isCompound'
p2915
I00
sg17
I01
sg18
(lp2916
sS'isElement'
p2917
I00
ssVconstraintVector.constraintVectorY
p2918
(dp2919
S'isArray'
p2920
I00
sS'attrParentLongName'
p2921
VconstraintVector
p2922
sS'attrChildrenNames'
p2923
(lp2924
sg27
VdoubleLinear
p2925
sS'isMulti'
p2926
I00
sg30
NsS'isCompound'
p2927
I00
sg17
I01
sg18
(lp2928
sS'isElement'
p2929
I00
ssVconstraintVector.constraintVectorZ
p2930
(dp2931
S'isArray'
p2932
I00
sS'attrParentLongName'
p2933
VconstraintVector
p2934
sS'attrChildrenNames'
p2935
(lp2936
sg27
VdoubleLinear
p2937
sS'isMulti'
p2938
I00
sg30
NsS'isCompound'
p2939
I00
sg17
I01
sg18
(lp2940
sS'isElement'
p2941
I00
ssVrenderLayerInfo[1]
p2942
(dp2943
g60
I00
sg10
I00
sg11
(lp2944
g2311
ag1462
ag906
assVaimVector.aimVectorZ
p2945
(dp2946
S'isArray'
p2947
I00
sS'attrParentLongName'
p2948
VaimVector
p2949
sS'attrChildrenNames'
p2950
(lp2951
sg27
Vdouble
p2952
sS'isMulti'
p2953
I00
sS'isCompound'
p2954
I00
sg17
I01
sg18
(lp2955
sS'isElement'
p2956
I00
ssVghostCustomSteps.ghostStepSize
p2957
(dp2958
S'isArray'
p2959
I00
sS'attrParentLongName'
p2960
VghostCustomSteps
p2961
sS'attrChildrenNames'
p2962
(lp2963
sg4
Vlong
p2964
sS'isMulti'
p2965
I00
sS'isCompound'
p2966
I00
sg10
I01
sg11
(lp2967
sS'isElement'
p2968
I00
ssVaimVector.aimVectorX
p2969
(dp2970
S'isArray'
p2971
I00
sS'attrParentLongName'
p2972
VaimVector
p2973
sS'attrChildrenNames'
p2974
(lp2975
sg27
Vdouble
p2976
sS'isMulti'
p2977
I00
sg30
NsS'isCompound'
p2978
I00
sg17
I01
sg18
(lp2979
sS'isElement'
p2980
I00
ssVaimVector.aimVectorY
p2981
(dp2982
S'isArray'
p2983
I00
sS'attrParentLongName'
p2984
VaimVector
p2985
sS'attrChildrenNames'
p2986
(lp2987
sg27
Vdouble
p2988
sS'isMulti'
p2989
I00
sS'isCompound'
p2990
I00
sg17
I01
sg18
(lp2991
sS'isElement'
p2992
I00
ssVrenderLayerInfo
p2993
(dp2994
S'isArray'
p2995
I01
sS'isElement'
p2996
I00
sS'isMulti'
p2997
I01
sg10
I00
sg4
VTdataCompound
p2998
ssVtarget[0].targetRotatePivot.targetRotatePivotZ
p2999
(dp3000
S'isArray'
p3001
I00
sS'attrParentLongName'
p3002
Vtarget[0].targetRotatePivot
p3003
sS'attrChildrenNames'
p3004
(lp3005
sg27
VdoubleLinear
p3006
sS'isMulti'
p3007
I00
sS'isCompound'
p3008
I00
sg17
I01
sg18
(lp3009
sS'isElement'
p3010
I00
ssVtarget[0].targetRotatePivot.targetRotatePivotY
p3011
(dp3012
S'isArray'
p3013
I00
sS'attrParentLongName'
p3014
Vtarget[0].targetRotatePivot
p3015
sS'attrChildrenNames'
p3016
(lp3017
sg27
VdoubleLinear
p3018
sS'isMulti'
p3019
I00
sS'isCompound'
p3020
I00
sg17
I01
sg18
(lp3021
sS'isElement'
p3022
I00
ssVtarget[0].targetParentMatrix
p3023
(dp3024
S'isArray'
p3025
I00
sS'attrParentLongName'
p3026
Vtarget[0]
p3027
sS'attrChildrenNames'
p3028
(lp3029
sg27
NsS'isMulti'
p3030
I00
sS'isCompound'
p3031
I00
sg17
I00
sg18
(lp3032
sS'isElement'
p3033
I00
ssVmentalRayControls.miProxyRenderable
p3034
(dp3035
S'isArray'
p3036
I00
sS'attrParentLongName'
p3037
VmentalRayControls
p3038
sS'attrChildrenNames'
p3039
(lp3040
sg4
Vbool
p3041
sS'isMulti'
p3042
I00
sS'isCompound'
p3043
I00
sg10
I01
sg11
(lp3044
sS'isElement'
p3045
I00
ssg785
(dp3046
g60
I00
sg4
Vbool
p3047
sg62
I00
sg63
I00
sg10
I01
sg11
(lp3048
ssVinverseMatrix
p3049
(dp3050
S'isArray'
p3051
I00
sg4
Vmatrix
p3052
sS'attrChildrenNames'
p3053
(lp3054
sS'isMulti'
p3055
I00
sS'isCompound'
p3056
I00
sg10
I00
sg11
(lp3057
sS'isElement'
p3058
I00
ssVcenter.boundingBoxCenterY
p3059
(dp3060
S'isArray'
p3061
I00
sS'attrParentLongName'
p3062
Vcenter
p3063
sS'attrChildrenNames'
p3064
(lp3065
sg4
VdoubleLinear
p3066
sS'isMulti'
p3067
I00
sS'isCompound'
p3068
I00
sg10
I01
sg11
(lp3069
sS'isElement'
p3070
I00
ssVcenter.boundingBoxCenterZ
p3071
(dp3072
S'isArray'
p3073
I00
sS'attrParentLongName'
p3074
Vcenter
p3075
sS'attrChildrenNames'
p3076
(lp3077
sg4
VdoubleLinear
p3078
sS'isMulti'
p3079
I00
sS'isCompound'
p3080
I00
sg10
I01
sg11
(lp3081
sS'isElement'
p3082
I00
ssVcenter.boundingBoxCenterX
p3083
(dp3084
S'isArray'
p3085
I00
sS'attrParentLongName'
p3086
Vcenter
p3087
sS'attrChildrenNames'
p3088
(lp3089
sg4
VdoubleLinear
p3090
sS'isMulti'
p3091
I00
sS'isCompound'
p3092
I00
sg10
I01
sg11
(lp3093
sS'isElement'
p3094
I00
ssVmentalRayControls.miGlobillum
p3095
(dp3096
S'isArray'
p3097
I00
sS'attrParentLongName'
p3098
VmentalRayControls
p3099
sS'attrChildrenNames'
p3100
(lp3101
sg4
Venum
p3102
sS'isMulti'
p3103
I00
sS'isCompound'
p3104
I00
sg10
I01
sg11
(lp3105
sS'isElement'
p3106
I00
ss.