(dp0
VisHistoricallyInteresting
p1
(dp2
S'isArray'
p3
I00
sS'attrType'
p4
Vbyte
p5
sS'isSimple'
p6
I00
sS'attrChildrenLongNames'
p7
(lp8
ssVnodeState
p9
(dp10
g3
I00
sg4
Venum
p11
sg6
I01
sg7
(lp12
ssVoutput
p13
(dp14
g3
I00
sg4
Vdouble
p15
sS'isMulti'
p16
I00
sS'isCompound'
p17
I00
sg6
I01
sg7
(lp18
ssVinput
p19
(dp20
g3
I00
sg4
Vtime
p21
sg16
I00
sg17
I00
sg6
I01
sg7
(lp22
ssVoutStippleThreshold
p23
(dp24
g3
I00
sg4
Vdouble
p25
sg6
I01
sg7
(lp26
ssVstippleReverse
p27
(dp28
g3
I00
sg4
Vbool
p29
sg6
I01
sg7
(lp30
ssVcurveColor.curveColorR
p31
(dp32
g3
I00
sg4
Vfloat
p33
sg6
I01
sg7
(lp34
ssVoutStippleRange
p35
(dp36
g3
I00
sg4
VdoubleArray
p37
sg6
I00
sg7
(lp38
ssVinStippleRange
p39
(dp40
g3
I00
sg4
Nsg6
I00
sg7
(lp41
ssVcurveColor.curveColorB
p42
(dp43
g3
I00
sg4
Vfloat
p44
sg6
I01
sg7
(lp45
ssVcurveColor
p46
(dp47
g3
I00
sg4
Vfloat3
p48
sg6
I00
sg7
(lp49
g31
aVcurveColor.curveColorG
p50
ag42
assg50
(dp51
g3
I00
sg4
Vfloat
p52
sg6
I01
sg7
(lp53
ssVcaching
p54
(dp55
g3
I00
sg4
Vbool
p56
sg6
I01
sg7
(lp57
ssVapply
p58
(dp59
g3
I00
sg4
Vfunction
p60
sg6
I00
sg7
(lp61
ssVuseCurveColor
p62
(dp63
g3
I00
sg4
Vbool
p64
sg6
I01
sg7
(lp65
ssVstipplePattern
p66
(dp67
g3
I00
sg4
Venum
p68
sg6
I01
sg7
(lp69
ss.