(dp0
VkeyBreakdown[5]
p1
(dp2
S'isArray'
p3
I00
sS'attrType'
p4
Vbool
p5
sS'isMulti'
p6
I00
sS'isCompound'
p7
I00
sS'isSimple'
p8
I01
sS'attrChildrenLongNames'
p9
(lp10
ssVkeyTanOutType[2]
p11
(dp12
S'isArray'
p13
I00
sS'attrType'
p14
Venum
p15
sS'isMulti'
p16
I00
sS'isCompound'
p17
I00
sS'isSimple'
p18
I01
sS'attrChildrenLongNames'
p19
(lp20
ssVkeyTimeValue[20].keyTime
p21
(dp22
g3
I00
sg4
Vdouble
p23
sS'isMulti'
p24
I00
sS'isCompound'
p25
I00
sg8
I01
sg9
(lp26
ssVkeyTanLocked[13]
p27
(dp28
g3
I00
sg4
Vbool
p29
sg24
I00
sg25
I00
sg8
I01
sg9
(lp30
ssVkeyTanOutX[20]
p31
(dp32
g3
I00
sg4
Vdouble
p33
sg6
I00
sg7
I00
sg8
I01
sg9
(lp34
ssVkeyTimeValue[9].keyTime
p35
(dp36
g3
I00
sg4
Vdouble
p37
sg24
I00
sg25
I00
sg8
I01
sg9
(lp38
ssVkeyTanOutType[13]
p39
(dp40
g3
I00
sg4
Venum
p41
sg24
I00
sg25
I00
sg8
I01
sg9
(lp42
ssVkeyTimeValue[5].keyTime
p43
(dp44
g3
I00
sg4
Vdouble
p45
sg24
I00
sg25
I00
sg8
I01
sg9
(lp46
ssVinStippleRange
p47
(dp48
S'isArray'
p49
I00
sg14
NsS'attrChildrenNames'
p50
(lp51
sS'isMulti'
p52
I00
sS'isCompound'
p53
I00
sg18
I00
sg19
(lp54
sS'isElement'
p55
I00
ssVkeyTanOutX[16]
p56
(dp57
g3
I00
sg4
Vdouble
p58
sg6
I00
sg7
I00
sg8
I01
sg9
(lp59
ssVkeyTanOutType[9]
p60
(dp61
g3
I00
sg4
Venum
p62
sg24
I00
sg25
I00
sg8
I01
sg9
(lp63
ssVkeyTimeValue[32]
p64
(dp65
S'isArray'
p66
I00
sS'isSimple'
p67
I00
sS'attrChildrenLongNames'
p68
(lp69
VkeyTimeValue[32].keyTime
p70
aVkeyTimeValue[32].keyValue
p71
assVkeyTimeValue[23].keyValue
p72
(dp73
g3
I00
sg4
Vdouble
p74
sg24
I00
sg25
I00
sg8
I01
sg9
(lp75
ssVkeyTimeValue[16]
p76
(dp77
g3
I00
sg4
VTdataCompound
p78
sg6
I00
sg8
I00
sg9
(lp79
VkeyTimeValue[16].keyTime
p80
aVkeyTimeValue[16].keyValue
p81
assVkeyWeightLocked[22]
p82
(dp83
g3
I00
sg4
Vbool
p84
sg6
I00
sg7
I00
sg8
I01
sg9
(lp85
ssVkeyTimeValue[0].keyTime
p86
(dp87
g13
I00
sg14
Vdouble
p88
sS'isMulti'
p89
I00
sS'isCompound'
p90
I00
sg18
I01
sg19
(lp91
ssVkeyTanLocked[31]
p92
(dp93
g66
I00
sg67
I00
sg68
(lp94
ssVkeyBreakdown[21]
p95
(dp96
g3
I00
sg4
Vbool
p97
sg6
I00
sg7
I00
sg8
I01
sg9
(lp98
ssVkeyTanLocked[25]
p99
(dp100
g3
I00
sg4
Vbool
p101
sg24
I00
sg25
I00
sg8
I01
sg9
(lp102
ssVkeyTanInY[3]
p103
(dp104
g13
I00
sg6
I00
sg18
I00
sg19
(lp105
ssVkeyWeightLocked[19]
p106
(dp107
g3
I00
sg4
Vbool
p108
sg6
I00
sg7
I00
sg8
I01
sg9
(lp109
ssVkeyTimeValue[8].keyValue
p110
(dp111
g3
I00
sg4
Vdouble
p112
sg24
I00
sg25
I00
sg8
I01
sg9
(lp113
ssVkeyTanOutX[11]
p114
(dp115
g3
I00
sg4
Vdouble
p116
sg6
I00
sg7
I00
sg8
I01
sg9
(lp117
ssVkeyTanInX[22]
p118
(dp119
g3
I00
sg4
Vdouble
p120
sg6
I00
sg7
I00
sg8
I01
sg9
(lp121
ssVkeyTanInType[17]
p122
(dp123
g3
I00
sg4
Venum
p124
sg24
I00
sg25
I00
sg8
I01
sg9
(lp125
ssVkeyTickDrawSpecial[8]
p126
(dp127
g3
I00
sg4
Vbool
p128
sg6
I00
sg7
I00
sg8
I01
sg9
(lp129
ssVkeyTimeValue[24].keyValue
p130
(dp131
g3
I00
sg4
Vdouble
p132
sg24
I00
sg25
I00
sg8
I01
sg9
(lp133
ssVkeyTickDrawSpecial[18]
p134
(dp135
g3
I00
sg4
Vbool
p136
sg6
I00
sg7
I00
sg8
I01
sg9
(lp137
ssVkeyTimeValue[23]
p138
(dp139
g3
I00
sg4
VTdataCompound
p140
sg6
I00
sg8
I00
sg9
(lp141
VkeyTimeValue[23].keyTime
p142
ag72
assVkeyTanOutY[18]
p143
(dp144
g3
I00
sg4
Vdouble
p145
sg6
I00
sg7
I00
sg8
I01
sg9
(lp146
ssVkeyTanOutY[9]
p147
(dp148
g3
I00
sg4
Vdouble
p149
sg6
I00
sg7
I00
sg8
I01
sg9
(lp150
ssVkeyTanInType[22]
p151
(dp152
g3
I00
sg4
Venum
p153
sg24
I00
sg25
I00
sg8
I01
sg9
(lp154
ssVkeyTanInX[0]
p155
(dp156
g13
I00
sg14
Vdouble
p157
sg16
I00
sg17
I00
sg18
I01
sg19
(lp158
ssVkeyTimeValue[30].keyValue
p159
(dp160
g3
I00
sg6
I00
sg8
I00
sg9
(lp161
ssVkeyTanLocked[4]
p162
(dp163
g13
I00
sg6
I00
sg18
I00
sg19
(lp164
ssVkeyTimeValue[24].keyTime
p165
(dp166
g3
I00
sg4
Vdouble
p167
sg24
I00
sg25
I00
sg8
I01
sg9
(lp168
ssVkeyTanOutY[13]
p169
(dp170
g3
I00
sg4
Vdouble
p171
sg6
I00
sg7
I00
sg8
I01
sg9
(lp172
ssVkeyTanOutType[1]
p173
(dp174
g13
I00
sg14
Venum
p175
sg89
I00
sg90
I00
sg18
I01
sg19
(lp176
ssVkeyTanInY[9]
p177
(dp178
g3
I00
sg4
Vdouble
p179
sg6
I00
sg7
I00
sg8
I01
sg9
(lp180
ssVkeyTimeValue[25].keyTime
p181
(dp182
g3
I00
sg4
Vdouble
p183
sg24
I00
sg25
I00
sg8
I01
sg9
(lp184
ssVkeyWeightLocked[5]
p185
(dp186
g3
I00
sg4
Vbool
p187
sg6
I00
sg7
I00
sg8
I01
sg9
(lp188
ssVkeyTanInY[20]
p189
(dp190
g3
I00
sg4
Vdouble
p191
sg6
I00
sg7
I00
sg8
I01
sg9
(lp192
ssVkeyTimeValue[10].keyValue
p193
(dp194
g3
I00
sg4
Vdouble
p195
sg24
I00
sg25
I00
sg8
I01
sg9
(lp196
ssVkeyTanOutY[0]
p197
(dp198
g13
I00
sg14
Vdouble
p199
sg6
I00
sg7
I00
sg18
I01
sg19
(lp200
ssVkeyTanOutType[22]
p201
(dp202
g3
I00
sg4
Venum
p203
sg24
I00
sg25
I00
sg8
I01
sg9
(lp204
ssVkeyTanLocked[14]
p205
(dp206
g3
I00
sg4
Vbool
p207
sg24
I00
sg25
I00
sg8
I01
sg9
(lp208
ssVkeyTanOutType[18]
p209
(dp210
g3
I00
sg4
Venum
p211
sg24
I00
sg25
I00
sg8
I01
sg9
(lp212
ssVkeyTanInType[19]
p213
(dp214
g3
I00
sg4
Venum
p215
sg24
I00
sg25
I00
sg8
I01
sg9
(lp216
ssVkeyTimeValue[3].keyTime
p217
(dp218
g13
I00
sg6
I00
sg18
I00
sg19
(lp219
ssVkeyTanInX[13]
p220
(dp221
g3
I00
sg4
Vdouble
p222
sg6
I00
sg7
I00
sg8
I01
sg9
(lp223
ssVkeyTickDrawSpecial[11]
p224
(dp225
g3
I00
sg4
Vbool
p226
sg6
I00
sg7
I00
sg8
I01
sg9
(lp227
ssVkeyTanInType[29]
p228
(dp229
g3
I00
sg6
I00
sg8
I00
sg9
(lp230
ssVkeyTanOutY[21]
p231
(dp232
g3
I00
sg4
Vdouble
p233
sg6
I00
sg7
I00
sg8
I01
sg9
(lp234
ssVkeyTimeValue[30]
p235
(dp236
g3
I00
sg6
I00
sg8
I00
sg9
(lp237
VkeyTimeValue[30].keyTime
p238
ag159
assVkeyWeightLocked[17]
p239
(dp240
g3
I00
sg4
Vbool
p241
sg6
I00
sg7
I00
sg8
I01
sg9
(lp242
ssVkeyTickDrawSpecial[29]
p243
(dp244
g3
I00
sg6
I00
sg8
I00
sg9
(lp245
ssVkeyTickDrawSpecial
p246
(dp247
g13
I01
sg14
VTdataCompound
p248
sg18
I00
sS'isMulti'
p249
I01
ssVkeyTanInY[0]
p250
(dp251
g13
I00
sg14
Vdouble
p252
sg16
I00
sg17
I00
sg18
I01
sg19
(lp253
ssVkeyWeightLocked[2]
p254
(dp255
g13
I00
sg14
Vbool
p256
sg6
I00
sg7
I00
sg18
I01
sg19
(lp257
ssVkeyTimeValue[6]
p258
(dp259
g3
I00
sg4
VTdataCompound
p260
sg6
I00
sg8
I00
sg9
(lp261
VkeyTimeValue[6].keyTime
p262
aVkeyTimeValue[6].keyValue
p263
assVkeyTimeValue[18].keyTime
p264
(dp265
g3
I00
sg4
Vdouble
p266
sg24
I00
sg25
I00
sg8
I01
sg9
(lp267
ssVkeyBreakdown[9]
p268
(dp269
g3
I00
sg4
Vbool
p270
sg6
I00
sg7
I00
sg8
I01
sg9
(lp271
ssVkeyTanInX[7]
p272
(dp273
g3
I00
sg4
Vdouble
p274
sg6
I00
sg7
I00
sg8
I01
sg9
(lp275
ssVkeyTimeValue[1]
p276
(dp277
g13
I00
sg14
VTdataCompound
p278
sg6
I00
sg18
I00
sg19
(lp279
VkeyTimeValue[1].keyTime
p280
aVkeyTimeValue[1].keyValue
p281
assVapply
p282
(dp283
S'isArray'
p284
I00
sg14
Vfunction
p285
sS'attrChildrenNames'
p286
(lp287
sS'isMulti'
p288
I00
sS'isCompound'
p289
I00
sg18
I00
sg19
(lp290
sS'isElement'
p291
I00
ssVkeyBreakdown[32]
p292
(dp293
g66
I00
sg67
I00
sg68
(lp294
ssVkeyTanLocked[32]
p295
(dp296
g66
I00
sg67
I00
sg68
(lp297
ssVrotationInterpolation
p298
(dp299
g13
I00
sg14
Venum
p300
sg249
I00
sS'isCompound'
p301
I00
sg18
I01
sg19
(lp302
ssVkeyTimeValue[13].keyTime
p303
(dp304
g3
I00
sg4
Vdouble
p305
sg24
I00
sg25
I00
sg8
I01
sg9
(lp306
ssVkeyTickDrawSpecial[20]
p307
(dp308
g3
I00
sg4
Vbool
p309
sg6
I00
sg7
I00
sg8
I01
sg9
(lp310
ssVkeyTanOutX[24]
p311
(dp312
g3
I00
sg4
Vdouble
p313
sg6
I00
sg7
I00
sg8
I01
sg9
(lp314
ssVkeyTanOutType[5]
p315
(dp316
g3
I00
sg4
Venum
p317
sg24
I00
sg25
I00
sg8
I01
sg9
(lp318
ssVkeyTanInType[21]
p319
(dp320
g3
I00
sg4
Venum
p321
sg24
I00
sg25
I00
sg8
I01
sg9
(lp322
ssVkeyTanOutType[17]
p323
(dp324
g3
I00
sg4
Venum
p325
sg24
I00
sg25
I00
sg8
I01
sg9
(lp326
ssVkeyTanInType[12]
p327
(dp328
g3
I00
sg4
Venum
p329
sg24
I00
sg25
I00
sg8
I01
sg9
(lp330
ssVkeyTimeValue[12]
p331
(dp332
g3
I00
sg4
VTdataCompound
p333
sg6
I00
sg8
I00
sg9
(lp334
VkeyTimeValue[12].keyTime
p335
aVkeyTimeValue[12].keyValue
p336
assVkeyTimeValue[28]
p337
(dp338
g3
I00
sg4
VTdataCompound
p339
sg6
I00
sg8
I00
sg9
(lp340
VkeyTimeValue[28].keyTime
p341
aVkeyTimeValue[28].keyValue
p342
assVkeyBreakdown
p343
(dp344
g13
I01
sg14
VTdataCompound
p345
sg18
I00
sg249
I01
ssVkeyTanLocked[21]
p346
(dp347
g3
I00
sg4
Vbool
p348
sg24
I00
sg25
I00
sg8
I01
sg9
(lp349
ssVkeyBreakdown[15]
p350
(dp351
g3
I00
sg4
Vbool
p352
sg6
I00
sg7
I00
sg8
I01
sg9
(lp353
ssVkeyTickDrawSpecial[3]
p354
(dp355
g13
I00
sg6
I00
sg18
I00
sg19
(lp356
ssVkeyTanOutX[2]
p357
(dp358
g13
I00
sg14
Vdouble
p359
sg6
I00
sg7
I00
sg18
I01
sg19
(lp360
ssVoutStippleRange
p361
(dp362
S'isArray'
p363
I00
sg14
VdoubleArray
p364
sS'attrChildrenNames'
p365
(lp366
sS'isMulti'
p367
I00
sS'isCompound'
p368
I00
sg18
I00
sg19
(lp369
sS'isElement'
p370
I00
ssVkeyTanInY[15]
p371
(dp372
g3
I00
sg4
Vdouble
p373
sg6
I00
sg7
I00
sg8
I01
sg9
(lp374
ssVkeyWeightLocked[26]
p375
(dp376
g3
I00
sg4
Vbool
p377
sg6
I00
sg7
I00
sg8
I01
sg9
(lp378
ssVkeyTanOutX[9]
p379
(dp380
g3
I00
sg4
Vdouble
p381
sg6
I00
sg7
I00
sg8
I01
sg9
(lp382
ssVkeyBreakdown[25]
p383
(dp384
g3
I00
sg4
Vbool
p385
sg6
I00
sg7
I00
sg8
I01
sg9
(lp386
ssg342
(dp387
g3
I00
sg4
Vdouble
p388
sg24
I00
sg25
I00
sg8
I01
sg9
(lp389
ssVkeyTanInType[0]
p390
(dp391
g13
I00
sg14
Venum
p392
sg16
I00
sg17
I00
sg18
I01
sg19
(lp393
ssVkeyTanInX[26]
p394
(dp395
g3
I00
sg4
Vdouble
p396
sg6
I00
sg7
I00
sg8
I01
sg9
(lp397
ssVkeyTanLocked[19]
p398
(dp399
g3
I00
sg4
Vbool
p400
sg24
I00
sg25
I00
sg8
I01
sg9
(lp401
ssVkeyTanLocked[9]
p402
(dp403
g3
I00
sg4
Vbool
p404
sg24
I00
sg25
I00
sg8
I01
sg9
(lp405
ssVkeyWeightLocked[6]
p406
(dp407
g3
I00
sg4
Vbool
p408
sg6
I00
sg7
I00
sg8
I01
sg9
(lp409
ssVkeyTanInY[7]
p410
(dp411
g3
I00
sg4
Vdouble
p412
sg6
I00
sg7
I00
sg8
I01
sg9
(lp413
ssVkeyTanOutType[31]
p414
(dp415
g66
I00
sg67
I00
sg68
(lp416
ssVkeyTanOutY[25]
p417
(dp418
g3
I00
sg4
Vdouble
p419
sg6
I00
sg7
I00
sg8
I01
sg9
(lp420
ssg142
(dp421
g3
I00
sg4
Vdouble
p422
sg24
I00
sg25
I00
sg8
I01
sg9
(lp423
ssVkeyWeightLocked[12]
p424
(dp425
g3
I00
sg4
Vbool
p426
sg6
I00
sg7
I00
sg8
I01
sg9
(lp427
ssVkeyTanOutType[25]
p428
(dp429
g3
I00
sg4
Venum
p430
sg24
I00
sg25
I00
sg8
I01
sg9
(lp431
ssg280
(dp432
g13
I00
sg14
Vdouble
p433
sg89
I00
sg90
I00
sg18
I01
sg19
(lp434
ssVkeyTanInY[27]
p435
(dp436
g3
I00
sg4
Vdouble
p437
sg6
I00
sg7
I00
sg8
I01
sg9
(lp438
ssVkeyTanLocked[8]
p439
(dp440
g3
I00
sg4
Vbool
p441
sg24
I00
sg25
I00
sg8
I01
sg9
(lp442
ssVkeyTimeValue[27]
p443
(dp444
g3
I00
sg4
VTdataCompound
p445
sg6
I00
sg8
I00
sg9
(lp446
VkeyTimeValue[27].keyTime
p447
aVkeyTimeValue[27].keyValue
p448
assVkeyTanLocked[0]
p449
(dp450
g13
I00
sg14
Vbool
p451
sg24
I00
sg25
I00
sg18
I01
sg19
(lp452
ssVkeyTanInType[26]
p453
(dp454
g3
I00
sg4
Venum
p455
sg24
I00
sg25
I00
sg8
I01
sg9
(lp456
ssVkeyWeightLocked[7]
p457
(dp458
g3
I00
sg4
Vbool
p459
sg6
I00
sg7
I00
sg8
I01
sg9
(lp460
ssVkeyBreakdown[18]
p461
(dp462
g3
I00
sg4
Vbool
p463
sg6
I00
sg7
I00
sg8
I01
sg9
(lp464
ssVkeyTanInX[16]
p465
(dp466
g3
I00
sg4
Vdouble
p467
sg6
I00
sg7
I00
sg8
I01
sg9
(lp468
ssVkeyTimeValue[22].keyTime
p469
(dp470
g3
I00
sg4
Vdouble
p471
sg24
I00
sg25
I00
sg8
I01
sg9
(lp472
ssVnodeState
p473
(dp474
S'isArray'
p475
I00
sg14
Venum
p476
sS'attrChildrenNames'
p477
(lp478
sS'isMulti'
p479
I00
sS'isCompound'
p480
I00
sg18
I01
sg19
(lp481
sS'isElement'
p482
I00
ssVkeyTimeValue[21].keyValue
p483
(dp484
g3
I00
sg4
Vdouble
p485
sg24
I00
sg25
I00
sg8
I01
sg9
(lp486
ssVkeyTimeValue[9].keyValue
p487
(dp488
g3
I00
sg4
Vdouble
p489
sg24
I00
sg25
I00
sg8
I01
sg9
(lp490
ssVkeyWeightLocked[28]
p491
(dp492
g3
I00
sg4
Vbool
p493
sg6
I00
sg7
I00
sg8
I01
sg9
(lp494
ssVkeyTanOutType[8]
p495
(dp496
g3
I00
sg4
Venum
p497
sg24
I00
sg25
I00
sg8
I01
sg9
(lp498
ssVkeyBreakdown[0]
p499
(dp500
g13
I00
sg14
Vbool
p501
sg6
I00
sg7
I00
sg18
I01
sg19
(lp502
ssVpostInfinity
p503
(dp504
g13
I00
sg14
Venum
p505
sg249
I00
sg301
I00
sg18
I01
sg19
(lp506
ssVkeyTimeValue[2]
p507
(dp508
g13
I00
sg14
VTdataCompound
p509
sg6
I00
sg18
I00
sg19
(lp510
VkeyTimeValue[2].keyTime
p511
aVkeyTimeValue[2].keyValue
p512
assVkeyTanLocked[10]
p513
(dp514
g3
I00
sg4
Vbool
p515
sg24
I00
sg25
I00
sg8
I01
sg9
(lp516
ssVkeyTanOutY[31]
p517
(dp518
g66
I00
sg67
I00
sg68
(lp519
ssg341
(dp520
g3
I00
sg4
Vdouble
p521
sg24
I00
sg25
I00
sg8
I01
sg9
(lp522
ssVkeyTickDrawSpecial[15]
p523
(dp524
g3
I00
sg4
Vbool
p525
sg6
I00
sg7
I00
sg8
I01
sg9
(lp526
ssVkeyTanOutY[4]
p527
(dp528
g13
I00
sg6
I00
sg18
I00
sg19
(lp529
ssVkeyTanOutX[23]
p530
(dp531
g3
I00
sg4
Vdouble
p532
sg6
I00
sg7
I00
sg8
I01
sg9
(lp533
ssVkeyTickDrawSpecial[0]
p534
(dp535
g13
I00
sg14
Vbool
p536
sg6
I00
sg7
I00
sg18
I01
sg19
(lp537
ssVkeyTimeValue[15]
p538
(dp539
g3
I00
sg4
VTdataCompound
p540
sg6
I00
sg8
I00
sg9
(lp541
VkeyTimeValue[15].keyTime
p542
aVkeyTimeValue[15].keyValue
p543
assVkeyBreakdown[20]
p544
(dp545
g3
I00
sg4
Vbool
p546
sg6
I00
sg7
I00
sg8
I01
sg9
(lp547
ssg335
(dp548
g3
I00
sg4
Vdouble
p549
sg24
I00
sg25
I00
sg8
I01
sg9
(lp550
ssg512
(dp551
g13
I00
sg14
Vdouble
p552
sg89
I00
sg90
I00
sg18
I01
sg19
(lp553
ssVkeyBreakdown[16]
p554
(dp555
g3
I00
sg4
Vbool
p556
sg6
I00
sg7
I00
sg8
I01
sg9
(lp557
ssVkeyTanLocked[24]
p558
(dp559
g3
I00
sg4
Vbool
p560
sg24
I00
sg25
I00
sg8
I01
sg9
(lp561
ssVkeyWeightLocked[23]
p562
(dp563
g3
I00
sg4
Vbool
p564
sg6
I00
sg7
I00
sg8
I01
sg9
(lp565
ssVkeyTanInType[16]
p566
(dp567
g3
I00
sg4
Venum
p568
sg24
I00
sg25
I00
sg8
I01
sg9
(lp569
ssVkeyTimeValue[25].keyValue
p570
(dp571
g3
I00
sg4
Vdouble
p572
sg24
I00
sg25
I00
sg8
I01
sg9
(lp573
ssVkeyTanOutType
p574
(dp575
g13
I01
sg14
VTdataCompound
p576
sg18
I00
sg249
I01
ssVkeyTickDrawSpecial[9]
p577
(dp578
g3
I00
sg4
Vbool
p579
sg6
I00
sg7
I00
sg8
I01
sg9
(lp580
ssVcurveColor.curveColorR
p581
(dp582
S'isArray'
p583
I00
sS'attrParentLongName'
p584
VcurveColor
p585
sS'attrChildrenNames'
p586
(lp587
sg14
Vfloat
p588
sS'isMulti'
p589
I00
sS'isCompound'
p590
I00
sg18
I01
sg19
(lp591
sS'isElement'
p592
I00
ssVkeyTanInY[18]
p593
(dp594
g3
I00
sg4
Vdouble
p595
sg6
I00
sg7
I00
sg8
I01
sg9
(lp596
ssVkeyTanOutX[6]
p597
(dp598
g3
I00
sg4
Vdouble
p599
sg6
I00
sg7
I00
sg8
I01
sg9
(lp600
ssVkeyTanOutY[17]
p601
(dp602
g3
I00
sg4
Vdouble
p603
sg6
I00
sg7
I00
sg8
I01
sg9
(lp604
ssVcurveColor.curveColorB
p605
(dp606
S'isArray'
p607
I00
sS'attrParentLongName'
p608
VcurveColor
p609
sS'attrChildrenNames'
p610
(lp611
sg14
Vfloat
p612
sS'isMulti'
p613
I00
sS'isCompound'
p614
I00
sg18
I01
sg19
(lp615
sS'isElement'
p616
I00
ssVkeyTickDrawSpecial[7]
p617
(dp618
g3
I00
sg4
Vbool
p619
sg6
I00
sg7
I00
sg8
I01
sg9
(lp620
ssVcurveColor.curveColorG
p621
(dp622
S'isArray'
p623
I00
sS'attrParentLongName'
p624
VcurveColor
p625
sS'attrChildrenNames'
p626
(lp627
sg14
Vfloat
p628
sS'isMulti'
p629
I00
sS'isCompound'
p630
I00
sg18
I01
sg19
(lp631
sS'isElement'
p632
I00
ssVkeyTickDrawSpecial[32]
p633
(dp634
g66
I00
sg67
I00
sg68
(lp635
ssVkeyBreakdown[29]
p636
(dp637
g3
I00
sg6
I00
sg8
I00
sg9
(lp638
ssVkeyTimeValue[21].keyTime
p639
(dp640
g3
I00
sg4
Vdouble
p641
sg24
I00
sg25
I00
sg8
I01
sg9
(lp642
ssVkeyBreakdown[11]
p643
(dp644
g3
I00
sg4
Vbool
p645
sg6
I00
sg7
I00
sg8
I01
sg9
(lp646
ssVkeyTanInY[11]
p647
(dp648
g3
I00
sg4
Vdouble
p649
sg6
I00
sg7
I00
sg8
I01
sg9
(lp650
ssVkeyTimeValue[7].keyTime
p651
(dp652
g3
I00
sg4
Vdouble
p653
sg24
I00
sg25
I00
sg8
I01
sg9
(lp654
ssVkeyTanInX[30]
p655
(dp656
g3
I00
sg6
I00
sg8
I00
sg9
(lp657
ssVkeyTanInType[4]
p658
(dp659
g13
I00
sg6
I00
sg18
I00
sg19
(lp660
ssg238
(dp661
g3
I00
sg6
I00
sg8
I00
sg9
(lp662
ssVkeyTanInY[23]
p663
(dp664
g3
I00
sg4
Vdouble
p665
sg6
I00
sg7
I00
sg8
I01
sg9
(lp666
ssg447
(dp667
g3
I00
sg4
Vdouble
p668
sg24
I00
sg25
I00
sg8
I01
sg9
(lp669
ssVkeyBreakdown[3]
p670
(dp671
g13
I00
sg6
I00
sg18
I00
sg19
(lp672
ssVkeyTanOutType[19]
p673
(dp674
g3
I00
sg4
Venum
p675
sg24
I00
sg25
I00
sg8
I01
sg9
(lp676
ssVkeyTanLocked[15]
p677
(dp678
g3
I00
sg4
Vbool
p679
sg24
I00
sg25
I00
sg8
I01
sg9
(lp680
ssVkeyTanInType[18]
p681
(dp682
g3
I00
sg4
Venum
p683
sg24
I00
sg25
I00
sg8
I01
sg9
(lp684
ssVkeyTanInY[6]
p685
(dp686
g3
I00
sg4
Vdouble
p687
sg6
I00
sg7
I00
sg8
I01
sg9
(lp688
ssVkeyTickDrawSpecial[26]
p689
(dp690
g3
I00
sg4
Vbool
p691
sg6
I00
sg7
I00
sg8
I01
sg9
(lp692
ssVkeyTanInX[12]
p693
(dp694
g3
I00
sg4
Vdouble
p695
sg6
I00
sg7
I00
sg8
I01
sg9
(lp696
ssVstippleReverse
p697
(dp698
S'isArray'
p699
I00
sg14
Vbool
p700
sS'attrChildrenNames'
p701
(lp702
sS'isMulti'
p703
I00
sS'isCompound'
p704
I00
sg18
I01
sg19
(lp705
sS'isElement'
p706
I00
ssVkeyWeightLocked[16]
p707
(dp708
g3
I00
sg4
Vbool
p709
sg6
I00
sg7
I00
sg8
I01
sg9
(lp710
ssVkeyTanOutY[22]
p711
(dp712
g3
I00
sg4
Vdouble
p713
sg6
I00
sg7
I00
sg8
I01
sg9
(lp714
ssVkeyTanOutType[21]
p715
(dp716
g3
I00
sg4
Venum
p717
sg24
I00
sg25
I00
sg8
I01
sg9
(lp718
ssVkeyTanOutY[1]
p719
(dp720
g13
I00
sg14
Vdouble
p721
sg89
I00
sg90
I00
sg18
I01
sg19
(lp722
ssVkeyWeightLocked[3]
p723
(dp724
g13
I00
sg6
I00
sg18
I00
sg19
(lp725
ssVkeyTanInX[8]
p726
(dp727
g3
I00
sg4
Vdouble
p728
sg6
I00
sg7
I00
sg8
I01
sg9
(lp729
ssVkeyTickDrawSpecial[10]
p730
(dp731
g3
I00
sg4
Vbool
p732
sg6
I00
sg7
I00
sg8
I01
sg9
(lp733
ssVkeyTanOutX[30]
p734
(dp735
g3
I00
sg6
I00
sg8
I00
sg9
(lp736
ssVkeyTimeValue[29].keyValue
p737
(dp738
g3
I00
sg6
I00
sg8
I00
sg9
(lp739
ssVweightedTangents
p740
(dp741
g13
I00
sg14
Vbool
p742
sg89
I00
sg90
I00
sg18
I01
sg19
(lp743
ssVkeyBreakdown[4]
p744
(dp745
g13
I00
sg6
I00
sg18
I00
sg19
(lp746
ssVkeyTimeValue[31].keyTime
p747
(dp748
g66
I00
sg67
I00
sg68
(lp749
ssVkeyTimeValue[8].keyTime
p750
(dp751
g3
I00
sg4
Vdouble
p752
sg24
I00
sg25
I00
sg8
I01
sg9
(lp753
ssVkeyTickDrawSpecial[24]
p754
(dp755
g3
I00
sg4
Vbool
p756
sg6
I00
sg7
I00
sg8
I01
sg9
(lp757
ssVkeyTanOutType[10]
p758
(dp759
g3
I00
sg4
Venum
p760
sg24
I00
sg25
I00
sg8
I01
sg9
(lp761
ssVkeyTimeValue[31].keyValue
p762
(dp763
g66
I00
sg67
I00
sg68
(lp764
ssVkeyTanInType[11]
p765
(dp766
g3
I00
sg4
Venum
p767
sg24
I00
sg25
I00
sg8
I01
sg9
(lp768
ssVkeyTanOutX[27]
p769
(dp770
g3
I00
sg4
Vdouble
p771
sg6
I00
sg7
I00
sg8
I01
sg9
(lp772
ssVkeyTickDrawSpecial[21]
p773
(dp774
g3
I00
sg4
Vbool
p775
sg6
I00
sg7
I00
sg8
I01
sg9
(lp776
ssVkeyTanOutX[17]
p777
(dp778
g3
I00
sg4
Vdouble
p779
sg6
I00
sg7
I00
sg8
I01
sg9
(lp780
ssVkeyTimeValue[29]
p781
(dp782
g3
I00
sg6
I00
sg8
I00
sg9
(lp783
VkeyTimeValue[29].keyTime
p784
ag737
assVkeyBreakdown[12]
p785
(dp786
g3
I00
sg4
Vbool
p787
sg6
I00
sg7
I00
sg8
I01
sg9
(lp788
ssVkeyTanLocked[20]
p789
(dp790
g3
I00
sg4
Vbool
p791
sg24
I00
sg25
I00
sg8
I01
sg9
(lp792
ssVkeyTickDrawSpecial[4]
p793
(dp794
g13
I00
sg6
I00
sg18
I00
sg19
(lp795
ssVkeyTanOutX[1]
p796
(dp797
g13
I00
sg14
Vdouble
p798
sg89
I00
sg90
I00
sg18
I01
sg19
(lp799
ssVkeyTimeValue[11]
p800
(dp801
g3
I00
sg4
VTdataCompound
p802
sg6
I00
sg8
I00
sg9
(lp803
VkeyTimeValue[11].keyTime
p804
aVkeyTimeValue[11].keyValue
p805
assVkeyWeightLocked[27]
p806
(dp807
g3
I00
sg4
Vbool
p808
sg6
I00
sg7
I00
sg8
I01
sg9
(lp809
ssVkeyTanInY[16]
p810
(dp811
g3
I00
sg4
Vdouble
p812
sg6
I00
sg7
I00
sg8
I01
sg9
(lp813
ssVkeyBreakdown[24]
p814
(dp815
g3
I00
sg4
Vbool
p816
sg6
I00
sg7
I00
sg8
I01
sg9
(lp817
ssVkeyTanOutX[8]
p818
(dp819
g3
I00
sg4
Vdouble
p820
sg6
I00
sg7
I00
sg8
I01
sg9
(lp821
ssVkeyTickDrawSpecial[31]
p822
(dp823
g66
I00
sg67
I00
sg68
(lp824
ssVpreInfinity
p825
(dp826
g13
I00
sg14
Venum
p827
sg249
I00
sg301
I00
sg18
I01
sg19
(lp828
ssVkeyTanInX[27]
p829
(dp830
g3
I00
sg4
Vdouble
p831
sg6
I00
sg7
I00
sg8
I01
sg9
(lp832
ssVkeyTanInX
p833
(dp834
g13
I01
sg14
VTdataCompound
p835
sg18
I00
sg249
I01
ssVkeyTanInY
p836
(dp837
g13
I01
sg14
VTdataCompound
p838
sg18
I00
sg249
I01
ssVkeyTimeValue[8]
p839
(dp840
g3
I00
sg4
VTdataCompound
p841
sg6
I00
sg8
I00
sg9
(lp842
g750
ag110
assVkeyTimeValue[20]
p843
(dp844
g3
I00
sg4
VTdataCompound
p845
sg6
I00
sg8
I00
sg9
(lp846
g21
aVkeyTimeValue[20].keyValue
p847
assVkeyTanInType[23]
p848
(dp849
g3
I00
sg4
Venum
p850
sg24
I00
sg25
I00
sg8
I01
sg9
(lp851
ssVkeyTanInY[30]
p852
(dp853
g3
I00
sg6
I00
sg8
I00
sg9
(lp854
ssVkeyTanLocked[7]
p855
(dp856
g3
I00
sg4
Vbool
p857
sg24
I00
sg25
I00
sg8
I01
sg9
(lp858
ssVkeyWeightLocked[8]
p859
(dp860
g3
I00
sg4
Vbool
p861
sg6
I00
sg7
I00
sg8
I01
sg9
(lp862
ssVkeyTanOutY[12]
p863
(dp864
g3
I00
sg4
Vdouble
p865
sg6
I00
sg7
I00
sg8
I01
sg9
(lp866
ssVkeyTanInX[19]
p867
(dp868
g3
I00
sg4
Vdouble
p869
sg6
I00
sg7
I00
sg8
I01
sg9
(lp870
ssVkeyTanLocked[29]
p871
(dp872
g3
I00
sg6
I00
sg8
I00
sg9
(lp873
ssg511
(dp874
g13
I00
sg14
Vdouble
p875
sg89
I00
sg90
I00
sg18
I01
sg19
(lp876
ssVkeyWeightLocked[15]
p877
(dp878
g3
I00
sg4
Vbool
p879
sg6
I00
sg7
I00
sg8
I01
sg9
(lp880
ssVkeyTanInType[8]
p881
(dp882
g3
I00
sg4
Venum
p883
sg24
I00
sg25
I00
sg8
I01
sg9
(lp884
ssVkeyWeightLocked[29]
p885
(dp886
g3
I00
sg6
I00
sg8
I00
sg9
(lp887
ssVkeyTimeValue[4].keyTime
p888
(dp889
g13
I00
sg6
I00
sg18
I00
sg19
(lp890
ssVkeyTanLocked[11]
p891
(dp892
g3
I00
sg4
Vbool
p893
sg24
I00
sg25
I00
sg8
I01
sg9
(lp894
ssVkeyTimeValue[3]
p895
(dp896
g13
I00
sg6
I00
sg18
I00
sg19
(lp897
g217
aVkeyTimeValue[3].keyValue
p898
assVkeyTanOutX[18]
p899
(dp900
g3
I00
sg4
Vdouble
p901
sg6
I00
sg7
I00
sg8
I01
sg9
(lp902
ssVkeyTickDrawSpecial[14]
p903
(dp904
g3
I00
sg4
Vbool
p905
sg6
I00
sg7
I00
sg8
I01
sg9
(lp906
ssVkeyTanOutX[22]
p907
(dp908
g3
I00
sg4
Vdouble
p909
sg6
I00
sg7
I00
sg8
I01
sg9
(lp910
ssVkeyTanOutY[5]
p911
(dp912
g3
I00
sg4
Vdouble
p913
sg6
I00
sg7
I00
sg8
I01
sg9
(lp914
ssVkeyTickDrawSpecial[22]
p915
(dp916
g3
I00
sg4
Vbool
p917
sg6
I00
sg7
I00
sg8
I01
sg9
(lp918
ssg805
(dp919
g3
I00
sg4
Vdouble
p920
sg24
I00
sg25
I00
sg8
I01
sg9
(lp921
ssVkeyWeightLocked[20]
p922
(dp923
g3
I00
sg4
Vbool
p924
sg6
I00
sg7
I00
sg8
I01
sg9
(lp925
ssVkeyBreakdown[23]
p926
(dp927
g3
I00
sg4
Vbool
p928
sg6
I00
sg7
I00
sg8
I01
sg9
(lp929
ssVkeyTimeValue[19].keyTime
p930
(dp931
g3
I00
sg4
Vdouble
p932
sg24
I00
sg25
I00
sg8
I01
sg9
(lp933
ssVkeyTanOutX[13]
p934
(dp935
g3
I00
sg4
Vdouble
p936
sg6
I00
sg7
I00
sg8
I01
sg9
(lp937
ssVkeyTimeValue[4].keyValue
p938
(dp939
g13
I00
sg6
I00
sg18
I00
sg19
(lp940
ssVkeyBreakdown[8]
p941
(dp942
g3
I00
sg4
Vbool
p943
sg6
I00
sg7
I00
sg8
I01
sg9
(lp944
ssVkeyTanOutType[14]
p945
(dp946
g3
I00
sg4
Venum
p947
sg24
I00
sg25
I00
sg8
I01
sg9
(lp948
ssVcaching
p949
(dp950
S'isArray'
p951
I00
sg14
Vbool
p952
sS'attrChildrenNames'
p953
(lp954
sS'isMulti'
p955
I00
sS'isCompound'
p956
I00
sg18
I01
sg19
(lp957
sS'isElement'
p958
I00
ssVkeyTanInType[15]
p959
(dp960
g3
I00
sg4
Venum
p961
sg24
I00
sg25
I00
sg8
I01
sg9
(lp962
ssg336
(dp963
g3
I00
sg4
Vdouble
p964
sg24
I00
sg25
I00
sg8
I01
sg9
(lp965
ssVkeyTanInY[19]
p966
(dp967
g3
I00
sg4
Vdouble
p968
sg6
I00
sg7
I00
sg8
I01
sg9
(lp969
ssVkeyTanOutX[5]
p970
(dp971
g3
I00
sg4
Vdouble
p972
sg6
I00
sg7
I00
sg8
I01
sg9
(lp973
ssVkeyTanLocked[3]
p974
(dp975
g13
I00
sg6
I00
sg18
I00
sg19
(lp976
ssVkeyTanOutY[16]
p977
(dp978
g3
I00
sg4
Vdouble
p979
sg6
I00
sg7
I00
sg8
I01
sg9
(lp980
ssVkeyTanInX[6]
p981
(dp982
g3
I00
sg4
Vdouble
p983
sg6
I00
sg7
I00
sg8
I01
sg9
(lp984
ssVkeyTimeValue[5].keyValue
p985
(dp986
g3
I00
sg4
Vdouble
p987
sg24
I00
sg25
I00
sg8
I01
sg9
(lp988
ssVkeyTanInType[20]
p989
(dp990
g3
I00
sg4
Venum
p991
sg24
I00
sg25
I00
sg8
I01
sg9
(lp992
ssVkeyTanOutY[11]
p993
(dp994
g3
I00
sg4
Vdouble
p995
sg6
I00
sg7
I00
sg8
I01
sg9
(lp996
ssVbinMembership
p997
(dp998
g13
I00
sg14
Vstring
p999
sg249
I00
sg301
I00
sg18
I01
sg19
(lp1000
ssVkeyTanOutY[28]
p1001
(dp1002
g3
I00
sg4
Vdouble
p1003
sg6
I00
sg7
I00
sg8
I01
sg9
(lp1004
ssVkeyTanInX[1]
p1005
(dp1006
g13
I00
sg14
Vdouble
p1007
sg89
I00
sg90
I00
sg18
I01
sg19
(lp1008
ssVkeyBreakdown[28]
p1009
(dp1010
g3
I00
sg4
Vbool
p1011
sg6
I00
sg7
I00
sg8
I01
sg9
(lp1012
ssVkeyTanInY[26]
p1013
(dp1014
g3
I00
sg4
Vdouble
p1015
sg6
I00
sg7
I00
sg8
I01
sg9
(lp1016
ssVkeyTanOutX[29]
p1017
(dp1018
g3
I00
sg6
I00
sg8
I00
sg9
(lp1019
ssVkeyTanOutY[2]
p1020
(dp1021
g13
I00
sg14
Vdouble
p1022
sg6
I00
sg7
I00
sg18
I01
sg19
(lp1023
ssg80
(dp1024
g3
I00
sg4
Vdouble
p1025
sg24
I00
sg25
I00
sg8
I01
sg9
(lp1026
ssVkeyTanOutY[30]
p1027
(dp1028
g3
I00
sg6
I00
sg8
I00
sg9
(lp1029
ssVkeyTanOutType[24]
p1030
(dp1031
g3
I00
sg4
Venum
p1032
sg24
I00
sg25
I00
sg8
I01
sg9
(lp1033
ssVkeyTanOutY[26]
p1034
(dp1035
g3
I00
sg4
Vdouble
p1036
sg6
I00
sg7
I00
sg8
I01
sg9
(lp1037
ssVkeyTanInType[1]
p1038
(dp1039
g13
I00
sg14
Venum
p1040
sg89
I00
sg90
I00
sg18
I01
sg19
(lp1041
ssVkeyTickDrawSpecial[13]
p1042
(dp1043
g3
I00
sg4
Vbool
p1044
sg6
I00
sg7
I00
sg8
I01
sg9
(lp1045
ssVkeyTimeValue[24]
p1046
(dp1047
g3
I00
sg4
VTdataCompound
p1048
sg6
I00
sg8
I00
sg9
(lp1049
g165
ag130
assVkeyTanInType[27]
p1050
(dp1051
g3
I00
sg4
Venum
p1052
sg24
I00
sg25
I00
sg8
I01
sg9
(lp1053
ssVkeyTanInY[29]
p1054
(dp1055
g3
I00
sg6
I00
sg8
I00
sg9
(lp1056
ssVkeyTanOutType[32]
p1057
(dp1058
g66
I00
sg67
I00
sg68
(lp1059
ssVkeyTanOutX[14]
p1060
(dp1061
g3
I00
sg4
Vdouble
p1062
sg6
I00
sg7
I00
sg8
I01
sg9
(lp1063
ssVkeyBreakdown[19]
p1064
(dp1065
g3
I00
sg4
Vbool
p1066
sg6
I00
sg7
I00
sg8
I01
sg9
(lp1067
ssVkeyTimeValue[4]
p1068
(dp1069
g13
I00
sg6
I00
sg18
I00
sg19
(lp1070
g888
ag938
assVkeyTanInX[15]
p1071
(dp1072
g3
I00
sg4
Vdouble
p1073
sg6
I00
sg7
I00
sg8
I01
sg9
(lp1074
ssVkeyTanOutType[0]
p1075
(dp1076
g13
I00
sg14
Venum
p1077
sg16
I00
sg17
I00
sg18
I01
sg19
(lp1078
ssVkeyTanInX[23]
p1079
(dp1080
g3
I00
sg4
Vdouble
p1081
sg6
I00
sg7
I00
sg8
I01
sg9
(lp1082
ssVkeyBreakdown[30]
p1083
(dp1084
g3
I00
sg6
I00
sg8
I00
sg9
(lp1085
ssVkeyTanOutX[26]
p1086
(dp1087
g3
I00
sg4
Vdouble
p1088
sg6
I00
sg7
I00
sg8
I01
sg9
(lp1089
ssVkeyTanInType[10]
p1090
(dp1091
g3
I00
sg4
Venum
p1092
sg24
I00
sg25
I00
sg8
I01
sg9
(lp1093
ssVkeyTanOutType[7]
p1094
(dp1095
g3
I00
sg4
Venum
p1096
sg24
I00
sg25
I00
sg8
I01
sg9
(lp1097
ssVkeyTanOutType[29]
p1098
(dp1099
g3
I00
sg6
I00
sg8
I00
sg9
(lp1100
ssVkeyTimeValue[10].keyTime
p1101
(dp1102
g3
I00
sg4
Vdouble
p1103
sg24
I00
sg25
I00
sg8
I01
sg9
(lp1104
ssVkeyTanOutType[11]
p1105
(dp1106
g3
I00
sg4
Venum
p1107
sg24
I00
sg25
I00
sg8
I01
sg9
(lp1108
ssVkeyTimeValue[25]
p1109
(dp1110
g3
I00
sg4
VTdataCompound
p1111
sg6
I00
sg8
I00
sg9
(lp1112
g181
ag570
assVkeyTickDrawSpecial[1]
p1113
(dp1114
g13
I00
sg14
Vbool
p1115
sg6
I00
sg7
I00
sg18
I01
sg19
(lp1116
ssVkeyTimeValue[14]
p1117
(dp1118
g3
I00
sg4
VTdataCompound
p1119
sg6
I00
sg8
I00
sg9
(lp1120
VkeyTimeValue[14].keyTime
p1121
aVkeyTimeValue[14].keyValue
p1122
assg263
(dp1123
g3
I00
sg4
Vdouble
p1124
sg24
I00
sg25
I00
sg8
I01
sg9
(lp1125
ssVkeyBreakdown[27]
p1126
(dp1127
g3
I00
sg4
Vbool
p1128
sg6
I00
sg7
I00
sg8
I01
sg9
(lp1129
ssVkeyTanInY[12]
p1130
(dp1131
g3
I00
sg4
Vdouble
p1132
sg6
I00
sg7
I00
sg8
I01
sg9
(lp1133
ssVkeyWeightLocked[32]
p1134
(dp1135
g66
I00
sg67
I00
sg68
(lp1136
ssVkeyTimeValue[17].keyTime
p1137
(dp1138
g3
I00
sg4
Vdouble
p1139
sg24
I00
sg25
I00
sg8
I01
sg9
(lp1140
ssVkeyTanLocked[27]
p1141
(dp1142
g3
I00
sg4
Vbool
p1143
sg24
I00
sg25
I00
sg8
I01
sg9
(lp1144
ssg1121
(dp1145
g3
I00
sg4
Vdouble
p1146
sg24
I00
sg25
I00
sg8
I01
sg9
(lp1147
ssVkeyBreakdown[17]
p1148
(dp1149
g3
I00
sg4
Vbool
p1150
sg6
I00
sg7
I00
sg8
I01
sg9
(lp1151
ssVoutStippleThreshold
p1152
(dp1153
S'isArray'
p1154
I00
sg14
Vdouble
p1155
sS'attrChildrenNames'
p1156
(lp1157
sS'isMulti'
p1158
I00
sS'isCompound'
p1159
I00
sg18
I01
sg19
(lp1160
sS'isElement'
p1161
I00
ssVkeyTanLocked
p1162
(dp1163
g13
I01
sg14
VTdataCompound
p1164
sg18
I00
sg249
I01
ssVkeyWeightLocked[24]
p1165
(dp1166
g3
I00
sg4
Vbool
p1167
sg6
I00
sg7
I00
sg8
I01
sg9
(lp1168
ssVkeyTanInX[20]
p1169
(dp1170
g3
I00
sg4
Vdouble
p1171
sg6
I00
sg7
I00
sg8
I01
sg9
(lp1172
ssVkeyTickDrawSpecial[28]
p1173
(dp1174
g3
I00
sg4
Vbool
p1175
sg6
I00
sg7
I00
sg8
I01
sg9
(lp1176
ssVkeyTanOutY[27]
p1177
(dp1178
g3
I00
sg4
Vdouble
p1179
sg6
I00
sg7
I00
sg8
I01
sg9
(lp1180
ssVkeyTanInY[31]
p1181
(dp1182
g66
I00
sg67
I00
sg68
(lp1183
ssVkeyTanInX[2]
p1184
(dp1185
g13
I00
sg14
Vdouble
p1186
sg6
I00
sg7
I00
sg18
I01
sg19
(lp1187
ssg448
(dp1188
g3
I00
sg4
Vdouble
p1189
sg24
I00
sg25
I00
sg8
I01
sg9
(lp1190
ssVkeyTanInY[5]
p1191
(dp1192
g3
I00
sg4
Vdouble
p1193
sg6
I00
sg7
I00
sg8
I01
sg9
(lp1194
ssVkeyTimeValue[9]
p1195
(dp1196
g3
I00
sg4
VTdataCompound
p1197
sg6
I00
sg8
I00
sg9
(lp1198
g35
ag487
assVkeyTanInType[24]
p1199
(dp1200
g3
I00
sg4
Venum
p1201
sg24
I00
sg25
I00
sg8
I01
sg9
(lp1202
ssVkeyTanInType[2]
p1203
(dp1204
g13
I00
sg14
Venum
p1205
sg16
I00
sg17
I00
sg18
I01
sg19
(lp1206
ssVkeyTanInY[25]
p1207
(dp1208
g3
I00
sg4
Vdouble
p1209
sg6
I00
sg7
I00
sg8
I01
sg9
(lp1210
ssVkeyTanOutType[27]
p1211
(dp1212
g3
I00
sg4
Venum
p1213
sg24
I00
sg25
I00
sg8
I01
sg9
(lp1214
ssVkeyWeightLocked[10]
p1215
(dp1216
g3
I00
sg4
Vbool
p1217
sg6
I00
sg7
I00
sg8
I01
sg9
(lp1218
ssVkeyTanInType[32]
p1219
(dp1220
g66
I00
sg67
I00
sg68
(lp1221
ssVisHistoricallyInteresting
p1222
(dp1223
S'isArray'
p1224
I00
sg14
Vbyte
p1225
sS'attrChildrenNames'
p1226
(lp1227
sS'isMulti'
p1228
I00
sS'isCompound'
p1229
I00
sg18
I00
sg19
(lp1230
sS'isElement'
p1231
I00
ssVkeyTimeValue.keyValue
p1232
(dp1233
S'attrParentLongName'
p1234
VkeyTimeValue
p1235
ssVkeyWeightLocked[9]
p1236
(dp1237
g3
I00
sg4
Vbool
p1238
sg6
I00
sg7
I00
sg8
I01
sg9
(lp1239
ssVkeyTimeValue[19]
p1240
(dp1241
g3
I00
sg4
VTdataCompound
p1242
sg6
I00
sg8
I00
sg9
(lp1243
g930
aVkeyTimeValue[19].keyValue
p1244
assVkeyTanLocked[6]
p1245
(dp1246
g3
I00
sg4
Vbool
p1247
sg24
I00
sg25
I00
sg8
I01
sg9
(lp1248
ssVkeyTimeValue[21]
p1249
(dp1250
g3
I00
sg4
VTdataCompound
p1251
sg6
I00
sg8
I00
sg9
(lp1252
g639
ag483
assVkeyTanOutY[15]
p1253
(dp1254
g3
I00
sg4
Vdouble
p1255
sg6
I00
sg7
I00
sg8
I01
sg9
(lp1256
ssVkeyTanInType
p1257
(dp1258
g13
I01
sg14
VTdataCompound
p1259
sg18
I00
sg249
I01
ssVkeyTanInX[18]
p1260
(dp1261
g3
I00
sg4
Vdouble
p1262
sg6
I00
sg7
I00
sg8
I01
sg9
(lp1263
ssVkeyTimeValue
p1264
(dp1265
g13
I01
sg14
VTdataCompound
p1266
sg18
I00
sg249
I01
ssVkeyTanLocked[28]
p1267
(dp1268
g3
I00
sg4
Vbool
p1269
sg24
I00
sg25
I00
sg8
I01
sg9
(lp1270
ssVkeyTimeValue[0].keyValue
p1271
(dp1272
g13
I00
sg14
Vdouble
p1273
sg89
I00
sg90
I00
sg18
I01
sg19
(lp1274
ssg81
(dp1275
g3
I00
sg4
Vdouble
p1276
sg24
I00
sg25
I00
sg8
I01
sg9
(lp1277
ssVkeyTanInType[5]
p1278
(dp1279
g3
I00
sg4
Venum
p1280
sg24
I00
sg25
I00
sg8
I01
sg9
(lp1281
ssVkeyTanOutType[4]
p1282
(dp1283
g13
I00
sg6
I00
sg18
I00
sg19
(lp1284
ssVkeyTanInY[22]
p1285
(dp1286
g3
I00
sg4
Vdouble
p1287
sg6
I00
sg7
I00
sg8
I01
sg9
(lp1288
ssVkeyBreakdown[2]
p1289
(dp1290
g13
I00
sg14
Vbool
p1291
sg6
I00
sg7
I00
sg18
I01
sg19
(lp1292
ssVkeyTanLocked[16]
p1293
(dp1294
g3
I00
sg4
Vbool
p1295
sg24
I00
sg25
I00
sg8
I01
sg9
(lp1296
ssVkeyTimeValue[5]
p1297
(dp1298
g3
I00
sg4
VTdataCompound
p1299
sg6
I00
sg8
I00
sg9
(lp1300
g43
ag985
assVkeyTimeValue[13].keyValue
p1301
(dp1302
g3
I00
sg4
Vdouble
p1303
sg24
I00
sg25
I00
sg8
I01
sg9
(lp1304
ssVkeyTickDrawSpecial[27]
p1305
(dp1306
g3
I00
sg4
Vbool
p1307
sg6
I00
sg7
I00
sg8
I01
sg9
(lp1308
ssVkeyTimeValue[0]
p1309
(dp1310
g13
I00
sg14
VTdataCompound
p1311
sg6
I00
sg18
I00
sg19
(lp1312
g86
ag1271
assVkeyTanOutType[20]
p1313
(dp1314
g3
I00
sg4
Venum
p1315
sg24
I00
sg25
I00
sg8
I01
sg9
(lp1316
ssVkeyTanInX[11]
p1317
(dp1318
g3
I00
sg4
Vdouble
p1319
sg6
I00
sg7
I00
sg8
I01
sg9
(lp1320
ssVkeyTanOutY
p1321
(dp1322
g13
I01
sg14
VTdataCompound
p1323
sg18
I00
sg249
I01
ssVkeyWeightLocked[0]
p1324
(dp1325
g13
I00
sg14
Vbool
p1326
sg6
I00
sg7
I00
sg18
I01
sg19
(lp1327
ssVkeyTanOutY[6]
p1328
(dp1329
g3
I00
sg4
Vdouble
p1330
sg6
I00
sg7
I00
sg8
I01
sg9
(lp1331
ssVkeyTanInX[9]
p1332
(dp1333
g3
I00
sg4
Vdouble
p1334
sg6
I00
sg7
I00
sg8
I01
sg9
(lp1335
ssVkeyTanOutX[31]
p1336
(dp1337
g66
I00
sg67
I00
sg68
(lp1338
ssVkeyTanInY[2]
p1339
(dp1340
g13
I00
sg14
Vdouble
p1341
sg6
I00
sg7
I00
sg18
I01
sg19
(lp1342
ssVkeyTickDrawSpecial[17]
p1343
(dp1344
g3
I00
sg4
Vbool
p1345
sg6
I00
sg7
I00
sg8
I01
sg9
(lp1346
ssVkeyTimeValue[17]
p1347
(dp1348
g3
I00
sg4
VTdataCompound
p1349
sg6
I00
sg8
I00
sg9
(lp1350
g1137
aVkeyTimeValue[17].keyValue
p1351
assVkeyWeightLocked[21]
p1352
(dp1353
g3
I00
sg4
Vbool
p1354
sg6
I00
sg7
I00
sg8
I01
sg9
(lp1355
ssVkeyTimeValue[7].keyValue
p1356
(dp1357
g3
I00
sg4
Vdouble
p1358
sg24
I00
sg25
I00
sg8
I01
sg9
(lp1359
ssVkeyTanLocked[30]
p1360
(dp1361
g3
I00
sg6
I00
sg8
I00
sg9
(lp1362
ssg784
(dp1363
g3
I00
sg6
I00
sg8
I00
sg9
(lp1364
ssVkeyBreakdown[22]
p1365
(dp1366
g3
I00
sg4
Vbool
p1367
sg6
I00
sg7
I00
sg8
I01
sg9
(lp1368
ssg262
(dp1369
g3
I00
sg4
Vdouble
p1370
sg24
I00
sg25
I00
sg8
I01
sg9
(lp1371
ssVkeyTanOutX[10]
p1372
(dp1373
g3
I00
sg4
Vdouble
p1374
sg6
I00
sg7
I00
sg8
I01
sg9
(lp1375
ssVkeyTanOutType[15]
p1376
(dp1377
g3
I00
sg4
Venum
p1378
sg24
I00
sg25
I00
sg8
I01
sg9
(lp1379
ssVcurveColor
p1380
(dp1381
S'isArray'
p1382
I00
sg14
Vfloat3
p1383
sS'attrChildrenNames'
p1384
(lp1385
VcurveColor.curveColorR
p1386
aVcurveColor.curveColorG
p1387
aVcurveColor.curveColorB
p1388
asS'isMulti'
p1389
I00
sS'isCompound'
p1390
I01
sg18
I00
sg19
(lp1391
VcurveColor.curveColorR
p1392
aVcurveColor.curveColorG
p1393
aVcurveColor.curveColorB
p1394
asS'isElement'
p1395
I00
ssVkeyBreakdown[7]
p1396
(dp1397
g3
I00
sg4
Vbool
p1398
sg6
I00
sg7
I00
sg8
I01
sg9
(lp1399
ssg543
(dp1400
g3
I00
sg4
Vdouble
p1401
sg24
I00
sg25
I00
sg8
I01
sg9
(lp1402
ssVkeyTanInType[14]
p1403
(dp1404
g3
I00
sg4
Venum
p1405
sg24
I00
sg25
I00
sg8
I01
sg9
(lp1406
ssVkeyTanOutX[0]
p1407
(dp1408
g13
I00
sg14
Vdouble
p1409
sg6
I00
sg7
I00
sg18
I01
sg19
(lp1410
ssg898
(dp1411
g13
I00
sg6
I00
sg18
I00
sg19
(lp1412
ssVkeyBreakdown[13]
p1413
(dp1414
g3
I00
sg4
Vbool
p1415
sg6
I00
sg7
I00
sg8
I01
sg9
(lp1416
ssVkeyTimeValue[10]
p1417
(dp1418
g3
I00
sg4
VTdataCompound
p1419
sg6
I00
sg8
I00
sg9
(lp1420
g1101
ag193
assVkeyTickDrawSpecial[5]
p1421
(dp1422
g3
I00
sg4
Vbool
p1423
sg6
I00
sg7
I00
sg8
I01
sg9
(lp1424
ssVkeyTanInX[24]
p1425
(dp1426
g3
I00
sg4
Vdouble
p1427
sg6
I00
sg7
I00
sg8
I01
sg9
(lp1428
ssVkeyTickDrawSpecial[30]
p1429
(dp1430
g3
I00
sg6
I00
sg8
I00
sg9
(lp1431
ssVkeyTanInY[17]
p1432
(dp1433
g3
I00
sg4
Vdouble
p1434
sg6
I00
sg7
I00
sg8
I01
sg9
(lp1435
ssg281
(dp1436
g13
I00
sg14
Vdouble
p1437
sg89
I00
sg90
I00
sg18
I01
sg19
(lp1438
ssVkeyTanInX[5]
p1439
(dp1440
g3
I00
sg4
Vdouble
p1441
sg6
I00
sg7
I00
sg8
I01
sg9
(lp1442
ssVkeyTanLocked[23]
p1443
(dp1444
g3
I00
sg4
Vbool
p1445
sg24
I00
sg25
I00
sg8
I01
sg9
(lp1446
ssVtangentType
p1447
(dp1448
g13
I00
sg14
Venum
p1449
sg89
I00
sg90
I00
sg18
I01
sg19
(lp1450
ssVkeyTanInY[21]
p1451
(dp1452
g3
I00
sg4
Vdouble
p1453
sg6
I00
sg7
I00
sg8
I01
sg9
(lp1454
ssVkeyWeightLocked[4]
p1455
(dp1456
g13
I00
sg6
I00
sg18
I00
sg19
(lp1457
ssVkeyTanOutX[28]
p1458
(dp1459
g3
I00
sg4
Vdouble
p1460
sg6
I00
sg7
I00
sg8
I01
sg9
(lp1461
ssVkeyTanOutY[3]
p1462
(dp1463
g13
I00
sg6
I00
sg18
I00
sg19
(lp1464
ssVkeyTimeValue[26].keyTime
p1465
(dp1466
g3
I00
sg4
Vdouble
p1467
sg24
I00
sg25
I00
sg8
I01
sg9
(lp1468
ssVkeyTanOutType[23]
p1469
(dp1470
g3
I00
sg4
Venum
p1471
sg24
I00
sg25
I00
sg8
I01
sg9
(lp1472
ssVkeyWeightLocked[14]
p1473
(dp1474
g3
I00
sg4
Vbool
p1475
sg6
I00
sg7
I00
sg8
I01
sg9
(lp1476
ssVkeyWeightLocked[30]
p1477
(dp1478
g3
I00
sg6
I00
sg8
I00
sg9
(lp1479
ssVkeyTanInType[6]
p1480
(dp1481
g3
I00
sg4
Venum
p1482
sg24
I00
sg25
I00
sg8
I01
sg9
(lp1483
ssVkeyTickDrawSpecial[12]
p1484
(dp1485
g3
I00
sg4
Vbool
p1486
sg6
I00
sg7
I00
sg8
I01
sg9
(lp1487
ssVkeyTanInX[14]
p1488
(dp1489
g3
I00
sg4
Vdouble
p1490
sg6
I00
sg7
I00
sg8
I01
sg9
(lp1491
ssVkeyTanInType[28]
p1492
(dp1493
g3
I00
sg4
Venum
p1494
sg6
I00
sg7
I00
sg8
I01
sg9
(lp1495
ssVkeyTimeValue[31]
p1496
(dp1497
g66
I00
sg67
I00
sg68
(lp1498
g747
ag762
assVkeyTanOutY[20]
p1499
(dp1500
g3
I00
sg4
Vdouble
p1501
sg6
I00
sg7
I00
sg8
I01
sg9
(lp1502
ssVkeyTanInY[28]
p1503
(dp1504
g3
I00
sg4
Vdouble
p1505
sg6
I00
sg7
I00
sg8
I01
sg9
(lp1506
ssVkeyTanInY[1]
p1507
(dp1508
g13
I00
sg14
Vdouble
p1509
sg89
I00
sg90
I00
sg18
I01
sg19
(lp1510
ssVinput
p1511
(dp1512
S'isArray'
p1513
I00
sS'attrType'
p1514
Vdouble
p1515
sS'attrChildrenNames'
p1516
(lp1517
sS'isMulti'
p1518
I00
sS'isCompound'
p1519
I00
sS'isSimple'
p1520
I01
sS'attrChildrenLongNames'
p1521
(lp1522
sS'isElement'
p1523
I00
ssVkeyTanOutX
p1524
(dp1525
g13
I01
sg14
VTdataCompound
p1526
sg18
I00
sg249
I01
ssVstipplePattern
p1527
(dp1528
S'isArray'
p1529
I00
sg14
Venum
p1530
sS'attrChildrenNames'
p1531
(lp1532
sS'isMulti'
p1533
I00
sS'isCompound'
p1534
I00
sg18
I01
sg19
(lp1535
sS'isElement'
p1536
I00
ssVkeyTanOutType[3]
p1537
(dp1538
g13
I00
sg6
I00
sg18
I00
sg19
(lp1539
ssVkeyBreakdown[6]
p1540
(dp1541
g3
I00
sg4
Vbool
p1542
sg6
I00
sg7
I00
sg8
I01
sg9
(lp1543
ssVkeyTanOutType[12]
p1544
(dp1545
g3
I00
sg4
Venum
p1546
sg24
I00
sg25
I00
sg8
I01
sg9
(lp1547
ssVkeyTanLocked[12]
p1548
(dp1549
g3
I00
sg4
Vbool
p1550
sg24
I00
sg25
I00
sg8
I01
sg9
(lp1551
ssVkeyTanOutY[23]
p1552
(dp1553
g3
I00
sg4
Vdouble
p1554
sg6
I00
sg7
I00
sg8
I01
sg9
(lp1555
ssg1351
(dp1556
g3
I00
sg4
Vdouble
p1557
sg24
I00
sg25
I00
sg8
I01
sg9
(lp1558
ssVkeyTanInType[9]
p1559
(dp1560
g3
I00
sg4
Venum
p1561
sg24
I00
sg25
I00
sg8
I01
sg9
(lp1562
ssVkeyTanOutX[19]
p1563
(dp1564
g3
I00
sg4
Vdouble
p1565
sg6
I00
sg7
I00
sg8
I01
sg9
(lp1566
ssVoutput
p1567
(dp1568
S'isArray'
p1569
I00
sg1514
Vdouble
p1570
sS'attrChildrenNames'
p1571
(lp1572
sS'isMulti'
p1573
I00
sS'isWritable'
p1574
NsS'isCompound'
p1575
I00
sg1520
I01
sg1521
(lp1576
sS'isElement'
p1577
I00
ssVuseCurveColor
p1578
(dp1579
S'isArray'
p1580
I00
sg14
Vbool
p1581
sS'attrChildrenNames'
p1582
(lp1583
sS'isMulti'
p1584
I00
sS'isCompound'
p1585
I00
sg18
I01
sg19
(lp1586
sS'isElement'
p1587
I00
ssVkeyTickDrawSpecial[23]
p1588
(dp1589
g3
I00
sg4
Vbool
p1590
sg6
I00
sg7
I00
sg8
I01
sg9
(lp1591
ssVkeyTanOutX[21]
p1592
(dp1593
g3
I00
sg4
Vdouble
p1594
sg6
I00
sg7
I00
sg8
I01
sg9
(lp1595
ssg70
(dp1596
g66
I00
sg67
I00
sg68
(lp1597
ssVkeyTimeValue[13]
p1598
(dp1599
g3
I00
sg4
VTdataCompound
p1600
sg6
I00
sg8
I00
sg9
(lp1601
g303
ag1301
assVkeyTickDrawSpecial[2]
p1602
(dp1603
g13
I00
sg14
Vbool
p1604
sg6
I00
sg7
I00
sg18
I01
sg19
(lp1605
ssVkeyWeightLocked[31]
p1606
(dp1607
g66
I00
sg67
I00
sg68
(lp1608
ssVkeyBreakdown[26]
p1609
(dp1610
g3
I00
sg4
Vbool
p1611
sg6
I00
sg7
I00
sg8
I01
sg9
(lp1612
ssVkeyTanLocked[26]
p1613
(dp1614
g3
I00
sg4
Vbool
p1615
sg24
I00
sg25
I00
sg8
I01
sg9
(lp1616
ssVkeyTanInY[13]
p1617
(dp1618
g3
I00
sg4
Vdouble
p1619
sg6
I00
sg7
I00
sg8
I01
sg9
(lp1620
ssVkeyTanOutX[3]
p1621
(dp1622
g13
I00
sg6
I00
sg18
I00
sg19
(lp1623
ssVkeyBreakdown[14]
p1624
(dp1625
g3
I00
sg4
Vbool
p1626
sg6
I00
sg7
I00
sg8
I01
sg9
(lp1627
ssVkeyTanInY[14]
p1628
(dp1629
g3
I00
sg4
Vdouble
p1630
sg6
I00
sg7
I00
sg8
I01
sg9
(lp1631
ssVkeyWeightLocked[11]
p1632
(dp1633
g3
I00
sg4
Vbool
p1634
sg6
I00
sg7
I00
sg8
I01
sg9
(lp1635
ssVkeyWeightLocked[25]
p1636
(dp1637
g3
I00
sg4
Vbool
p1638
sg6
I00
sg7
I00
sg8
I01
sg9
(lp1639
ssVkeyTimeValue[18].keyValue
p1640
(dp1641
g3
I00
sg4
Vdouble
p1642
sg24
I00
sg25
I00
sg8
I01
sg9
(lp1643
ssVkeyTanInX[21]
p1644
(dp1645
g3
I00
sg4
Vdouble
p1646
sg6
I00
sg7
I00
sg8
I01
sg9
(lp1647
ssg1244
(dp1648
g3
I00
sg4
Vdouble
p1649
sg24
I00
sg25
I00
sg8
I01
sg9
(lp1650
ssVkeyTanOutX[4]
p1651
(dp1652
g13
I00
sg6
I00
sg18
I00
sg19
(lp1653
ssVkeyTimeValue[22]
p1654
(dp1655
g3
I00
sg4
VTdataCompound
p1656
sg6
I00
sg8
I00
sg9
(lp1657
g469
aVkeyTimeValue[22].keyValue
p1658
assVkeyTanOutY[8]
p1659
(dp1660
g3
I00
sg4
Vdouble
p1661
sg6
I00
sg7
I00
sg8
I01
sg9
(lp1662
ssVkeyTanLocked[2]
p1663
(dp1664
g13
I00
sg14
Vbool
p1665
sg24
I00
sg25
I00
sg18
I01
sg19
(lp1666
ssVkeyTanInY[32]
p1667
(dp1668
g66
I00
sg67
I00
sg68
(lp1669
ssVkeyTanOutY[19]
p1670
(dp1671
g3
I00
sg4
Vdouble
p1672
sg6
I00
sg7
I00
sg8
I01
sg9
(lp1673
ssVkeyTickDrawSpecial[19]
p1674
(dp1675
g3
I00
sg4
Vbool
p1676
sg6
I00
sg7
I00
sg8
I01
sg9
(lp1677
ssVkeyTanInY[8]
p1678
(dp1679
g3
I00
sg4
Vdouble
p1680
sg6
I00
sg7
I00
sg8
I01
sg9
(lp1681
ssVkeyTanOutY[10]
p1682
(dp1683
g3
I00
sg4
Vdouble
p1684
sg6
I00
sg7
I00
sg8
I01
sg9
(lp1685
ssVkeyTanLocked[5]
p1686
(dp1687
g3
I00
sg4
Vbool
p1688
sg24
I00
sg25
I00
sg8
I01
sg9
(lp1689
ssVkeyTanInX[32]
p1690
(dp1691
g66
I00
sg67
I00
sg68
(lp1692
ssVkeyTanOutX[12]
p1693
(dp1694
g3
I00
sg4
Vdouble
p1695
sg6
I00
sg7
I00
sg8
I01
sg9
(lp1696
ssVkeyTanInX[28]
p1697
(dp1698
g3
I00
sg4
Vdouble
p1699
sg6
I00
sg7
I00
sg8
I01
sg9
(lp1700
ssVkeyTanOutY[29]
p1701
(dp1702
g3
I00
sg6
I00
sg8
I00
sg9
(lp1703
ssg71
(dp1704
g66
I00
sg67
I00
sg68
(lp1705
ssVkeyTickDrawSpecial[25]
p1706
(dp1707
g3
I00
sg4
Vbool
p1708
sg6
I00
sg7
I00
sg8
I01
sg9
(lp1709
ssVkeyWeightLocked[13]
p1710
(dp1711
g3
I00
sg4
Vbool
p1712
sg6
I00
sg7
I00
sg8
I01
sg9
(lp1713
ssVkeyBreakdown[1]
p1714
(dp1715
g13
I00
sg14
Vbool
p1716
sg6
I00
sg7
I00
sg18
I01
sg19
(lp1717
ssg542
(dp1718
g3
I00
sg4
Vdouble
p1719
sg24
I00
sg25
I00
sg8
I01
sg9
(lp1720
ssVkeyTanInY[24]
p1721
(dp1722
g3
I00
sg4
Vdouble
p1723
sg6
I00
sg7
I00
sg8
I01
sg9
(lp1724
ssVkeyTimeValue[26].keyValue
p1725
(dp1726
g3
I00
sg4
Vdouble
p1727
sg24
I00
sg25
I00
sg8
I01
sg9
(lp1728
ssVkeyWeightLocked[18]
p1729
(dp1730
g3
I00
sg4
Vbool
p1731
sg6
I00
sg7
I00
sg8
I01
sg9
(lp1732
ssVkeyTanOutY[32]
p1733
(dp1734
g66
I00
sg67
I00
sg68
(lp1735
ssVkeyTanLocked[17]
p1736
(dp1737
g3
I00
sg4
Vbool
p1738
sg24
I00
sg25
I00
sg8
I01
sg9
(lp1739
ssVkeyTanInX[10]
p1740
(dp1741
g3
I00
sg4
Vdouble
p1742
sg6
I00
sg7
I00
sg8
I01
sg9
(lp1743
ssVkeyTanOutY[7]
p1744
(dp1745
g3
I00
sg4
Vdouble
p1746
sg6
I00
sg7
I00
sg8
I01
sg9
(lp1747
ssVkeyTickDrawSpecial[16]
p1748
(dp1749
g3
I00
sg4
Vbool
p1750
sg6
I00
sg7
I00
sg8
I01
sg9
(lp1751
ssVkeyTanOutX[32]
p1752
(dp1753
g66
I00
sg67
I00
sg68
(lp1754
ssg1658
(dp1755
g3
I00
sg4
Vdouble
p1756
sg24
I00
sg25
I00
sg8
I01
sg9
(lp1757
ssVkeyBreakdown[31]
p1758
(dp1759
g66
I00
sg67
I00
sg68
(lp1760
ssVkeyTanOutX[15]
p1761
(dp1762
g3
I00
sg4
Vdouble
p1763
sg6
I00
sg7
I00
sg8
I01
sg9
(lp1764
ssVkeyTanInType[13]
p1765
(dp1766
g3
I00
sg4
Venum
p1767
sg24
I00
sg25
I00
sg8
I01
sg9
(lp1768
ssVkeyTanOutX[25]
p1769
(dp1770
g3
I00
sg4
Vdouble
p1771
sg6
I00
sg7
I00
sg8
I01
sg9
(lp1772
ssVkeyTanOutType[28]
p1773
(dp1774
g3
I00
sg4
Venum
p1775
sg6
I00
sg7
I00
sg8
I01
sg9
(lp1776
ssVkeyTanInType[7]
p1777
(dp1778
g3
I00
sg4
Venum
p1779
sg24
I00
sg25
I00
sg8
I01
sg9
(lp1780
ssVkeyTanOutType[6]
p1781
(dp1782
g3
I00
sg4
Venum
p1783
sg24
I00
sg25
I00
sg8
I01
sg9
(lp1784
ssVkeyTanOutType[16]
p1785
(dp1786
g3
I00
sg4
Venum
p1787
sg24
I00
sg25
I00
sg8
I01
sg9
(lp1788
ssg847
(dp1789
g3
I00
sg4
Vdouble
p1790
sg24
I00
sg25
I00
sg8
I01
sg9
(lp1791
ssVkeyTanOutX[7]
p1792
(dp1793
g3
I00
sg4
Vdouble
p1794
sg6
I00
sg7
I00
sg8
I01
sg9
(lp1795
ssVkeyTanInX[4]
p1796
(dp1797
g13
I00
sg6
I00
sg18
I00
sg19
(lp1798
ssVkeyTickDrawSpecial[6]
p1799
(dp1800
g3
I00
sg4
Vbool
p1801
sg6
I00
sg7
I00
sg8
I01
sg9
(lp1802
ssVkeyTanInX[25]
p1803
(dp1804
g3
I00
sg4
Vdouble
p1805
sg6
I00
sg7
I00
sg8
I01
sg9
(lp1806
ssVkeyTanLocked[22]
p1807
(dp1808
g3
I00
sg4
Vbool
p1809
sg24
I00
sg25
I00
sg8
I01
sg9
(lp1810
ssVkeyTanInType[30]
p1811
(dp1812
g3
I00
sg6
I00
sg8
I00
sg9
(lp1813
ssVkeyTanInY[10]
p1814
(dp1815
g3
I00
sg4
Vdouble
p1816
sg6
I00
sg7
I00
sg8
I01
sg9
(lp1817
ssVkeyBreakdown[10]
p1818
(dp1819
g3
I00
sg4
Vbool
p1820
sg6
I00
sg7
I00
sg8
I01
sg9
(lp1821
ssVkeyTanInX[31]
p1822
(dp1823
g66
I00
sg67
I00
sg68
(lp1824
ssVkeyTanLocked[18]
p1825
(dp1826
g3
I00
sg4
Vbool
p1827
sg24
I00
sg25
I00
sg8
I01
sg9
(lp1828
ssVkeyTanInX[3]
p1829
(dp1830
g13
I00
sg6
I00
sg18
I00
sg19
(lp1831
ssVkeyTanInY[4]
p1832
(dp1833
g13
I00
sg6
I00
sg18
I00
sg19
(lp1834
ssVkeyWeightLocked[1]
p1835
(dp1836
g13
I00
sg14
Vbool
p1837
sg6
I00
sg7
I00
sg18
I01
sg19
(lp1838
ssVkeyTanOutType[30]
p1839
(dp1840
g3
I00
sg6
I00
sg8
I00
sg9
(lp1841
ssVkeyTanInType[3]
p1842
(dp1843
g13
I00
sg6
I00
sg18
I00
sg19
(lp1844
ssVkeyTanInType[25]
p1845
(dp1846
g3
I00
sg4
Venum
p1847
sg24
I00
sg25
I00
sg8
I01
sg9
(lp1848
ssVkeyTimeValue[7]
p1849
(dp1850
g3
I00
sg4
VTdataCompound
p1851
sg6
I00
sg8
I00
sg9
(lp1852
g651
ag1356
assVkeyTanOutY[24]
p1853
(dp1854
g3
I00
sg4
Vdouble
p1855
sg6
I00
sg7
I00
sg8
I01
sg9
(lp1856
ssVkeyWeightLocked
p1857
(dp1858
g13
I01
sg14
VTdataCompound
p1859
sg18
I00
sg249
I01
ssVkeyTanInType[31]
p1860
(dp1861
g66
I00
sg67
I00
sg68
(lp1862
ssVkeyTimeValue.keyTime
p1863
(dp1864
g1234
VkeyTimeValue
p1865
ssVkeyTanOutType[26]
p1866
(dp1867
g3
I00
sg4
Venum
p1868
sg24
I00
sg25
I00
sg8
I01
sg9
(lp1869
ssVkeyTimeValue[18]
p1870
(dp1871
g3
I00
sg4
VTdataCompound
p1872
sg6
I00
sg8
I00
sg9
(lp1873
g264
ag1640
assVkeyTanInX[29]
p1874
(dp1875
g3
I00
sg6
I00
sg8
I00
sg9
(lp1876
ssVkeyTimeValue[26]
p1877
(dp1878
g3
I00
sg4
VTdataCompound
p1879
sg6
I00
sg8
I00
sg9
(lp1880
g1465
ag1725
assVkeyTanOutY[14]
p1881
(dp1882
g3
I00
sg4
Vdouble
p1883
sg6
I00
sg7
I00
sg8
I01
sg9
(lp1884
ssVkeyTanLocked[1]
p1885
(dp1886
g13
I00
sg14
Vbool
p1887
sg24
I00
sg25
I00
sg18
I01
sg19
(lp1888
ssVkeyTanInX[17]
p1889
(dp1890
g3
I00
sg4
Vdouble
p1891
sg6
I00
sg7
I00
sg8
I01
sg9
(lp1892
ssg804
(dp1893
g3
I00
sg4
Vdouble
p1894
sg24
I00
sg25
I00
sg8
I01
sg9
(lp1895
ssg1122
(dp1896
g3
I00
sg4
Vdouble
p1897
sg24
I00
sg25
I00
sg8
I01
sg9
(lp1898
ss.