(dp0
VisHistoricallyInteresting
p1
(dp2
S'isArray'
p3
I00
sS'isElement'
p4
I00
sS'isMulti'
p5
I00
sS'attrChildrenNames'
p6
(lp7
sS'isCompound'
p8
I00
ssVnodeState
p9
(dp10
S'isArray'
p11
I00
sS'isElement'
p12
I00
sS'isMulti'
p13
I00
sS'isCompound'
p14
I00
sS'attrChildrenNames'
p15
(lp16
ssVinput
p17
(dp18
S'isArray'
p19
I00
sS'isElement'
p20
I00
sS'attrChildrenNames'
p21
(lp22
sS'isCompound'
p23
I00
sS'isMulti'
p24
I00
ssVoutStippleThreshold
p25
(dp26
S'isArray'
p27
I00
sS'isElement'
p28
I00
sS'isMulti'
p29
I00
sS'attrChildrenNames'
p30
(lp31
sS'isCompound'
p32
I00
ssVstippleReverse
p33
(dp34
S'isArray'
p35
I00
sS'isElement'
p36
I00
sS'isMulti'
p37
I00
sS'isCompound'
p38
I00
sS'attrChildrenNames'
p39
(lp40
ssVcurveColor.curveColorR
p41
(dp42
S'isArray'
p43
I00
sS'attrParentLongName'
p44
VcurveColor
p45
sS'attrChildrenNames'
p46
(lp47
sS'isMulti'
p48
I00
sS'isCompound'
p49
I00
sS'isElement'
p50
I00
ssVoutStippleRange
p51
(dp52
S'isArray'
p53
I00
sS'isElement'
p54
I00
sS'isMulti'
p55
I00
sS'isCompound'
p56
I00
sS'attrChildrenNames'
p57
(lp58
ssVinStippleRange
p59
(dp60
S'isArray'
p61
I00
sS'isElement'
p62
I00
sS'isMulti'
p63
I00
sS'attrChildrenNames'
p64
(lp65
sS'isCompound'
p66
I00
ssVcurveColor.curveColorB
p67
(dp68
S'isArray'
p69
I00
sS'attrParentLongName'
p70
VcurveColor
p71
sS'attrChildrenNames'
p72
(lp73
sS'isMulti'
p74
I00
sS'isCompound'
p75
I00
sS'isElement'
p76
I00
ssVcurveColor
p77
(dp78
S'isArray'
p79
I00
sS'isElement'
p80
I00
sS'isMulti'
p81
I00
sS'isCompound'
p82
I01
sS'attrChildrenNames'
p83
(lp84
VcurveColor.curveColorR
p85
aVcurveColor.curveColorG
p86
aVcurveColor.curveColorB
p87
assVcurveColor.curveColorG
p88
(dp89
S'isArray'
p90
I00
sS'attrParentLongName'
p91
VcurveColor
p92
sS'attrChildrenNames'
p93
(lp94
sS'isMulti'
p95
I00
sS'isCompound'
p96
I00
sS'isElement'
p97
I00
ssVcaching
p98
(dp99
S'isArray'
p100
I00
sS'isElement'
p101
I00
sS'isMulti'
p102
I00
sS'isCompound'
p103
I00
sS'attrChildrenNames'
p104
(lp105
ssVoutput
p106
(dp107
S'isArray'
p108
I00
sS'isElement'
p109
I00
sS'isCompound'
p110
I00
sS'attrChildrenNames'
p111
(lp112
sS'isMulti'
p113
I00
ssVuseCurveColor
p114
(dp115
S'isArray'
p116
I00
sS'isElement'
p117
I00
sS'isMulti'
p118
I00
sS'attrChildrenNames'
p119
(lp120
sS'isCompound'
p121
I00
ssVapply
p122
(dp123
S'isArray'
p124
I00
sS'isElement'
p125
I00
sS'isMulti'
p126
I00
sS'attrChildrenNames'
p127
(lp128
sS'isCompound'
p129
I00
ssVstipplePattern
p130
(dp131
S'isArray'
p132
I00
sS'isElement'
p133
I00
sS'isMulti'
p134
I00
sS'isCompound'
p135
I00
sS'attrChildrenNames'
p136
(lp137
ss.