(dp0
VkeyTickDrawSpecial[0]
p1
(dp2
S'isArray'
p3
I00
sS'attrType'
p4
Vbool
p5
sS'isMulti'
p6
I00
sS'isCompound'
p7
I00
sS'isSimple'
p8
I01
sS'attrChildrenLongNames'
p9
(lp10
ssVkeyTanOutType[2]
p11
(dp12
g3
I00
sg9
(lp13
ssVkeyTanOutY[3]
p14
(dp15
g3
I00
sg9
(lp16
ssVkeyTanLocked[3]
p17
(dp18
g3
I00
sg9
(lp19
ssVkeyTimeValue[2].keyValue
p20
(dp21
g3
I00
sg9
(lp22
ssVinStippleRange
p23
(dp24
S'isArray'
p25
I00
sg4
NsS'attrChildrenNames'
p26
(lp27
sS'isMulti'
p28
I00
sS'isCompound'
p29
I00
sg8
I00
sg9
(lp30
sS'isElement'
p31
I00
ssVbinMembership
p32
(dp33
g3
I00
sg4
Vstring
p34
sg6
I00
sg7
I00
sg8
I01
sg9
(lp35
ssVkeyTanInType
p36
(dp37
g3
I01
sg6
I01
sg8
I00
sg4
VTdataCompound
p38
ssVkeyTanInY[1]
p39
(dp40
g3
I00
sg4
Vdouble
p41
sg6
I00
sg7
I00
sg8
I01
sg9
(lp42
ssVkeyTanOutType
p43
(dp44
g3
I01
sg6
I01
sg8
I00
sg4
VTdataCompound
p45
ssVinput
p46
(dp47
S'isArray'
p48
I00
sS'attrType'
p49
Vdouble
p50
sS'attrChildrenNames'
p51
(lp52
sS'isMulti'
p53
I00
sS'isCompound'
p54
I00
sS'isSimple'
p55
I01
sS'attrChildrenLongNames'
p56
(lp57
sS'isElement'
p58
I00
ssVkeyTanOutX
p59
(dp60
g3
I01
sg6
I01
sg8
I00
sg4
VTdataCompound
p61
ssVstipplePattern
p62
(dp63
S'isArray'
p64
I00
sg4
Venum
p65
sS'attrChildrenNames'
p66
(lp67
sS'isMulti'
p68
I00
sS'isCompound'
p69
I00
sg8
I01
sg9
(lp70
sS'isElement'
p71
I00
ssVcurveColor.curveColorR
p72
(dp73
S'isArray'
p74
I00
sS'attrParentLongName'
p75
VcurveColor
p76
sS'attrChildrenNames'
p77
(lp78
sg4
Vfloat
p79
sS'isMulti'
p80
I00
sS'isCompound'
p81
I00
sg8
I01
sg9
(lp82
sS'isElement'
p83
I00
ssVkeyTanOutY[2]
p84
(dp85
g3
I00
sg9
(lp86
ssVkeyTanOutType[3]
p87
(dp88
g3
I00
sg9
(lp89
ssVkeyTimeValue[0].keyTime
p90
(dp91
g3
I00
sg4
Vdouble
p92
sg6
I00
sg7
I00
sg8
I01
sg9
(lp93
ssVcurveColor.curveColorG
p94
(dp95
S'isArray'
p96
I00
sS'attrParentLongName'
p97
VcurveColor
p98
sS'attrChildrenNames'
p99
(lp100
sg4
Vfloat
p101
sS'isMulti'
p102
I00
sS'isCompound'
p103
I00
sg8
I01
sg9
(lp104
sS'isElement'
p105
I00
ssVkeyTanInType[1]
p106
(dp107
g3
I00
sg4
Venum
p108
sg6
I00
sg7
I00
sg8
I01
sg9
(lp109
ssVoutput
p110
(dp111
S'isArray'
p112
I00
sg49
VdoubleAngle
p113
sS'attrChildrenNames'
p114
(lp115
sS'isMulti'
p116
I00
sS'isCompound'
p117
I00
sg55
I01
sg56
(lp118
sS'isElement'
p119
I00
ssVuseCurveColor
p120
(dp121
S'isArray'
p122
I00
sg4
Vbool
p123
sS'attrChildrenNames'
p124
(lp125
sS'isMulti'
p126
I00
sS'isCompound'
p127
I00
sg8
I01
sg9
(lp128
sS'isElement'
p129
I00
ssVkeyTanOutType[0]
p130
(dp131
g3
I00
sg4
Venum
p132
sg6
I00
sg7
I00
sg8
I01
sg9
(lp133
ssVkeyTickDrawSpecial[2]
p134
(dp135
g3
I00
sg9
(lp136
ssVkeyTimeValue[3].keyValue
p137
(dp138
g3
I00
sg9
(lp139
ssVkeyBreakdown[3]
p140
(dp141
g3
I00
sg9
(lp142
ssVkeyTanOutX[3]
p143
(dp144
g3
I00
sg9
(lp145
ssVkeyTanInX[0]
p146
(dp147
g3
I00
sg4
Vdouble
p148
sg6
I00
sg7
I00
sg8
I01
sg9
(lp149
ssVstippleReverse
p150
(dp151
S'isArray'
p152
I00
sg4
Vbool
p153
sS'attrChildrenNames'
p154
(lp155
sS'isMulti'
p156
I00
sS'isCompound'
p157
I00
sg8
I01
sg9
(lp158
sS'isElement'
p159
I00
ssVkeyTanOutY[1]
p160
(dp161
g3
I00
sg4
Vdouble
p162
sg6
I00
sg7
I00
sg8
I01
sg9
(lp163
ssVkeyWeightLocked[3]
p164
(dp165
g3
I00
sg9
(lp166
ssVkeyTanInY[3]
p167
(dp168
g3
I00
sg9
(lp169
ssVkeyTickDrawSpecial[1]
p170
(dp171
g3
I00
sg4
Vbool
p172
sg6
I00
sg7
I00
sg8
I01
sg9
(lp173
ssVweightedTangents
p174
(dp175
g3
I00
sg4
Vbool
p176
sg6
I00
sg7
I00
sg8
I01
sg9
(lp177
ssVkeyTanOutType[1]
p178
(dp179
g3
I00
sg4
Venum
p180
sg6
I00
sg7
I00
sg8
I01
sg9
(lp181
ssVkeyTanOutY[0]
p182
(dp183
g3
I00
sg4
Vdouble
p184
sg6
I00
sg7
I00
sg8
I01
sg9
(lp185
ssVkeyTanLocked[2]
p186
(dp187
g3
I00
sg9
(lp188
ssVkeyTimeValue[3].keyTime
p189
(dp190
g3
I00
sg9
(lp191
ssVkeyBreakdown
p192
(dp193
g3
I01
sg6
I01
sg8
I00
sg4
VTdataCompound
p194
ssVoutStippleThreshold
p195
(dp196
S'isArray'
p197
I00
sg4
Vdouble
p198
sS'attrChildrenNames'
p199
(lp200
sS'isMulti'
p201
I00
sS'isCompound'
p202
I00
sg8
I01
sg9
(lp203
sS'isElement'
p204
I00
ssVkeyTanLocked
p205
(dp206
g3
I01
sg6
I01
sg8
I00
sg4
VTdataCompound
p207
ssVkeyTanInY[2]
p208
(dp209
g3
I00
sg9
(lp210
ssVkeyTickDrawSpecial
p211
(dp212
g3
I01
sg6
I01
sg8
I00
sg4
VTdataCompound
p213
ssVkeyTanInY[0]
p214
(dp215
g3
I00
sg4
Vdouble
p216
sg6
I00
sg7
I00
sg8
I01
sg9
(lp217
ssVkeyWeightLocked[2]
p218
(dp219
g3
I00
sg9
(lp220
ssVkeyTanInX[2]
p221
(dp222
g3
I00
sg9
(lp223
ssVkeyTanInType[2]
p224
(dp225
g3
I00
sg9
(lp226
ssVkeyBreakdown[1]
p227
(dp228
g3
I00
sg4
Vbool
p229
sg6
I00
sg7
I00
sg8
I01
sg9
(lp230
ssVapply
p231
(dp232
S'isArray'
p233
I00
sg4
Vfunction
p234
sS'attrChildrenNames'
p235
(lp236
sS'isMulti'
p237
I00
sS'isCompound'
p238
I00
sg8
I00
sg9
(lp239
sS'isElement'
p240
I00
ssVkeyTanOutX[1]
p241
(dp242
g3
I00
sg4
Vdouble
p243
sg6
I00
sg7
I00
sg8
I01
sg9
(lp244
ssVisHistoricallyInteresting
p245
(dp246
S'isArray'
p247
I00
sg4
Vbyte
p248
sS'attrChildrenNames'
p249
(lp250
sS'isMulti'
p251
I00
sS'isCompound'
p252
I00
sg8
I00
sg9
(lp253
sS'isElement'
p254
I00
ssVrotationInterpolation
p255
(dp256
g3
I00
sg4
Venum
p257
sg6
I00
sg7
I00
sg8
I01
sg9
(lp258
ssVkeyTimeValue.keyValue
p259
(dp260
S'attrParentLongName'
p261
VkeyTimeValue
p262
ssVkeyTimeValue[1]
p263
(dp264
g3
I00
sg6
I00
sg4
VTdataCompound
p265
sg8
I00
sg9
(lp266
VkeyTimeValue[1].keyTime
p267
aVkeyTimeValue[1].keyValue
p268
assVpreInfinity
p269
(dp270
g3
I00
sg4
Venum
p271
sg6
I00
sg7
I00
sg8
I01
sg9
(lp272
ssVkeyTimeValue
p273
(dp274
g3
I01
sg6
I01
sg8
I00
sg4
VTdataCompound
p275
ssVkeyTimeValue[0].keyValue
p276
(dp277
g3
I00
sg4
VdoubleAngle
p278
sg6
I00
sg7
I00
sg8
I01
sg9
(lp279
ssVkeyTanInX
p280
(dp281
g3
I01
sg6
I01
sg8
I00
sg4
VTdataCompound
p282
ssVkeyTanInY
p283
(dp284
g3
I01
sg6
I01
sg8
I00
sg4
VTdataCompound
p285
ssVkeyBreakdown[2]
p286
(dp287
g3
I00
sg9
(lp288
ssVkeyTickDrawSpecial[3]
p289
(dp290
g3
I00
sg9
(lp291
ssVkeyTanOutX[2]
p292
(dp293
g3
I00
sg9
(lp294
ssVoutStippleRange
p295
(dp296
S'isArray'
p297
I00
sg4
VdoubleArray
p298
sS'attrChildrenNames'
p299
(lp300
sS'isMulti'
p301
I00
sS'isCompound'
p302
I00
sg8
I00
sg9
(lp303
sS'isElement'
p304
I00
ssVkeyTanInX[1]
p305
(dp306
g3
I00
sg4
Vdouble
p307
sg6
I00
sg7
I00
sg8
I01
sg9
(lp308
ssVkeyTimeValue[0]
p309
(dp310
g3
I00
sg6
I00
sg4
VTdataCompound
p311
sg8
I00
sg9
(lp312
g90
ag276
assVkeyTanOutY
p313
(dp314
g3
I01
sg6
I01
sg8
I00
sg4
VTdataCompound
p315
ssVkeyWeightLocked[0]
p316
(dp317
g3
I00
sg4
Vbool
p318
sg6
I00
sg7
I00
sg8
I01
sg9
(lp319
ssg268
(dp320
g3
I00
sg4
VdoubleAngle
p321
sg6
I00
sg7
I00
sg8
I01
sg9
(lp322
ssVkeyTimeValue[2].keyTime
p323
(dp324
g3
I00
sg9
(lp325
ssVkeyTanInType[0]
p326
(dp327
g3
I00
sg4
Venum
p328
sg6
I00
sg7
I00
sg8
I01
sg9
(lp329
ssg267
(dp330
g3
I00
sg4
Vdouble
p331
sg6
I00
sg7
I00
sg8
I01
sg9
(lp332
ssVkeyTanLocked[0]
p333
(dp334
g3
I00
sg4
Vbool
p335
sg6
I00
sg7
I00
sg8
I01
sg9
(lp336
ssVkeyTimeValue[3]
p337
(dp338
g3
I00
sg9
(lp339
g189
ag137
assVcurveColor
p340
(dp341
S'isArray'
p342
I00
sg4
Vfloat3
p343
sS'attrChildrenNames'
p344
(lp345
VcurveColor.curveColorR
p346
aVcurveColor.curveColorG
p347
aVcurveColor.curveColorB
p348
asS'isMulti'
p349
I00
sS'isCompound'
p350
I01
sg8
I00
sg9
(lp351
VcurveColor.curveColorR
p352
aVcurveColor.curveColorG
p353
aVcurveColor.curveColorB
p354
asS'isElement'
p355
I00
ssVkeyTanOutX[0]
p356
(dp357
g3
I00
sg4
Vdouble
p358
sg6
I00
sg7
I00
sg8
I01
sg9
(lp359
ssVnodeState
p360
(dp361
S'isArray'
p362
I00
sg4
Venum
p363
sS'attrChildrenNames'
p364
(lp365
sS'isMulti'
p366
I00
sS'isCompound'
p367
I00
sg8
I01
sg9
(lp368
sS'isElement'
p369
I00
ssVkeyTanInX[3]
p370
(dp371
g3
I00
sg9
(lp372
ssVkeyWeightLocked[1]
p373
(dp374
g3
I00
sg4
Vbool
p375
sg6
I00
sg7
I00
sg8
I01
sg9
(lp376
ssVkeyTanInType[3]
p377
(dp378
g3
I00
sg9
(lp379
ssVkeyWeightLocked
p380
(dp381
g3
I01
sg6
I01
sg8
I00
sg4
VTdataCompound
p382
ssVkeyBreakdown[0]
p383
(dp384
g3
I00
sg4
Vbool
p385
sg6
I00
sg7
I00
sg8
I01
sg9
(lp386
ssVkeyTimeValue.keyTime
p387
(dp388
g261
VkeyTimeValue
p389
ssVpostInfinity
p390
(dp391
g3
I00
sg4
Venum
p392
sg6
I00
sg7
I00
sg8
I01
sg9
(lp393
ssVkeyTimeValue[2]
p394
(dp395
g3
I00
sg9
(lp396
g323
ag20
assVcurveColor.curveColorB
p397
(dp398
S'isArray'
p399
I00
sS'attrParentLongName'
p400
VcurveColor
p401
sS'attrChildrenNames'
p402
(lp403
sg4
Vfloat
p404
sS'isMulti'
p405
I00
sS'isCompound'
p406
I00
sg8
I01
sg9
(lp407
sS'isElement'
p408
I00
ssVkeyTanLocked[1]
p409
(dp410
g3
I00
sg4
Vbool
p411
sg6
I00
sg7
I00
sg8
I01
sg9
(lp412
ssVtangentType
p413
(dp414
g3
I00
sg4
Venum
p415
sg6
I00
sg7
I00
sg8
I01
sg9
(lp416
ssVcaching
p417
(dp418
S'isArray'
p419
I00
sg4
Vbool
p420
sS'attrChildrenNames'
p421
(lp422
sS'isMulti'
p423
I00
sS'isCompound'
p424
I00
sg8
I01
sg9
(lp425
sS'isElement'
p426
I00
ss.