(dp0
VkeyTickDrawSpecial[0]
p1
(dp2
S'isArray'
p3
I00
sS'attrType'
p4
Vbool
p5
sS'isMulti'
p6
I00
sS'isCompound'
p7
I00
sS'isSimple'
p8
I01
sS'attrChildrenLongNames'
p9
(lp10
ssVkeyTanOutType[2]
p11
(dp12
g3
I00
sg8
I00
sg9
(lp13
ssVkeyTanOutY[3]
p14
(dp15
g3
I00
sg8
I00
sg9
(lp16
ssVkeyTanLocked[3]
p17
(dp18
g3
I00
sg8
I00
sg9
(lp19
ssVkeyTimeValue[2].keyValue
p20
(dp21
g3
I00
sg8
I00
sg9
(lp22
ssVinStippleRange
p23
(dp24
S'isArray'
p25
I00
sS'attrType'
p26
Nsg6
I00
sS'isSimple'
p27
I00
sS'attrChildrenLongNames'
p28
(lp29
ssVbinMembership
p30
(dp31
g3
I00
sg4
Vstring
p32
sg6
I00
sg7
I00
sg8
I01
sg9
(lp33
ssVkeyTanInType
p34
(dp35
g3
I01
sg4
VTdataCompound
p36
sg8
I00
sg6
I01
ssVkeyTanInY[1]
p37
(dp38
g3
I00
sg4
Vdouble
p39
sg6
I00
sg7
I00
sg8
I01
sg9
(lp40
ssVkeyTanOutType
p41
(dp42
g3
I01
sg4
VTdataCompound
p43
sg8
I00
sg6
I01
ssVinput
p44
(dp45
g25
I00
sg26
Vtime
p46
sS'isMulti'
p47
I00
sS'isCompound'
p48
I00
sg27
I01
sg28
(lp49
ssVkeyTanOutX
p50
(dp51
g3
I01
sg4
VTdataCompound
p52
sg8
I00
sg6
I01
ssVstipplePattern
p53
(dp54
g25
I00
sg26
Venum
p55
sg6
I00
sg7
I00
sg27
I01
sg28
(lp56
ssVcurveColor.curveColorR
p57
(dp58
g25
I00
sg26
Vfloat
p59
sg6
I00
sg7
I00
sg27
I01
sg28
(lp60
ssVkeyTanOutY[2]
p61
(dp62
g3
I00
sg8
I00
sg9
(lp63
ssVkeyTanOutType[3]
p64
(dp65
g3
I00
sg8
I00
sg9
(lp66
ssVkeyTimeValue[0].keyTime
p67
(dp68
g3
I00
sg4
Vtime
p69
sS'isMulti'
p70
I00
sS'isCompound'
p71
I00
sg8
I01
sg9
(lp72
ssVcurveColor.curveColorG
p73
(dp74
g25
I00
sg26
Vfloat
p75
sg6
I00
sg7
I00
sg27
I01
sg28
(lp76
ssVkeyTanInType[1]
p77
(dp78
g3
I00
sg4
Venum
p79
sg6
I00
sg7
I00
sg8
I01
sg9
(lp80
ssVoutput
p81
(dp82
g25
I00
sg26
VdoubleAngle
p83
sg6
I00
sg7
I00
sg27
I01
sg28
(lp84
ssVuseCurveColor
p85
(dp86
g25
I00
sg26
Vbool
p87
sg6
I00
sg7
I00
sg27
I01
sg28
(lp88
ssVkeyTanOutType[0]
p89
(dp90
g3
I00
sg4
Venum
p91
sg6
I00
sg7
I00
sg8
I01
sg9
(lp92
ssVkeyTickDrawSpecial[2]
p93
(dp94
g3
I00
sg8
I00
sg9
(lp95
ssVnodeState
p96
(dp97
g25
I00
sg26
Venum
p98
sg6
I00
sg7
I00
sg27
I01
sg28
(lp99
ssVkeyBreakdown[3]
p100
(dp101
g3
I00
sg8
I00
sg9
(lp102
ssVkeyTanOutX[3]
p103
(dp104
g3
I00
sg8
I00
sg9
(lp105
ssVkeyTanInX[0]
p106
(dp107
g3
I00
sg4
Vdouble
p108
sg6
I00
sg7
I00
sg8
I01
sg9
(lp109
ssVstippleReverse
p110
(dp111
g25
I00
sg26
Vbool
p112
sg6
I00
sg7
I00
sg27
I01
sg28
(lp113
ssVkeyTanOutY[1]
p114
(dp115
g3
I00
sg4
Vdouble
p116
sg6
I00
sg7
I00
sg8
I01
sg9
(lp117
ssVkeyWeightLocked[3]
p118
(dp119
g3
I00
sg8
I00
sg9
(lp120
ssVkeyTanInY[3]
p121
(dp122
g3
I00
sg8
I00
sg9
(lp123
ssVkeyTickDrawSpecial[1]
p124
(dp125
g3
I00
sg4
Vbool
p126
sg6
I00
sg7
I00
sg8
I01
sg9
(lp127
ssVweightedTangents
p128
(dp129
g3
I00
sg4
Vbool
p130
sg70
I00
sg71
I00
sg8
I01
sg9
(lp131
ssVkeyTanOutType[1]
p132
(dp133
g3
I00
sg4
Venum
p134
sg6
I00
sg7
I00
sg8
I01
sg9
(lp135
ssVkeyTanOutY[0]
p136
(dp137
g3
I00
sg4
Vdouble
p138
sg6
I00
sg7
I00
sg8
I01
sg9
(lp139
ssVquaternionW
p140
(dp141
g25
I00
sg26
Vdouble
p142
sg47
I00
sg48
I00
sg27
I01
sg28
(lp143
ssVkeyTanLocked[2]
p144
(dp145
g3
I00
sg8
I00
sg9
(lp146
ssVkeyTimeValue[3].keyTime
p147
(dp148
g3
I00
sg8
I00
sg9
(lp149
ssVkeyBreakdown
p150
(dp151
g3
I01
sg4
VTdataCompound
p152
sg8
I00
sg6
I01
ssVoutStippleThreshold
p153
(dp154
g25
I00
sg26
Vdouble
p155
sg6
I00
sg7
I00
sg27
I01
sg28
(lp156
ssVkeyTanLocked
p157
(dp158
g3
I01
sg4
VTdataCompound
p159
sg8
I00
sg6
I01
ssVkeyTanInY[2]
p160
(dp161
g3
I00
sg8
I00
sg9
(lp162
ssVkeyTickDrawSpecial
p163
(dp164
g3
I01
sg4
VTdataCompound
p165
sg8
I00
sg6
I01
ssVkeyTanInY[0]
p166
(dp167
g3
I00
sg4
Vdouble
p168
sg6
I00
sg7
I00
sg8
I01
sg9
(lp169
ssVkeyWeightLocked[2]
p170
(dp171
g3
I00
sg8
I00
sg9
(lp172
ssVkeyTanInX[2]
p173
(dp174
g3
I00
sg8
I00
sg9
(lp175
ssVrawValue
p176
(dp177
g25
I00
sg26
Vdouble
p178
sg6
I00
sg7
I00
sg27
I01
sg28
(lp179
ssVkeyTanInType[2]
p180
(dp181
g3
I00
sg8
I00
sg9
(lp182
ssVkeyBreakdown[1]
p183
(dp184
g3
I00
sg4
Vbool
p185
sg6
I00
sg7
I00
sg8
I01
sg9
(lp186
ssVapply
p187
(dp188
g25
I00
sg26
Vfunction
p189
sg6
I00
sg27
I00
sg28
(lp190
ssVkeyTanOutX[1]
p191
(dp192
g3
I00
sg4
Vdouble
p193
sg6
I00
sg7
I00
sg8
I01
sg9
(lp194
ssVisHistoricallyInteresting
p195
(dp196
g25
I00
sg26
Vbyte
p197
sg6
I00
sg27
I00
sg28
(lp198
ssVrotationInterpolation
p199
(dp200
g3
I00
sg4
Venum
p201
sg6
I00
sg7
I00
sg8
I01
sg9
(lp202
ssVkeyTimeValue.keyValue
p203
(dp204
S'attrParentLongName'
p205
VkeyTimeValue
p206
ssVkeyTimeValue[1]
p207
(dp208
g3
I00
sg4
VTdataCompound
p209
sg6
I00
sS'isCompound'
p210
I01
sg8
I00
sg9
(lp211
VkeyTimeValue[1].keyTime
p212
aVkeyTimeValue[1].keyValue
p213
assVpreInfinity
p214
(dp215
g3
I00
sg4
Venum
p216
sg6
I00
sg7
I00
sg8
I01
sg9
(lp217
ssVkeyTimeValue
p218
(dp219
g3
I01
sg4
VTdataCompound
p220
sg8
I00
sg6
I01
ssVkeyTimeValue[0].keyValue
p221
(dp222
g3
I00
sg4
VdoubleAngle
p223
sg6
I00
sg7
I00
sg8
I01
sg9
(lp224
ssVkeyTanInX
p225
(dp226
g3
I01
sg4
VTdataCompound
p227
sg8
I00
sg6
I01
ssVkeyTanInY
p228
(dp229
g3
I01
sg4
VTdataCompound
p230
sg8
I00
sg6
I01
ssVkeyBreakdown[2]
p231
(dp232
g3
I00
sg8
I00
sg9
(lp233
ssVkeyTickDrawSpecial[3]
p234
(dp235
g3
I00
sg8
I00
sg9
(lp236
ssVkeyTanOutX[2]
p237
(dp238
g3
I00
sg8
I00
sg9
(lp239
ssVoutStippleRange
p240
(dp241
g25
I00
sg26
VdoubleArray
p242
sg6
I00
sg27
I00
sg28
(lp243
ssVkeyTanInX[1]
p244
(dp245
g3
I00
sg4
Vdouble
p246
sg6
I00
sg7
I00
sg8
I01
sg9
(lp247
ssVkeyTimeValue[0]
p248
(dp249
g3
I00
sg4
VTdataCompound
p250
sg6
I00
sS'isCompound'
p251
I01
sg8
I00
sg9
(lp252
g67
ag221
assVkeyTanOutY
p253
(dp254
g3
I01
sg4
VTdataCompound
p255
sg8
I00
sg6
I01
ssVkeyWeightLocked[0]
p256
(dp257
g3
I00
sg4
Vbool
p258
sg6
I00
sg7
I00
sg8
I01
sg9
(lp259
ssVkeyTanInType[0]
p260
(dp261
g3
I00
sg4
Venum
p262
sg6
I00
sg7
I00
sg8
I01
sg9
(lp263
ssVkeyTimeValue[2].keyTime
p264
(dp265
g3
I00
sg8
I00
sg9
(lp266
ssg213
(dp267
g3
I00
sg4
VdoubleAngle
p268
sg70
I00
sg71
I00
sg8
I01
sg9
(lp269
ssg212
(dp270
g3
I00
sg4
Vtime
p271
sg70
I00
sg71
I00
sg8
I01
sg9
(lp272
ssVkeyTanLocked[0]
p273
(dp274
g3
I00
sg4
Vbool
p275
sg6
I00
sg7
I00
sg8
I01
sg9
(lp276
ssVkeyTimeValue[3]
p277
(dp278
g3
I00
sg8
I00
sg9
(lp279
g147
aVkeyTimeValue[3].keyValue
p280
assVcurveColor
p281
(dp282
g25
I00
sg26
Vfloat3
p283
sg6
I00
sg27
I00
sg28
(lp284
g57
ag73
aVcurveColor.curveColorB
p285
assVkeyTanOutX[0]
p286
(dp287
g3
I00
sg4
Vdouble
p288
sg6
I00
sg7
I00
sg8
I01
sg9
(lp289
ssg280
(dp290
g3
I00
sg8
I00
sg9
(lp291
ssVkeyTanInX[3]
p292
(dp293
g3
I00
sg8
I00
sg9
(lp294
ssVkeyWeightLocked[1]
p295
(dp296
g3
I00
sg4
Vbool
p297
sg6
I00
sg7
I00
sg8
I01
sg9
(lp298
ssVkeyTanInType[3]
p299
(dp300
g3
I00
sg8
I00
sg9
(lp301
ssVkeyWeightLocked
p302
(dp303
g3
I01
sg4
VTdataCompound
p304
sg8
I00
sg6
I01
ssVkeyBreakdown[0]
p305
(dp306
g3
I00
sg4
Vbool
p307
sg6
I00
sg7
I00
sg8
I01
sg9
(lp308
ssVkeyTimeValue.keyTime
p309
(dp310
g205
VkeyTimeValue
p311
ssVpostInfinity
p312
(dp313
g3
I00
sg4
Venum
p314
sg6
I00
sg7
I00
sg8
I01
sg9
(lp315
ssVkeyValueSwitch
p316
(dp317
g3
I00
sg4
Vtime
p318
sg70
I00
sg71
I00
sg8
I01
sg9
(lp319
ssVkeyTimeValue[2]
p320
(dp321
g3
I00
sg8
I00
sg9
(lp322
g264
ag20
assg285
(dp323
g25
I00
sg26
Vfloat
p324
sg6
I00
sg7
I00
sg27
I01
sg28
(lp325
ssVkeyTanLocked[1]
p326
(dp327
g3
I00
sg4
Vbool
p328
sg6
I00
sg7
I00
sg8
I01
sg9
(lp329
ssVtangentType
p330
(dp331
g3
I00
sg4
Venum
p332
sg70
I00
sg71
I00
sg8
I01
sg9
(lp333
ssVcaching
p334
(dp335
g25
I00
sg26
Vbool
p336
sg6
I00
sg7
I00
sg27
I01
sg28
(lp337
ss.