(dp0
VisHistoricallyInteresting
p1
(dp2
S'isArray'
p3
I00
sS'isElement'
p4
I00
sS'isMulti'
p5
I00
sS'attrChildrenNames'
p6
(lp7
sS'isCompound'
p8
I00
ssVnodeState
p9
(dp10
S'isArray'
p11
I00
sS'isElement'
p12
I00
sS'isMulti'
p13
I00
sS'isCompound'
p14
I00
sS'attrChildrenNames'
p15
(lp16
ssVcomputeNodeColor.computeNodeColorG
p17
(dp18
S'isArray'
p19
I00
sS'attrParentLongName'
p20
VcomputeNodeColor
p21
sS'attrChildrenNames'
p22
(lp23
sS'isMulti'
p24
I00
sS'isCompound'
p25
I00
sS'isElement'
p26
I00
ssVoutColorPP
p27
(dp28
S'isArray'
p29
I00
sS'isElement'
p30
I00
sS'attrChildrenNames'
p31
(lp32
sS'isCompound'
p33
I00
sS'isMulti'
p34
I00
ssVcomputeNodeColor
p35
(dp36
S'isArray'
p37
I00
sS'isElement'
p38
I00
sS'isMulti'
p39
I00
sS'attrChildrenNames'
p40
(lp41
VcomputeNodeColor.computeNodeColorR
p42
aVcomputeNodeColor.computeNodeColorG
p43
aVcomputeNodeColor.computeNodeColorB
p44
asS'isCompound'
p45
I01
ssVcomputeNodeColor.computeNodeColorB
p46
(dp47
S'isArray'
p48
I00
sS'attrParentLongName'
p49
VcomputeNodeColor
p50
sS'attrChildrenNames'
p51
(lp52
sS'isMulti'
p53
I00
sS'isCompound'
p54
I00
sS'isElement'
p55
I00
ssVvCoordPP
p56
(dp57
S'isArray'
p58
I00
sS'isElement'
p59
I00
sS'isMulti'
p60
I00
sS'isCompound'
p61
I00
sS'attrChildrenNames'
p62
(lp63
ssVcomputeNodeColor.computeNodeColorR
p64
(dp65
S'isArray'
p66
I00
sS'attrParentLongName'
p67
VcomputeNodeColor
p68
sS'attrChildrenNames'
p69
(lp70
sS'isMulti'
p71
I00
sS'isCompound'
p72
I00
sS'isElement'
p73
I00
ssVuCoordPP
p74
(dp75
S'isArray'
p76
I00
sS'isElement'
p77
I00
sS'isMulti'
p78
I00
sS'attrChildrenNames'
p79
(lp80
sS'isCompound'
p81
I00
ssVtime
p82
(dp83
S'isArray'
p84
I00
sS'isElement'
p85
I00
sS'isCompound'
p86
I00
sS'attrChildrenNames'
p87
(lp88
sS'isMulti'
p89
I00
ssVcaching
p90
(dp91
S'isArray'
p92
I00
sS'isElement'
p93
I00
sS'isMulti'
p94
I00
sS'isCompound'
p95
I00
sS'attrChildrenNames'
p96
(lp97
ssVmaxValue
p98
(dp99
S'isArray'
p100
I00
sS'isElement'
p101
I00
sS'isMulti'
p102
I00
sS'isCompound'
p103
I00
sS'attrChildrenNames'
p104
(lp105
ssVminValue
p106
(dp107
S'isArray'
p108
I00
sS'isElement'
p109
I00
sS'isMulti'
p110
I00
sS'attrChildrenNames'
p111
(lp112
sS'isCompound'
p113
I00
ssVoutValuePP
p114
(dp115
S'isArray'
p116
I00
sS'isElement'
p117
I00
sS'isCompound'
p118
I00
sS'attrChildrenNames'
p119
(lp120
sS'isMulti'
p121
I00
ss.