(dp0
VisHistoricallyInteresting
p1
(dp2
S'isArray'
p3
I00
sS'isElement'
p4
I00
sS'isCompound'
p5
I00
sS'attrChildrenNames'
p6
(lp7
sS'isMulti'
p8
I00
ssVinput[1]
p9
(dp10
S'isArray'
p11
I00
sS'attrType'
p12
Vdouble3
p13
sS'isMulti'
p14
I00
sS'isCompound'
p15
I00
sS'isSimple'
p16
I01
sS'attrChildrenLongNames'
p17
(lp18
ssVnodeState
p19
(dp20
S'isArray'
p21
I00
sS'isElement'
p22
I00
sS'attrChildrenNames'
p23
(lp24
sS'isCompound'
p25
I00
sS'isMulti'
p26
I00
ssVinput[2]
p27
(dp28
g11
I00
sg12
Vdouble3
p29
sg14
I00
sg15
I00
sg16
I01
sg17
(lp30
ssVinput[0]
p31
(dp32
g11
I00
sg12
Vdouble3
p33
sg14
I00
sg15
I00
sg16
I01
sg17
(lp34
ssVselector
p35
(dp36
S'isArray'
p37
I00
sg12
Vlong
p38
sS'attrChildrenNames'
p39
(lp40
sS'isMulti'
p41
I00
sS'isCompound'
p42
I00
sg16
I01
sg17
(lp43
sS'isElement'
p44
I00
ssVinput
p45
(dp46
S'isArray'
p47
I01
sS'isElement'
p48
I00
sg12
VTdataCompound
p49
sg16
I00
sS'isMulti'
p50
I01
ssVcaching
p51
(dp52
S'isArray'
p53
I00
sS'isElement'
p54
I00
sS'attrChildrenNames'
p55
(lp56
sS'isCompound'
p57
I00
sS'isMulti'
p58
I00
ssVoutput
p59
(dp60
S'isArray'
p61
I00
sg12
Vdouble3
p62
sS'attrChildrenNames'
p63
(lp64
sS'isMulti'
p65
I00
sS'isCompound'
p66
I00
sg16
I01
sg17
(lp67
sS'isElement'
p68
I00
ssVinput[3]
p69
(dp70
g11
I00
sg17
(lp71
ssVinput[4]
p72
(dp73
g11
I00
sg17
(lp74
ss.