(dp0
VisHistoricallyInteresting
p1
(dp2
S'isArray'
p3
I00
sS'attrChildrenNames'
p4
(lp5
sS'isMulti'
p6
I00
sS'isCompound'
p7
I00
sS'attrChildrenLongNames'
p8
(lp9
sS'isElement'
p10
I00
ssVinPosition.inPositionX
p11
(dp12
S'isArray'
p13
I00
sS'attrParentLongName'
p14
VinPosition
p15
sS'attrChildrenNames'
p16
(lp17
sS'isMulti'
p18
I00
sS'isCompound'
p19
I00
sg8
(lp20
sS'isElement'
p21
I00
ssVnodeState
p22
(dp23
S'isArray'
p24
I00
sS'attrChildrenNames'
p25
(lp26
sS'isMulti'
p27
I00
sS'isCompound'
p28
I00
sg8
(lp29
sS'isElement'
p30
I00
ssVinPosition.inPositionY
p31
(dp32
S'isArray'
p33
I00
sS'attrParentLongName'
p34
VinPosition
p35
sS'attrChildrenNames'
p36
(lp37
sS'isMulti'
p38
I00
sS'isCompound'
p39
I00
sg8
(lp40
sS'isElement'
p41
I00
ssVresult.position.positionZ
p42
(dp43
S'isArray'
p44
I00
sS'attrParentLongName'
p45
Vresult.position
p46
sS'attrChildrenNames'
p47
(lp48
sS'isMulti'
p49
I00
sS'isCompound'
p50
I00
sg8
(lp51
sS'isElement'
p52
I00
ssVinPosition.inPositionZ
p53
(dp54
S'isArray'
p55
I00
sS'attrParentLongName'
p56
VinPosition
p57
sS'attrChildrenNames'
p58
(lp59
sS'isMulti'
p60
I00
sS'isCompound'
p61
I00
sg8
(lp62
sS'isElement'
p63
I00
ssVresult.position.positionX
p64
(dp65
S'isArray'
p66
I00
sS'attrParentLongName'
p67
Vresult.position
p68
sS'attrChildrenNames'
p69
(lp70
sS'isMulti'
p71
I00
sS'isCompound'
p72
I00
sg8
(lp73
sS'isElement'
p74
I00
ssVresult.position.positionY
p75
(dp76
S'isArray'
p77
I00
sS'attrParentLongName'
p78
Vresult.position
p79
sS'attrChildrenNames'
p80
(lp81
sS'isMulti'
p82
I00
sS'isCompound'
p83
I00
sg8
(lp84
sS'isElement'
p85
I00
ssVresult.position
p86
(dp87
S'isArray'
p88
I00
sS'attrParentLongName'
p89
Vresult
p90
sS'attrChildrenNames'
p91
(lp92
Vresult.position.positionX
p93
aVresult.position.positionY
p94
aVresult.position.positionZ
p95
asS'isMulti'
p96
I00
sS'isCompound'
p97
I01
sg8
(lp98
Vresult.position.positionX
p99
aVresult.position.positionY
p100
aVresult.position.positionZ
p101
asS'isElement'
p102
I00
ssVbinMembership
p103
(dp104
S'isArray'
p105
I00
sg8
(lp106
ssVresult.parameterU
p107
(dp108
S'isArray'
p109
I00
sS'attrParentLongName'
p110
Vresult
p111
sS'attrChildrenNames'
p112
(lp113
sS'isMulti'
p114
I00
sS'isCompound'
p115
I00
sg8
(lp116
sS'isElement'
p117
I00
ssVinPosition
p118
(dp119
S'isArray'
p120
I00
sS'attrChildrenNames'
p121
(lp122
VinPosition.inPositionX
p123
aVinPosition.inPositionY
p124
aVinPosition.inPositionZ
p125
asS'isMulti'
p126
I00
sS'isCompound'
p127
I01
sg8
(lp128
VinPosition.inPositionX
p129
aVinPosition.inPositionY
p130
aVinPosition.inPositionZ
p131
asS'isElement'
p132
I00
ssVresult.parameterV
p133
(dp134
S'isArray'
p135
I00
sS'attrParentLongName'
p136
Vresult
p137
sS'attrChildrenNames'
p138
(lp139
sS'isMulti'
p140
I00
sS'isCompound'
p141
I00
sg8
(lp142
sS'isElement'
p143
I00
ssVcaching
p144
(dp145
S'isArray'
p146
I00
sS'attrChildrenNames'
p147
(lp148
sS'isMulti'
p149
I00
sS'isCompound'
p150
I00
sg8
(lp151
sS'isElement'
p152
I00
ssVinputSurface
p153
(dp154
S'isArray'
p155
I00
sS'attrChildrenNames'
p156
(lp157
sS'isMulti'
p158
I00
sS'isCompound'
p159
I00
sg8
(lp160
sS'isElement'
p161
I00
ssVresult
p162
(dp163
S'isArray'
p164
I00
sS'attrChildrenNames'
p165
(lp166
Vresult.position
p167
aVresult.parameterU
p168
aVresult.parameterV
p169
asS'isMulti'
p170
I00
sS'isCompound'
p171
I01
sg8
(lp172
Vresult.position
p173
aVresult.parameterU
p174
aVresult.parameterV
p175
asS'isElement'
p176
I00
ss.