(dp0
VrotateOrder
p1
(dp2
S'isArray'
p3
I00
sS'attrType'
p4
Venum
p5
sS'attrChildrenNames'
p6
(lp7
sS'isMulti'
p8
I00
sS'isCompound'
p9
I00
sS'isSimple'
p10
I01
sS'attrChildrenLongNames'
p11
(lp12
sS'isElement'
p13
I00
ssVtarget[1].targetParentMatrix
p14
(dp15
S'isArray'
p16
I00
sS'isMulti'
p17
I00
sS'attrShortName'
p18
Vtg[1].tpm
p19
sg10
I00
sg11
(lp20
ssVtarget[0].targetTranslate.targetTranslateZ
p21
(dp22
S'isArray'
p23
I00
sS'attrParentLongName'
p24
Vtarget[0].targetTranslate
p25
sS'attrChildrenNames'
p26
(lp27
sg4
VdoubleLinear
p28
sS'isMulti'
p29
I00
sS'isCompound'
p30
I00
sg10
I01
sg18
Vtg[0].ttz
p31
sg11
(lp32
sS'isElement'
p33
I00
ssVtarget[0].targetTranslate.targetTranslateY
p34
(dp35
S'isArray'
p36
I00
sS'attrParentLongName'
p37
Vtarget[0].targetTranslate
p38
sS'attrChildrenNames'
p39
(lp40
sg4
VdoubleLinear
p41
sS'isMulti'
p42
I00
sS'isCompound'
p43
I00
sg10
I01
sg18
Vtg[0].tty
p44
sg11
(lp45
sS'isElement'
p46
I00
ssVtarget[0].targetTranslate.targetTranslateX
p47
(dp48
S'isArray'
p49
I00
sS'attrParentLongName'
p50
Vtarget[0].targetTranslate
p51
sS'attrChildrenNames'
p52
(lp53
sg4
VdoubleLinear
p54
sS'isMulti'
p55
I00
sS'isCompound'
p56
I00
sg10
I01
sg18
Vtg[0].ttx
p57
sg11
(lp58
sS'isElement'
p59
I00
ssVminTransLimitEnable.minTransYLimitEnable
p60
(dp61
S'isArray'
p62
I00
sS'attrType'
p63
Vbool
p64
sS'isMulti'
p65
I00
sS'isCompound'
p66
I00
sS'isSimple'
p67
I01
sS'attrChildrenLongNames'
p68
(lp69
ssVtarget.targetOffsetTranslate
p70
(dp71
S'attrParentLongName'
p72
Vtarget
p73
ssVrenderLayerInfo.renderLayerRenderable
p74
(dp75
g72
VrenderLayerInfo
p76
ssVtarget.targetRotateTranslateZ
p77
(dp78
g72
Vtarget.targetRotateTranslate
p79
ssVtarget.targetRotateTranslateX
p80
(dp81
g72
Vtarget.targetRotateTranslate
p82
ssVtarget.targetRotateTranslateY
p83
(dp84
g72
Vtarget.targetRotateTranslate
p85
ssVtarget[4].targetOffsetTranslate.targetOffsetTranslateZ
p86
(dp87
S'isArray'
p88
I00
sS'attrChildrenLongNames'
p89
(lp90
ssVtarget[4].targetOffsetTranslate.targetOffsetTranslateX
p91
(dp92
g88
I00
sg89
(lp93
ssVboundingBox.boundingBoxMin.boundingBoxMinY
p94
(dp95
S'isArray'
p96
I00
sS'attrParentLongName'
p97
VboundingBox.boundingBoxMin
p98
sS'attrChildrenNames'
p99
(lp100
sg4
VdoubleLinear
p101
sS'isMulti'
p102
I00
sS'isCompound'
p103
I00
sg10
I01
sg11
(lp104
sS'isElement'
p105
I00
ssVboundingBox.boundingBoxMin.boundingBoxMinX
p106
(dp107
S'isArray'
p108
I00
sS'attrParentLongName'
p109
VboundingBox.boundingBoxMin
p110
sS'attrChildrenNames'
p111
(lp112
sg4
VdoubleLinear
p113
sS'isMulti'
p114
I00
sS'isCompound'
p115
I00
sg10
I01
sg11
(lp116
sS'isElement'
p117
I00
ssVboundingBox.boundingBoxMin.boundingBoxMinZ
p118
(dp119
S'isArray'
p120
I00
sS'attrParentLongName'
p121
VboundingBox.boundingBoxMin
p122
sS'attrChildrenNames'
p123
(lp124
sg4
VdoubleLinear
p125
sS'isMulti'
p126
I00
sS'isCompound'
p127
I00
sg10
I01
sg11
(lp128
sS'isElement'
p129
I00
ssVminRotLimitEnable.minRotYLimitEnable
p130
(dp131
g62
I00
sg63
Vbool
p132
sg65
I00
sg66
I00
sg67
I01
sg68
(lp133
ssVselectHandle
p134
(dp135
S'isArray'
p136
I00
sg4
Vdouble3
p137
sS'attrChildrenNames'
p138
(lp139
VselectHandle.selectHandleX
p140
aVselectHandle.selectHandleY
p141
aVselectHandle.selectHandleZ
p142
asS'isMulti'
p143
I00
sS'isCompound'
p144
I01
sg10
I01
sg11
(lp145
VselectHandle.selectHandleX
p146
aVselectHandle.selectHandleY
p147
aVselectHandle.selectHandleZ
p148
asS'isElement'
p149
I00
ssVtarget[0].targetRotateCached.targetRotateCachedY
p150
(dp151
S'isArray'
p152
I00
sS'attrParentLongName'
p153
Vtarget[0].targetRotateCached
p154
sS'attrChildrenNames'
p155
(lp156
sg4
VdoubleAngle
p157
sS'isMulti'
p158
I00
sS'isCompound'
p159
I00
sg10
I01
sg18
Vtg[0].ctry
p160
sg11
(lp161
sS'isElement'
p162
I00
ssVtarget[0].targetRotateCached.targetRotateCachedX
p163
(dp164
S'isArray'
p165
I00
sS'attrParentLongName'
p166
Vtarget[0].targetRotateCached
p167
sS'attrChildrenNames'
p168
(lp169
sg4
VdoubleAngle
p170
sS'isMulti'
p171
I00
sS'isCompound'
p172
I00
sg10
I01
sg18
Vtg[0].ctrx
p173
sg11
(lp174
sS'isElement'
p175
I00
ssVtarget[0].targetRotateCached.targetRotateCachedZ
p176
(dp177
S'isArray'
p178
I00
sS'attrParentLongName'
p179
Vtarget[0].targetRotateCached
p180
sS'attrChildrenNames'
p181
(lp182
sg4
VdoubleAngle
p183
sS'isMulti'
p184
I00
sS'isCompound'
p185
I00
sg10
I01
sg18
Vtg[0].ctrz
p186
sg11
(lp187
sS'isElement'
p188
I00
ssVrotateQuaternion.rotateQuaternionZ
p189
(dp190
S'isArray'
p191
I00
sS'attrParentLongName'
p192
VrotateQuaternion
p193
sS'attrChildrenNames'
p194
(lp195
sg4
Vdouble
p196
sS'isMulti'
p197
I00
sS'isCompound'
p198
I00
sg10
I01
sg11
(lp199
sS'isElement'
p200
I00
ssVrenderLayerInfo[0].renderLayerId
p201
(dp202
S'isArray'
p203
I00
sS'attrParentLongName'
p204
VrenderLayerInfo[0]
p205
sS'attrChildrenNames'
p206
(lp207
sg10
I00
sg11
(lp208
sS'isElement'
p209
I00
ssVrotateQuaternion.rotateQuaternionX
p210
(dp211
S'isArray'
p212
I00
sS'attrParentLongName'
p213
VrotateQuaternion
p214
sS'attrChildrenNames'
p215
(lp216
sg4
Vdouble
p217
sS'isMulti'
p218
I00
sS'isCompound'
p219
I00
sg10
I01
sg11
(lp220
sS'isElement'
p221
I00
ssVrotateQuaternion.rotateQuaternionY
p222
(dp223
S'isArray'
p224
I00
sS'attrParentLongName'
p225
VrotateQuaternion
p226
sS'attrChildrenNames'
p227
(lp228
sg4
Vdouble
p229
sS'isMulti'
p230
I00
sS'isCompound'
p231
I00
sg10
I01
sg11
(lp232
sS'isElement'
p233
I00
ssVtarget.targetRotateCachedY
p234
(dp235
g72
Vtarget.targetRotateCached
p236
ssVminScaleLimit.minScaleXLimit
p237
(dp238
g62
I00
sg63
Vdouble
p239
sg65
I00
sg66
I00
sg67
I01
sg68
(lp240
ssVrotateQuaternion.rotateQuaternionW
p241
(dp242
S'isArray'
p243
I00
sS'attrParentLongName'
p244
VrotateQuaternion
p245
sS'attrChildrenNames'
p246
(lp247
sg4
Vdouble
p248
sS'isMulti'
p249
I00
sS'isCompound'
p250
I00
sg10
I01
sg11
(lp251
sS'isElement'
p252
I00
ssVtarget[4].targetOffsetTranslate
p253
(dp254
g88
I00
sg89
(lp255
g91
aVtarget[4].targetOffsetTranslate.targetOffsetTranslateY
p256
ag86
assVtemplatePath
p257
(dp258
S'isArray'
p259
I00
sg4
Vstring
p260
sS'attrChildrenNames'
p261
(lp262
sS'isMulti'
p263
I00
sS'isCompound'
p264
I00
sg10
I01
sg11
(lp265
sS'isElement'
p266
I00
ssVminTransLimit
p267
(dp268
g62
I00
sg63
Vdouble3
p269
sg65
I00
sg66
I01
sg67
I01
sg68
(lp270
VminTransLimit.minTransXLimit
p271
aVminTransLimit.minTransYLimit
p272
aVminTransLimit.minTransZLimit
p273
assVminRotLimit
p274
(dp275
g62
I00
sg63
Vdouble3
p276
sg65
I00
sg66
I01
sg67
I01
sg68
(lp277
VminRotLimit.minRotXLimit
p278
aVminRotLimit.minRotYLimit
p279
aVminRotLimit.minRotZLimit
p280
assVconstraintRotate
p281
(dp282
S'isArray'
p283
I00
sg4
Vdouble3
p284
sS'attrChildrenNames'
p285
(lp286
VconstraintRotate.constraintRotateX
p287
aVconstraintRotate.constraintRotateY
p288
aVconstraintRotate.constraintRotateZ
p289
asS'isMulti'
p290
I00
sS'isCompound'
p291
I01
sg10
I01
sg18
Vcr
p292
sg11
(lp293
VconstraintRotate.constraintRotateX
p294
aVconstraintRotate.constraintRotateY
p295
aVconstraintRotate.constraintRotateZ
p296
asS'isElement'
p297
I00
ssVmaxTransLimitEnable.maxTransYLimitEnable
p298
(dp299
g62
I00
sg63
Vbool
p300
sg65
I00
sg66
I00
sg67
I01
sg68
(lp301
ssVlockOutput
p302
(dp303
S'isArray'
p304
I00
sg4
Vbool
p305
sS'attrChildrenNames'
p306
(lp307
sS'isMulti'
p308
I00
sS'isCompound'
p309
I00
sg10
I01
sg11
(lp310
sS'isElement'
p311
I00
ssVconstraintParentInverseMatrix
p312
(dp313
S'isArray'
p314
I00
sg4
Vmatrix
p315
sS'attrChildrenNames'
p316
(lp317
sS'isMulti'
p318
I00
sS'isCompound'
p319
I00
sg10
I00
sg18
Vcpim
p320
sg11
(lp321
sS'isElement'
p322
I00
ssVmaxScaleLimitEnable.maxScaleYLimitEnable
p323
(dp324
g62
I00
sg63
Vbool
p325
sg65
I00
sg66
I00
sg67
I01
sg68
(lp326
ssVtarget.targetScale
p327
(dp328
S'attrParentLongName'
p329
Vtarget
p330
ssVparentMatrix[0]
p331
(dp332
g16
I00
sg10
I00
sg11
(lp333
ssVtarget.targetScaleX
p334
(dp335
g72
Vtarget.targetScale
p336
ssVtarget.targetScaleZ
p337
(dp338
g72
Vtarget.targetScale
p339
ssVinstObjGroups[0].objectGroups[0]
p340
(dp341
g16
I00
sg10
I00
sg11
(lp342
VinstObjGroups[0].objectGroups[0].objectGrpCompList
p343
aVinstObjGroups[0].objectGroups[0].objectGroupId
p344
aVinstObjGroups[0].objectGroups[0].objectGrpColor
p345
assVconstraintTranslate
p346
(dp347
S'isArray'
p348
I00
sg4
Vdouble3
p349
sS'attrChildrenNames'
p350
(lp351
VconstraintTranslate.constraintTranslateX
p352
aVconstraintTranslate.constraintTranslateY
p353
aVconstraintTranslate.constraintTranslateZ
p354
asS'isMulti'
p355
I00
sS'isCompound'
p356
I01
sg10
I01
sg18
Vct
p357
sg11
(lp358
VconstraintTranslate.constraintTranslateX
p359
aVconstraintTranslate.constraintTranslateY
p360
aVconstraintTranslate.constraintTranslateZ
p361
asS'isElement'
p362
I00
ssVdynamics
p363
(dp364
S'isArray'
p365
I00
sg4
Vbool
p366
sS'attrChildrenNames'
p367
(lp368
sS'isMulti'
p369
I00
sS'isCompound'
p370
I00
sg10
I01
sg11
(lp371
sS'isElement'
p372
I00
ssVmaxTransLimit.maxTransZLimit
p373
(dp374
g62
I00
sg63
VdoubleLinear
p375
sg65
I00
sg66
I00
sg67
I01
sg68
(lp376
ssVrenderLayerInfo[0]
p377
(dp378
g16
I00
sg10
I00
sg11
(lp379
VrenderLayerInfo[0].renderLayerId
p380
aVrenderLayerInfo[0].renderLayerRenderable
p381
aVrenderLayerInfo[0].renderLayerColor
p382
assVrotatePivot
p383
(dp384
S'isArray'
p385
I00
sg4
Vdouble3
p386
sS'attrChildrenNames'
p387
(lp388
VrotatePivot.rotatePivotX
p389
aVrotatePivot.rotatePivotY
p390
aVrotatePivot.rotatePivotZ
p391
asS'isMulti'
p392
I00
sS'isCompound'
p393
I01
sg10
I01
sg11
(lp394
VrotatePivot.rotatePivotX
p395
aVrotatePivot.rotatePivotY
p396
aVrotatePivot.rotatePivotZ
p397
asS'isElement'
p398
I00
ssVtarget[5].targetRotateOrder
p399
(dp400
g88
I00
sg89
(lp401
ssVtarget[2].targetRotate
p402
(dp403
g16
I00
sS'isMulti'
p404
I00
sg18
Vtg[2].tr
p405
sg10
I00
sg11
(lp406
Vtarget[2].targetRotate.targetRotateX
p407
aVtarget[2].targetRotate.targetRotateY
p408
aVtarget[2].targetRotate.targetRotateZ
p409
assVtemplate
p410
(dp411
S'isArray'
p412
I00
sg4
Vbool
p413
sS'attrChildrenNames'
p414
(lp415
sS'isMulti'
p416
I00
sS'isCompound'
p417
I00
sg10
I01
sg11
(lp418
sS'isElement'
p419
I00
ssVtarget[2]
p420
(dp421
g16
I00
sg404
I00
sg18
Vtg[2]
p422
sg10
I00
sg11
(lp423
Vtarget[2].targetParentMatrix
p424
aVtarget[2].targetWeight
p425
aVtarget[2].targetRotateCached
p426
aVtarget[2].targetTranslate
p427
aVtarget[2].targetRotatePivot
p428
aVtarget[2].targetRotateTranslate
p429
aVtarget[2].targetOffsetTranslate
p430
ag402
aVtarget[2].targetRotateOrder
p431
aVtarget[2].targetJointOrient
p432
aVtarget[2].targetOffsetRotate
p433
aVtarget[2].targetScale
p434
assVparentInverseMatrix[1]
p435
(dp436
g16
I00
sg10
I00
sg11
(lp437
ssVtarget[3].targetOffsetRotate.targetOffsetRotateX
p438
(dp439
g62
I00
sg404
I00
sg67
I00
sg68
(lp440
ssVtarget[3].targetOffsetRotate.targetOffsetRotateY
p441
(dp442
g62
I00
sg404
I00
sg67
I00
sg68
(lp443
ssVtarget[3].targetOffsetRotate.targetOffsetRotateZ
p444
(dp445
g62
I00
sg404
I00
sg67
I00
sg68
(lp446
ssg271
(dp447
g62
I00
sg63
VdoubleLinear
p448
sg65
I00
sg66
I00
sg67
I01
sg68
(lp449
ssVdisplayScalePivot
p450
(dp451
S'isArray'
p452
I00
sg4
Vbool
p453
sS'attrChildrenNames'
p454
(lp455
sS'isMulti'
p456
I00
sS'isCompound'
p457
I00
sg10
I01
sg11
(lp458
sS'isElement'
p459
I00
ssVtarget[0].targetRotateTranslate
p460
(dp461
S'isArray'
p462
I00
sS'attrParentLongName'
p463
Vtarget[0]
p464
sS'attrChildrenNames'
p465
(lp466
Vtarget[0].targetRotateTranslate.targetRotateTranslateX
p467
aVtarget[0].targetRotateTranslate.targetRotateTranslateY
p468
aVtarget[0].targetRotateTranslate.targetRotateTranslateZ
p469
asg4
Vdouble3
p470
sS'isMulti'
p471
I00
sS'isCompound'
p472
I01
sg10
I01
sg18
Vtg[0].trt
p473
sg11
(lp474
Vtarget[0].targetRotateTranslate.targetRotateTranslateX
p475
aVtarget[0].targetRotateTranslate.targetRotateTranslateY
p476
aVtarget[0].targetRotateTranslate.targetRotateTranslateZ
p477
asS'isElement'
p478
I00
ssVmentalRayControls.miHide
p479
(dp480
S'isArray'
p481
I00
sS'attrParentLongName'
p482
VmentalRayControls
p483
sS'attrChildrenNames'
p484
(lp485
sg4
Vbool
p486
sS'isMulti'
p487
I00
sS'isCompound'
p488
I00
sg10
I01
sg11
(lp489
sS'isElement'
p490
I00
ssVinstObjGroups.objectGroups
p491
(dp492
g72
VinstObjGroups
p493
ssVpublishedNodeInfo
p494
(dp495
S'isArray'
p496
I01
sS'isElement'
p497
I00
sS'isMulti'
p498
I01
sg10
I00
sg4
VTdataCompound
p499
ssVdrawOverride.overrideTexturing
p500
(dp501
S'isArray'
p502
I00
sS'attrParentLongName'
p503
VdrawOverride
p504
sS'attrChildrenNames'
p505
(lp506
sg4
Vbool
p507
sS'isMulti'
p508
I00
sS'isCompound'
p509
I00
sg10
I01
sg11
(lp510
sS'isElement'
p511
I00
ssg424
(dp512
g16
I00
sg404
I00
sg18
Vtg[2].tpm
p513
sg10
I00
sg11
(lp514
ssVconstraintTranslate.constraintTranslateZ
p515
(dp516
S'isArray'
p517
I00
sS'attrParentLongName'
p518
VconstraintTranslate
p519
sS'attrChildrenNames'
p520
(lp521
sg4
VdoubleLinear
p522
sS'isMulti'
p523
I00
sS'isCompound'
p524
I00
sg10
I01
sg18
Vctz
p525
sg11
(lp526
sS'isElement'
p527
I00
ssVconstraintRotatePivot
p528
(dp529
S'isArray'
p530
I00
sg4
Vdouble3
p531
sS'attrChildrenNames'
p532
(lp533
VconstraintRotatePivot.constraintRotatePivotX
p534
aVconstraintRotatePivot.constraintRotatePivotY
p535
aVconstraintRotatePivot.constraintRotatePivotZ
p536
asS'isMulti'
p537
I00
sS'isCompound'
p538
I01
sg10
I01
sg18
Vcrp
p539
sg11
(lp540
VconstraintRotatePivot.constraintRotatePivotX
p541
aVconstraintRotatePivot.constraintRotatePivotY
p542
aVconstraintRotatePivot.constraintRotatePivotZ
p543
asS'isElement'
p544
I00
ssVconstraintTranslate.constraintTranslateX
p545
(dp546
S'isArray'
p547
I00
sS'attrParentLongName'
p548
VconstraintTranslate
p549
sS'attrChildrenNames'
p550
(lp551
sg4
VdoubleLinear
p552
sS'isMulti'
p553
I00
sS'isCompound'
p554
I00
sg10
I01
sg18
Vctx
p555
sg11
(lp556
sS'isElement'
p557
I00
ssVconstraintTranslate.constraintTranslateY
p558
(dp559
S'isArray'
p560
I00
sS'attrParentLongName'
p561
VconstraintTranslate
p562
sS'attrChildrenNames'
p563
(lp564
sg4
VdoubleLinear
p565
sS'isMulti'
p566
I00
sS'isCompound'
p567
I00
sg10
I01
sg18
Vcty
p568
sg11
(lp569
sS'isElement'
p570
I00
ssVtarget[4].targetScale
p571
(dp572
g88
I00
sg89
(lp573
Vtarget[4].targetScale.targetScaleX
p574
aVtarget[4].targetScale.targetScaleY
p575
aVtarget[4].targetScale.targetScaleZ
p576
assVtarget.targetOffsetRotate
p577
(dp578
g72
Vtarget
p579
ssVdisplayHandle
p580
(dp581
S'isArray'
p582
I00
sg4
Vbool
p583
sS'attrChildrenNames'
p584
(lp585
sS'isMulti'
p586
I00
sS'isCompound'
p587
I00
sg10
I01
sg11
(lp588
sS'isElement'
p589
I00
ssVtarget.targetOffsetRotateZ
p590
(dp591
g72
Vtarget.targetOffsetRotate
p592
ssVtarget.targetOffsetRotateX
p593
(dp594
g72
Vtarget.targetOffsetRotate
p595
ssVtarget.targetOffsetRotateY
p596
(dp597
g72
Vtarget.targetOffsetRotate
p598
ssVtarget.targetRotateTranslate
p599
(dp600
g329
Vtarget
p601
ssVrotateQuaternion
p602
(dp603
S'isArray'
p604
I00
sg4
Vdouble4
p605
sS'attrChildrenNames'
p606
(lp607
VrotateQuaternion.rotateQuaternionX
p608
aVrotateQuaternion.rotateQuaternionY
p609
aVrotateQuaternion.rotateQuaternionZ
p610
aVrotateQuaternion.rotateQuaternionW
p611
asS'isMulti'
p612
I00
sS'isCompound'
p613
I01
sg10
I00
sg11
(lp614
VrotateQuaternion.rotateQuaternionX
p615
aVrotateQuaternion.rotateQuaternionY
p616
aVrotateQuaternion.rotateQuaternionZ
p617
aVrotateQuaternion.rotateQuaternionW
p618
asS'isElement'
p619
I00
ssVtransMinusRotatePivot.transMinusRotatePivotZ
p620
(dp621
S'isArray'
p622
I00
sS'attrParentLongName'
p623
VtransMinusRotatePivot
p624
sS'attrChildrenNames'
p625
(lp626
sg4
VdoubleLinear
p627
sS'isMulti'
p628
I00
sS'isCompound'
p629
I00
sg10
I01
sg11
(lp630
sS'isElement'
p631
I00
ssVtransMinusRotatePivot.transMinusRotatePivotX
p632
(dp633
S'isArray'
p634
I00
sS'attrParentLongName'
p635
VtransMinusRotatePivot
p636
sS'attrChildrenNames'
p637
(lp638
sg4
VdoubleLinear
p639
sS'isMulti'
p640
I00
sS'isCompound'
p641
I00
sg10
I01
sg11
(lp642
sS'isElement'
p643
I00
ssVtransMinusRotatePivot.transMinusRotatePivotY
p644
(dp645
S'isArray'
p646
I00
sS'attrParentLongName'
p647
VtransMinusRotatePivot
p648
sS'attrChildrenNames'
p649
(lp650
sg4
VdoubleLinear
p651
sS'isMulti'
p652
I00
sS'isCompound'
p653
I00
sg10
I01
sg11
(lp654
sS'isElement'
p655
I00
ssVrotationInterpolation
p656
(dp657
S'isArray'
p658
I00
sg4
Venum
p659
sS'attrChildrenNames'
p660
(lp661
sS'isMulti'
p662
I00
sS'isCompound'
p663
I00
sg10
I01
sg11
(lp664
sS'isElement'
p665
I00
ssVminScaleLimit.minScaleYLimit
p666
(dp667
g62
I00
sg63
Vdouble
p668
sg65
I00
sg66
I00
sg67
I01
sg68
(lp669
ssVinstObjGroups[2].objectGroups
p670
(dp671
S'isArray'
p672
I01
sS'isSimple'
p673
I00
ssVtarget.targetTranslateY
p674
(dp675
g72
Vtarget.targetTranslate
p676
ssVtarget.targetTranslateX
p677
(dp678
g72
Vtarget.targetTranslate
p679
ssVtarget.targetTranslateZ
p680
(dp681
g72
Vtarget.targetTranslate
p682
ssVtarget[0].targetOffsetRotate.targetOffsetRotateZ
p683
(dp684
S'isArray'
p685
I00
sS'attrParentLongName'
p686
Vtarget[0].targetOffsetRotate
p687
sS'attrChildrenNames'
p688
(lp689
sg4
VdoubleAngle
p690
sS'isMulti'
p691
I00
sS'isCompound'
p692
I00
sg10
I01
sg18
Vtg[0].torz
p693
sg11
(lp694
sS'isElement'
p695
I00
ssVtarget[0].targetOffsetRotate.targetOffsetRotateY
p696
(dp697
S'isArray'
p698
I00
sS'attrParentLongName'
p699
Vtarget[0].targetOffsetRotate
p700
sS'attrChildrenNames'
p701
(lp702
sg4
VdoubleAngle
p703
sS'isMulti'
p704
I00
sS'isCompound'
p705
I00
sg10
I01
sg18
Vtg[0].tory
p706
sg11
(lp707
sS'isElement'
p708
I00
ssVtarget[0].targetOffsetRotate.targetOffsetRotateX
p709
(dp710
S'isArray'
p711
I00
sS'attrParentLongName'
p712
Vtarget[0].targetOffsetRotate
p713
sS'attrChildrenNames'
p714
(lp715
sg4
VdoubleAngle
p716
sS'isMulti'
p717
I00
sS'isCompound'
p718
I00
sg10
I01
sg18
Vtg[0].torx
p719
sg11
(lp720
sS'isElement'
p721
I00
ssVtarget[1].targetRotateTranslate.targetRotateTranslateY
p722
(dp723
g16
I00
sg17
I00
sg18
Vtg[1].trty
p724
sg10
I00
sg11
(lp725
ssVshear.shearXZ
p726
(dp727
S'isArray'
p728
I00
sS'attrParentLongName'
p729
Vshear
p730
sS'attrChildrenNames'
p731
(lp732
sg4
Vdouble
p733
sS'isMulti'
p734
I00
sS'isCompound'
p735
I00
sg10
I01
sg11
(lp736
sS'isElement'
p737
I00
ssVshear.shearXY
p738
(dp739
S'isArray'
p740
I00
sS'attrParentLongName'
p741
Vshear
p742
sS'attrChildrenNames'
p743
(lp744
sg4
Vdouble
p745
sS'isMulti'
p746
I00
sS'isCompound'
p747
I00
sg10
I01
sg11
(lp748
sS'isElement'
p749
I00
ssVtarget[4].targetJointOrient.targetJointOrientZ
p750
(dp751
g88
I00
sg89
(lp752
ssVvisibility
p753
(dp754
S'isArray'
p755
I00
sg4
Vbool
p756
sS'attrChildrenNames'
p757
(lp758
sS'isMulti'
p759
I00
sS'isCompound'
p760
I00
sg10
I01
sg11
(lp761
sS'isElement'
p762
I00
ssVtarget[4].targetJointOrient.targetJointOrientX
p763
(dp764
g88
I00
sg89
(lp765
ssVenableRestPosition
p766
(dp767
S'isArray'
p768
I00
sg4
Vbool
p769
sS'attrChildrenNames'
p770
(lp771
sS'isMulti'
p772
I00
sS'isCompound'
p773
I00
sg10
I01
sg11
(lp774
sS'isElement'
p775
I00
ssVlastTargetRotate.lastTargetRotateX
p776
(dp777
S'isArray'
p778
I00
sS'attrParentLongName'
p779
VlastTargetRotate
p780
sS'attrChildrenNames'
p781
(lp782
sg4
VdoubleAngle
p783
sS'isMulti'
p784
I00
sS'isCompound'
p785
I00
sg10
I01
sg18
Vlrx
p786
sg11
(lp787
sS'isElement'
p788
I00
ssVlastTargetRotate.lastTargetRotateY
p789
(dp790
S'isArray'
p791
I00
sS'attrParentLongName'
p792
VlastTargetRotate
p793
sS'attrChildrenNames'
p794
(lp795
sg4
VdoubleAngle
p796
sS'isMulti'
p797
I00
sS'isCompound'
p798
I00
sg10
I01
sg18
Vlry
p799
sg11
(lp800
sS'isElement'
p801
I00
ssVlastTargetRotate.lastTargetRotateZ
p802
(dp803
S'isArray'
p804
I00
sS'attrParentLongName'
p805
VlastTargetRotate
p806
sS'attrChildrenNames'
p807
(lp808
sg4
VdoubleAngle
p809
sS'isMulti'
p810
I00
sS'isCompound'
p811
I00
sg10
I01
sg18
Vlrz
p812
sg11
(lp813
sS'isElement'
p814
I00
ssVtarget.targetJointOrient
p815
(dp816
S'attrParentLongName'
p817
Vtarget
p818
ssVinterpType
p819
(dp820
S'isArray'
p821
I00
sg4
Venum
p822
sS'attrChildrenNames'
p823
(lp824
sS'isMulti'
p825
I00
sS'isCompound'
p826
I00
sg10
I01
sg11
(lp827
sS'isElement'
p828
I00
ssVlastTargetRotate
p829
(dp830
S'isArray'
p831
I00
sg4
Vdouble3
p832
sS'attrChildrenNames'
p833
(lp834
VlastTargetRotate.lastTargetRotateX
p835
aVlastTargetRotate.lastTargetRotateY
p836
aVlastTargetRotate.lastTargetRotateZ
p837
asS'isMulti'
p838
I00
sS'isCompound'
p839
I01
sg10
I01
sg18
Vlr
p840
sg11
(lp841
VlastTargetRotate.lastTargetRotateX
p842
aVlastTargetRotate.lastTargetRotateY
p843
aVlastTargetRotate.lastTargetRotateZ
p844
asS'isElement'
p845
I00
ssVrenderInfo.layerOverrideColor
p846
(dp847
S'isArray'
p848
I00
sS'attrParentLongName'
p849
VrenderInfo
p850
sS'attrChildrenNames'
p851
(lp852
sg4
Vbyte
p853
sS'isMulti'
p854
I00
sS'isCompound'
p855
I00
sg10
I00
sg11
(lp856
sS'isElement'
p857
I00
ssVtarget[5].targetRotatePivot
p858
(dp859
g88
I00
sg89
(lp860
Vtarget[5].targetRotatePivot.targetRotatePivotX
p861
aVtarget[5].targetRotatePivot.targetRotatePivotY
p862
aVtarget[5].targetRotatePivot.targetRotatePivotZ
p863
assVdisplayRotatePivot
p864
(dp865
S'isArray'
p866
I00
sg4
Vbool
p867
sS'attrChildrenNames'
p868
(lp869
sS'isMulti'
p870
I00
sS'isCompound'
p871
I00
sg10
I01
sg11
(lp872
sS'isElement'
p873
I00
ssVmaxTransLimitEnable.maxTransXLimitEnable
p874
(dp875
g62
I00
sg63
Vbool
p876
sg65
I00
sg66
I00
sg67
I01
sg68
(lp877
ssVinstObjGroups[0]
p878
(dp879
g16
I00
sg10
I00
sg11
(lp880
VinstObjGroups[0].objectGroups
p881
assVtarget[4].targetJointOrient
p882
(dp883
g88
I00
sg89
(lp884
g763
aVtarget[4].targetJointOrient.targetJointOrientY
p885
ag750
assVmentalRayControls.miCaustic
p886
(dp887
S'isArray'
p888
I00
sS'attrParentLongName'
p889
VmentalRayControls
p890
sS'attrChildrenNames'
p891
(lp892
sg4
Venum
p893
sS'isMulti'
p894
I00
sS'isCompound'
p895
I00
sg10
I01
sg11
(lp896
sS'isElement'
p897
I00
ssVtarget[4].targetRotatePivot.targetRotatePivotZ
p898
(dp899
g88
I00
sg89
(lp900
ssVtarget[4].targetRotatePivot.targetRotatePivotY
p901
(dp902
g88
I00
sg89
(lp903
ssVtarget[4].targetRotatePivot.targetRotatePivotX
p904
(dp905
g88
I00
sg89
(lp906
ssVpublishedNodeInfo[0].isHierarchicalNode
p907
(dp908
S'isArray'
p909
I00
sS'attrParentLongName'
p910
VpublishedNodeInfo[0]
p911
sS'attrChildrenNames'
p912
(lp913
sg10
I00
sg11
(lp914
sS'isElement'
p915
I00
ssVmaxRotLimitEnable.maxRotYLimitEnable
p916
(dp917
g62
I00
sg63
Vbool
p918
sg65
I00
sg66
I00
sg67
I01
sg68
(lp919
ssVtarget[1].targetRotateCached.targetRotateCachedX
p920
(dp921
g16
I00
sg17
I00
sg18
Vtg[1].ctrx
p922
sg10
I00
sg11
(lp923
ssVtarget[1].targetRotateCached.targetRotateCachedY
p924
(dp925
g16
I00
sg17
I00
sg18
Vtg[1].ctry
p926
sg10
I00
sg11
(lp927
ssVtarget[1].targetRotateCached.targetRotateCachedZ
p928
(dp929
g16
I00
sg17
I00
sg18
Vtg[1].ctrz
p930
sg10
I00
sg11
(lp931
ssVboundingBox.boundingBoxSize.boundingBoxSizeY
p932
(dp933
S'isArray'
p934
I00
sS'attrParentLongName'
p935
VboundingBox.boundingBoxSize
p936
sS'attrChildrenNames'
p937
(lp938
sg4
VdoubleLinear
p939
sS'isMulti'
p940
I00
sS'isCompound'
p941
I00
sg10
I01
sg11
(lp942
sS'isElement'
p943
I00
ssVboundingBox.boundingBoxSize.boundingBoxSizeX
p944
(dp945
S'isArray'
p946
I00
sS'attrParentLongName'
p947
VboundingBox.boundingBoxSize
p948
sS'attrChildrenNames'
p949
(lp950
sg4
VdoubleLinear
p951
sS'isMulti'
p952
I00
sS'isCompound'
p953
I00
sg10
I01
sg11
(lp954
sS'isElement'
p955
I00
ssVmentalRayControls.miExportGeoShader
p956
(dp957
S'isArray'
p958
I00
sS'attrParentLongName'
p959
VmentalRayControls
p960
sS'attrChildrenNames'
p961
(lp962
sg4
Vbool
p963
sS'isMulti'
p964
I00
sS'isCompound'
p965
I00
sg10
I01
sg11
(lp966
sS'isElement'
p967
I00
ssVboundingBox.boundingBoxSize.boundingBoxSizeZ
p968
(dp969
S'isArray'
p970
I00
sS'attrParentLongName'
p971
VboundingBox.boundingBoxSize
p972
sS'attrChildrenNames'
p973
(lp974
sg4
VdoubleLinear
p975
sS'isMulti'
p976
I00
sS'isCompound'
p977
I00
sg10
I01
sg11
(lp978
sS'isElement'
p979
I00
ssVtemplateName
p980
(dp981
S'isArray'
p982
I00
sg4
Vstring
p983
sS'attrChildrenNames'
p984
(lp985
sS'isMulti'
p986
I00
sS'isCompound'
p987
I00
sg10
I01
sg11
(lp988
sS'isElement'
p989
I00
ssVtarget[3].targetRotate.targetRotateZ
p990
(dp991
g62
I00
sg404
I00
sg67
I00
sg68
(lp992
ssVghostingControl
p993
(dp994
S'isArray'
p995
I00
sg4
Venum
p996
sS'attrChildrenNames'
p997
(lp998
sS'isMulti'
p999
I00
sS'isCompound'
p1000
I00
sg10
I01
sg11
(lp1001
sS'isElement'
p1002
I00
ssVtarget[3].targetRotate.targetRotateX
p1003
(dp1004
g62
I00
sg404
I00
sg67
I00
sg68
(lp1005
ssVtarget[3].targetRotate.targetRotateY
p1006
(dp1007
g62
I00
sg404
I00
sg67
I00
sg68
(lp1008
ssVtarget[0].targetScale.targetScaleZ
p1009
(dp1010
S'isArray'
p1011
I00
sS'attrParentLongName'
p1012
Vtarget[0].targetScale
p1013
sS'attrChildrenNames'
p1014
(lp1015
sg4
Vdouble
p1016
sS'isMulti'
p1017
I00
sS'isCompound'
p1018
I00
sg10
I01
sg18
Vtg[0].tsz
p1019
sg11
(lp1020
sS'isElement'
p1021
I00
ssVtarget[0].targetScale.targetScaleY
p1022
(dp1023
S'isArray'
p1024
I00
sS'attrParentLongName'
p1025
Vtarget[0].targetScale
p1026
sS'attrChildrenNames'
p1027
(lp1028
sg4
Vdouble
p1029
sS'isMulti'
p1030
I00
sS'isCompound'
p1031
I00
sg10
I01
sg18
Vtg[0].tsy
p1032
sg11
(lp1033
sS'isElement'
p1034
I00
ssVtarget[0].targetScale.targetScaleX
p1035
(dp1036
S'isArray'
p1037
I00
sS'attrParentLongName'
p1038
Vtarget[0].targetScale
p1039
sS'attrChildrenNames'
p1040
(lp1041
sg4
Vdouble
p1042
sS'isMulti'
p1043
I00
sS'isCompound'
p1044
I00
sg10
I01
sg18
Vtg[0].tsx
p1045
sg11
(lp1046
sS'isElement'
p1047
I00
ssVtarget[1].targetTranslate.targetTranslateZ
p1048
(dp1049
g16
I00
sg17
I00
sg18
Vtg[1].ttz
p1050
sg10
I00
sg11
(lp1051
ssVminScaleLimitEnable
p1052
(dp1053
g62
I00
sg63
VTdataCompound
p1054
sg65
I00
sg67
I00
sg68
(lp1055
VminScaleLimitEnable.minScaleXLimitEnable
p1056
aVminScaleLimitEnable.minScaleYLimitEnable
p1057
aVminScaleLimitEnable.minScaleZLimitEnable
p1058
assVmentalRayControls.miDeriveFromMaya
p1059
(dp1060
S'isArray'
p1061
I00
sS'attrParentLongName'
p1062
VmentalRayControls
p1063
sS'attrChildrenNames'
p1064
(lp1065
sg4
Vbool
p1066
sS'isMulti'
p1067
I00
sS'isCompound'
p1068
I00
sg10
I01
sg11
(lp1069
sS'isElement'
p1070
I00
ssVtarget.targetRotateOrder
p1071
(dp1072
g329
Vtarget
p1073
ssVdrawOverride.overrideDisplayType
p1074
(dp1075
S'isArray'
p1076
I00
sS'attrParentLongName'
p1077
VdrawOverride
p1078
sS'attrChildrenNames'
p1079
(lp1080
sg4
Venum
p1081
sS'isMulti'
p1082
I00
sS'isCompound'
p1083
I00
sg10
I01
sg11
(lp1084
sS'isElement'
p1085
I00
ssg425
(dp1086
g16
I00
sg404
I00
sg18
Vtg[2].tw
p1087
sg10
I00
sg11
(lp1088
ssVnodeState
p1089
(dp1090
S'isArray'
p1091
I00
sg4
Venum
p1092
sS'attrChildrenNames'
p1093
(lp1094
sS'isMulti'
p1095
I00
sS'isCompound'
p1096
I00
sg10
I01
sg11
(lp1097
sS'isElement'
p1098
I00
ssVtarget[1].targetRotateOrder
p1099
(dp1100
g16
I00
sg17
I00
sg18
Vtg[1].tro
p1101
sg10
I00
sg11
(lp1102
ssVtarget[3].targetTranslate.targetTranslateX
p1103
(dp1104
g62
I00
sg404
I00
sg67
I00
sg68
(lp1105
ssVtarget[3].targetTranslate.targetTranslateY
p1106
(dp1107
g62
I00
sg404
I00
sg67
I00
sg68
(lp1108
ssVtarget[3].targetTranslate.targetTranslateZ
p1109
(dp1110
g62
I00
sg404
I00
sg67
I00
sg68
(lp1111
ssVtarget[5].targetOffsetTranslate
p1112
(dp1113
g88
I00
sg89
(lp1114
Vtarget[5].targetOffsetTranslate.targetOffsetTranslateX
p1115
aVtarget[5].targetOffsetTranslate.targetOffsetTranslateY
p1116
aVtarget[5].targetOffsetTranslate.targetOffsetTranslateZ
p1117
assVworldMatrix[1]
p1118
(dp1119
g16
I00
sg10
I00
sg11
(lp1120
ssVscalePivotTranslate.scalePivotTranslateZ
p1121
(dp1122
S'isArray'
p1123
I00
sS'attrParentLongName'
p1124
VscalePivotTranslate
p1125
sS'attrChildrenNames'
p1126
(lp1127
sg4
VdoubleLinear
p1128
sS'isMulti'
p1129
I00
sS'isCompound'
p1130
I00
sg10
I01
sg11
(lp1131
sS'isElement'
p1132
I00
ssVscalePivotTranslate.scalePivotTranslateX
p1133
(dp1134
S'isArray'
p1135
I00
sS'attrParentLongName'
p1136
VscalePivotTranslate
p1137
sS'attrChildrenNames'
p1138
(lp1139
sg4
VdoubleLinear
p1140
sS'isMulti'
p1141
I00
sS'isCompound'
p1142
I00
sg10
I01
sg11
(lp1143
sS'isElement'
p1144
I00
ssVisHierarchicalConnection
p1145
(dp1146
g62
I01
sg63
VTdataCompound
p1147
sg67
I00
sg65
I01
ssVtarget[3].targetRotateCached
p1148
(dp1149
g62
I00
sg404
I00
sg67
I00
sg68
(lp1150
Vtarget[3].targetRotateCached.targetRotateCachedX
p1151
aVtarget[3].targetRotateCached.targetRotateCachedY
p1152
aVtarget[3].targetRotateCached.targetRotateCachedZ
p1153
assVtarget[1].targetScale.targetScaleZ
p1154
(dp1155
g16
I00
sg17
I00
sg18
Vtg[1].tsz
p1156
sg10
I00
sg11
(lp1157
ssVminTransLimitEnable
p1158
(dp1159
g62
I00
sg63
VTdataCompound
p1160
sg65
I00
sg67
I00
sg68
(lp1161
VminTransLimitEnable.minTransXLimitEnable
p1162
ag60
aVminTransLimitEnable.minTransZLimitEnable
p1163
assVtarget[1].targetScale.targetScaleX
p1164
(dp1165
g16
I00
sg17
I00
sg18
Vtg[1].tsx
p1166
sg10
I00
sg11
(lp1167
ssVtarget[1].targetScale.targetScaleY
p1168
(dp1169
g16
I00
sg17
I00
sg18
Vtg[1].tsy
p1170
sg10
I00
sg11
(lp1171
ssVtarget[4].targetRotateCached
p1172
(dp1173
g88
I00
sg89
(lp1174
Vtarget[4].targetRotateCached.targetRotateCachedX
p1175
aVtarget[4].targetRotateCached.targetRotateCachedY
p1176
aVtarget[4].targetRotateCached.targetRotateCachedZ
p1177
assVghostFrames
p1178
(dp1179
S'isArray'
p1180
I00
sg4
NsS'attrChildrenNames'
p1181
(lp1182
sS'isMulti'
p1183
I00
sS'isCompound'
p1184
I00
sg10
I00
sg11
(lp1185
sS'isElement'
p1186
I00
ssVinstObjGroups[0].objectGroups[0].objectGrpColor
p1187
(dp1188
S'isArray'
p1189
I00
sS'attrParentLongName'
p1190
VinstObjGroups[0].objectGroups[0]
p1191
sS'attrChildrenNames'
p1192
(lp1193
sg10
I00
sg11
(lp1194
sS'isElement'
p1195
I00
ssg426
(dp1196
g16
I00
sg404
I00
sg18
Vtg[2].ctr
p1197
sg10
I00
sg11
(lp1198
Vtarget[2].targetRotateCached.targetRotateCachedX
p1199
aVtarget[2].targetRotateCached.targetRotateCachedY
p1200
aVtarget[2].targetRotateCached.targetRotateCachedZ
p1201
assVdrawOverride.overrideColor
p1202
(dp1203
S'isArray'
p1204
I00
sS'attrParentLongName'
p1205
VdrawOverride
p1206
sS'attrChildrenNames'
p1207
(lp1208
sg4
Vbyte
p1209
sS'isMulti'
p1210
I00
sS'isCompound'
p1211
I00
sg10
I00
sg11
(lp1212
sS'isElement'
p1213
I00
ssVrenderLayerInfo.renderLayerId
p1214
(dp1215
g72
VrenderLayerInfo
p1216
ssVrestTranslate
p1217
(dp1218
S'isArray'
p1219
I00
sg4
Vdouble3
p1220
sS'attrChildrenNames'
p1221
(lp1222
VrestTranslate.restTranslateX
p1223
aVrestTranslate.restTranslateY
p1224
aVrestTranslate.restTranslateZ
p1225
asS'isMulti'
p1226
I00
sS'isCompound'
p1227
I01
sg10
I01
sg18
Vrst
p1228
sg11
(lp1229
VrestTranslate.restTranslateX
p1230
aVrestTranslate.restTranslateY
p1231
aVrestTranslate.restTranslateZ
p1232
asS'isElement'
p1233
I00
ssg433
(dp1234
g16
I00
sg404
I00
sg18
Vtg[2].tor
p1235
sg10
I00
sg11
(lp1236
Vtarget[2].targetOffsetRotate.targetOffsetRotateX
p1237
aVtarget[2].targetOffsetRotate.targetOffsetRotateY
p1238
aVtarget[2].targetOffsetRotate.targetOffsetRotateZ
p1239
assg576
(dp1240
g88
I00
sg89
(lp1241
ssg575
(dp1242
g88
I00
sg89
(lp1243
ssg574
(dp1244
g88
I00
sg89
(lp1245
ssVtarget[5].targetRotateCached.targetRotateCachedX
p1246
(dp1247
g88
I00
sg89
(lp1248
ssVtarget[5].targetRotateCached.targetRotateCachedY
p1249
(dp1250
g88
I00
sg89
(lp1251
ssVtarget[5].targetRotateCached.targetRotateCachedZ
p1252
(dp1253
g88
I00
sg89
(lp1254
ssVtarget[1].targetJointOrient
p1255
(dp1256
g16
I00
sg17
I00
sg18
Vtg[1].tjo
p1257
sg10
I00
sg11
(lp1258
Vtarget[1].targetJointOrient.targetJointOrientX
p1259
aVtarget[1].targetJointOrient.targetJointOrientY
p1260
aVtarget[1].targetJointOrient.targetJointOrientZ
p1261
assVrenderLayerInfo[1].renderLayerColor
p1262
(dp1263
g16
I00
sg10
I00
sg11
(lp1264
ssVtarget.targetParentMatrix
p1265
(dp1266
g329
Vtarget
p1267
ssVcustomTreatment
p1268
(dp1269
S'isArray'
p1270
I00
sg4
Vstring
p1271
sS'attrChildrenNames'
p1272
(lp1273
sS'isMulti'
p1274
I00
sS'isCompound'
p1275
I00
sg10
I01
sg11
(lp1276
sS'isElement'
p1277
I00
ssVtarget[1].targetOffsetRotate
p1278
(dp1279
g16
I00
sg17
I00
sg18
Vtg[1].tor
p1280
sg10
I00
sg11
(lp1281
Vtarget[1].targetOffsetRotate.targetOffsetRotateX
p1282
aVtarget[1].targetOffsetRotate.targetOffsetRotateY
p1283
aVtarget[1].targetOffsetRotate.targetOffsetRotateZ
p1284
assVshear
p1285
(dp1286
S'isArray'
p1287
I00
sg4
Vdouble3
p1288
sS'attrChildrenNames'
p1289
(lp1290
Vshear.shearXY
p1291
aVshear.shearXZ
p1292
aVshear.shearYZ
p1293
asS'isMulti'
p1294
I00
sS'isCompound'
p1295
I01
sg10
I01
sg11
(lp1296
Vshear.shearXY
p1297
aVshear.shearXZ
p1298
aVshear.shearYZ
p1299
asS'isElement'
p1300
I00
ssVtarget[5].targetRotate
p1301
(dp1302
g88
I00
sg89
(lp1303
Vtarget[5].targetRotate.targetRotateX
p1304
aVtarget[5].targetRotate.targetRotateY
p1305
aVtarget[5].targetRotate.targetRotateZ
p1306
assVinstObjGroups.objectGroups.objectGrpColor
p1307
(dp1308
g72
VinstObjGroups.objectGroups
p1309
ssVtarget[3].targetOffsetRotate
p1310
(dp1311
g62
I00
sg404
I00
sg67
I00
sg68
(lp1312
g438
ag441
ag444
assVtarget[4].targetRotateTranslate
p1313
(dp1314
g88
I00
sg89
(lp1315
Vtarget[4].targetRotateTranslate.targetRotateTranslateX
p1316
aVtarget[4].targetRotateTranslate.targetRotateTranslateY
p1317
aVtarget[4].targetRotateTranslate.targetRotateTranslateZ
p1318
assVcreationDate
p1319
(dp1320
S'isArray'
p1321
I00
sg4
Vstring
p1322
sS'attrChildrenNames'
p1323
(lp1324
sS'isMulti'
p1325
I00
sS'isCompound'
p1326
I00
sg10
I01
sg11
(lp1327
sS'isElement'
p1328
I00
ssVtarget[1].targetScale
p1329
(dp1330
g16
I00
sg17
I00
sg18
Vtg[1].ts
p1331
sg10
I00
sg11
(lp1332
g1164
ag1168
ag1154
assVtarget[1].targetTranslate.targetTranslateX
p1333
(dp1334
g16
I00
sg17
I00
sg18
Vtg[1].ttx
p1335
sg10
I00
sg11
(lp1336
ssg1201
(dp1337
g16
I00
sg404
I00
sg18
Vtg[2].ctrz
p1338
sg10
I00
sg11
(lp1339
ssg1200
(dp1340
g16
I00
sg404
I00
sg18
Vtg[2].ctry
p1341
sg10
I00
sg11
(lp1342
ssg1199
(dp1343
g16
I00
sg404
I00
sg18
Vtg[2].ctrx
p1344
sg10
I00
sg11
(lp1345
ssVisHierarchicalConnection[1]
p1346
(dp1347
g62
I00
sg67
I00
sg68
(lp1348
ssg280
(dp1349
g62
I00
sg63
VdoubleAngle
p1350
sg65
I00
sg66
I00
sg67
I01
sg68
(lp1351
ssVrotatePivot.rotatePivotZ
p1352
(dp1353
S'isArray'
p1354
I00
sS'attrParentLongName'
p1355
VrotatePivot
p1356
sS'attrChildrenNames'
p1357
(lp1358
sg4
VdoubleLinear
p1359
sS'isMulti'
p1360
I00
sS'isCompound'
p1361
I00
sg10
I01
sg11
(lp1362
sS'isElement'
p1363
I00
ssVrotatePivot.rotatePivotX
p1364
(dp1365
S'isArray'
p1366
I00
sS'attrParentLongName'
p1367
VrotatePivot
p1368
sS'attrChildrenNames'
p1369
(lp1370
sg4
VdoubleLinear
p1371
sS'isMulti'
p1372
I00
sS'isCompound'
p1373
I00
sg10
I01
sg11
(lp1374
sS'isElement'
p1375
I00
ssVrotatePivot.rotatePivotY
p1376
(dp1377
S'isArray'
p1378
I00
sS'attrParentLongName'
p1379
VrotatePivot
p1380
sS'attrChildrenNames'
p1381
(lp1382
sg4
VdoubleLinear
p1383
sS'isMulti'
p1384
I00
sS'isCompound'
p1385
I00
sg10
I01
sg11
(lp1386
sS'isElement'
p1387
I00
ssVtarget[0].targetTranslate
p1388
(dp1389
S'isArray'
p1390
I00
sS'attrParentLongName'
p1391
Vtarget[0]
p1392
sS'attrChildrenNames'
p1393
(lp1394
Vtarget[0].targetTranslate.targetTranslateX
p1395
aVtarget[0].targetTranslate.targetTranslateY
p1396
aVtarget[0].targetTranslate.targetTranslateZ
p1397
asg4
Vdouble3
p1398
sS'isMulti'
p1399
I00
sS'isCompound'
p1400
I01
sg10
I01
sg18
Vtg[0].tt
p1401
sg11
(lp1402
Vtarget[0].targetTranslate.targetTranslateX
p1403
aVtarget[0].targetTranslate.targetTranslateY
p1404
aVtarget[0].targetTranslate.targetTranslateZ
p1405
asS'isElement'
p1406
I00
ssVworldMatrix[2]
p1407
(dp1408
g672
I00
sg673
I00
sS'attrChildrenLongNames'
p1409
(lp1410
ssVtarget[2].targetRotatePivot.targetRotatePivotY
p1411
(dp1412
g16
I00
sg404
I00
sg18
Vtg[2].trpy
p1413
sg10
I00
sg11
(lp1414
ssg434
(dp1415
g16
I00
sg404
I00
sg18
Vtg[2].ts
p1416
sg10
I00
sg11
(lp1417
Vtarget[2].targetScale.targetScaleX
p1418
aVtarget[2].targetScale.targetScaleY
p1419
aVtarget[2].targetScale.targetScaleZ
p1420
assVtarget[2].targetRotatePivot.targetRotatePivotZ
p1421
(dp1422
g16
I00
sg404
I00
sg18
Vtg[2].trpz
p1423
sg10
I00
sg11
(lp1424
ssVinstObjGroups[1].objectGroups
p1425
(dp1426
g16
I01
sg10
I00
ssVghosting
p1427
(dp1428
S'isArray'
p1429
I00
sg4
Vbool
p1430
sS'attrChildrenNames'
p1431
(lp1432
sS'isMulti'
p1433
I00
sS'isCompound'
p1434
I00
sg10
I01
sg11
(lp1435
sS'isElement'
p1436
I00
ssVmatrix
p1437
(dp1438
S'isArray'
p1439
I00
sg4
Vmatrix
p1440
sS'attrChildrenNames'
p1441
(lp1442
sS'isMulti'
p1443
I00
sS'isCompound'
p1444
I00
sg10
I00
sg11
(lp1445
sS'isElement'
p1446
I00
ssVworldInverseMatrix[2]
p1447
(dp1448
g672
I00
sg673
I00
sg1409
(lp1449
ssVselectHandle.selectHandleX
p1450
(dp1451
S'isArray'
p1452
I00
sS'attrParentLongName'
p1453
VselectHandle
p1454
sS'attrChildrenNames'
p1455
(lp1456
sg4
VdoubleLinear
p1457
sS'isMulti'
p1458
I00
sS'isCompound'
p1459
I00
sg10
I01
sg11
(lp1460
sS'isElement'
p1461
I00
ssVselectHandle.selectHandleY
p1462
(dp1463
S'isArray'
p1464
I00
sS'attrParentLongName'
p1465
VselectHandle
p1466
sS'attrChildrenNames'
p1467
(lp1468
sg4
VdoubleLinear
p1469
sS'isMulti'
p1470
I00
sS'isCompound'
p1471
I00
sg10
I01
sg11
(lp1472
sS'isElement'
p1473
I00
ssVselectHandle.selectHandleZ
p1474
(dp1475
S'isArray'
p1476
I00
sS'attrParentLongName'
p1477
VselectHandle
p1478
sS'attrChildrenNames'
p1479
(lp1480
sg4
VdoubleLinear
p1481
sS'isMulti'
p1482
I00
sS'isCompound'
p1483
I00
sg10
I01
sg11
(lp1484
sS'isElement'
p1485
I00
ssVmaxRotLimitEnable.maxRotZLimitEnable
p1486
(dp1487
g62
I00
sg63
Vbool
p1488
sg65
I00
sg66
I00
sg67
I01
sg68
(lp1489
ssVtarget[3].targetRotatePivot
p1490
(dp1491
g62
I00
sg404
I00
sg67
I00
sg68
(lp1492
Vtarget[3].targetRotatePivot.targetRotatePivotX
p1493
aVtarget[3].targetRotatePivot.targetRotatePivotY
p1494
aVtarget[3].targetRotatePivot.targetRotatePivotZ
p1495
assg256
(dp1496
g88
I00
sg89
(lp1497
ssVtarget[3].targetRotateTranslate
p1498
(dp1499
g62
I00
sg404
I00
sg67
I00
sg68
(lp1500
Vtarget[3].targetRotateTranslate.targetRotateTranslateX
p1501
aVtarget[3].targetRotateTranslate.targetRotateTranslateY
p1502
aVtarget[3].targetRotateTranslate.targetRotateTranslateZ
p1503
assVworldMatrix
p1504
(dp1505
S'isArray'
p1506
I01
sS'isElement'
p1507
I00
sS'isMulti'
p1508
I01
sg10
I00
sg4
Vmatrix
p1509
ssVcontainerType
p1510
(dp1511
S'isArray'
p1512
I00
sg4
Vstring
p1513
sS'attrChildrenNames'
p1514
(lp1515
sS'isMulti'
p1516
I00
sS'isCompound'
p1517
I00
sg10
I01
sg11
(lp1518
sS'isElement'
p1519
I00
ssVminScaleLimit.minScaleZLimit
p1520
(dp1521
g62
I00
sg63
Vdouble
p1522
sg65
I00
sg66
I00
sg67
I01
sg68
(lp1523
ssVparentInverseMatrix
p1524
(dp1525
S'isArray'
p1526
I01
sS'isElement'
p1527
I00
sS'isMulti'
p1528
I01
sg10
I00
sg4
Vmatrix
p1529
ssg432
(dp1530
g16
I00
sg404
I00
sg18
Vtg[2].tjo
p1531
sg10
I00
sg11
(lp1532
Vtarget[2].targetJointOrient.targetJointOrientX
p1533
aVtarget[2].targetJointOrient.targetJointOrientY
p1534
aVtarget[2].targetJointOrient.targetJointOrientZ
p1535
assVtarget[5].targetTranslate.targetTranslateZ
p1536
(dp1537
g88
I00
sg89
(lp1538
ssVtarget[5].targetTranslate.targetTranslateX
p1539
(dp1540
g88
I00
sg89
(lp1541
ssVtarget[5].targetTranslate.targetTranslateY
p1542
(dp1543
g88
I00
sg89
(lp1544
ssVtarget[1].targetRotateCached
p1545
(dp1546
g16
I00
sg17
I00
sg18
Vtg[1].ctr
p1547
sg10
I00
sg11
(lp1548
g920
ag924
ag928
assVrenderInfo.layerRenderable
p1549
(dp1550
S'isArray'
p1551
I00
sS'attrParentLongName'
p1552
VrenderInfo
p1553
sS'attrChildrenNames'
p1554
(lp1555
sg4
Vbool
p1556
sS'isMulti'
p1557
I00
sS'isCompound'
p1558
I00
sg10
I01
sg11
(lp1559
sS'isElement'
p1560
I00
ssVrmbCommand
p1561
(dp1562
g62
I00
sg63
Vstring
p1563
sg65
I00
sg66
I00
sg67
I01
sg68
(lp1564
ssVmaxRotLimit
p1565
(dp1566
g62
I00
sg63
Vdouble3
p1567
sg65
I00
sg66
I01
sg67
I01
sg68
(lp1568
VmaxRotLimit.maxRotXLimit
p1569
aVmaxRotLimit.maxRotYLimit
p1570
aVmaxRotLimit.maxRotZLimit
p1571
assVghostCustomSteps.ghostPreSteps
p1572
(dp1573
S'isArray'
p1574
I00
sS'attrParentLongName'
p1575
VghostCustomSteps
p1576
sS'attrChildrenNames'
p1577
(lp1578
sg4
Vlong
p1579
sS'isMulti'
p1580
I00
sS'isCompound'
p1581
I00
sg10
I01
sg11
(lp1582
sS'isElement'
p1583
I00
ssVpublishedNodeInfo[1].publishedNodeType
p1584
(dp1585
g16
I00
sg10
I00
sg11
(lp1586
ssVgeometry
p1587
(dp1588
S'isArray'
p1589
I00
sg4
NsS'attrChildrenNames'
p1590
(lp1591
sS'isMulti'
p1592
I00
sS'isCompound'
p1593
I00
sg10
I00
sg11
(lp1594
sS'isElement'
p1595
I00
ssVtarget[4].targetRotatePivot
p1596
(dp1597
g88
I00
sg89
(lp1598
g904
ag901
ag898
assVtarget[4].targetTranslate
p1599
(dp1600
g88
I00
sg89
(lp1601
Vtarget[4].targetTranslate.targetTranslateX
p1602
aVtarget[4].targetTranslate.targetTranslateY
p1603
aVtarget[4].targetTranslate.targetTranslateZ
p1604
assVconstraintRotateTranslate
p1605
(dp1606
S'isArray'
p1607
I00
sg4
Vdouble3
p1608
sS'attrChildrenNames'
p1609
(lp1610
VconstraintRotateTranslate.constraintRotateTranslateX
p1611
aVconstraintRotateTranslate.constraintRotateTranslateY
p1612
aVconstraintRotateTranslate.constraintRotateTranslateZ
p1613
asS'isMulti'
p1614
I00
sS'isCompound'
p1615
I01
sg10
I01
sg18
Vcrt
p1616
sg11
(lp1617
VconstraintRotateTranslate.constraintRotateTranslateX
p1618
aVconstraintRotateTranslate.constraintRotateTranslateY
p1619
aVconstraintRotateTranslate.constraintRotateTranslateZ
p1620
asS'isElement'
p1621
I00
ssVminRotLimitEnable
p1622
(dp1623
g62
I00
sg63
VTdataCompound
p1624
sg65
I00
sg67
I00
sg68
(lp1625
VminRotLimitEnable.minRotXLimitEnable
p1626
ag130
aVminRotLimitEnable.minRotZLimitEnable
p1627
assVtarget.targetWeight
p1628
(dp1629
g329
Vtarget
p1630
ssVtarget.targetScaleY
p1631
(dp1632
g72
Vtarget.targetScale
p1633
ssVshear.shearYZ
p1634
(dp1635
S'isArray'
p1636
I00
sS'attrParentLongName'
p1637
Vshear
p1638
sS'attrChildrenNames'
p1639
(lp1640
sg4
Vdouble
p1641
sS'isMulti'
p1642
I00
sS'isCompound'
p1643
I00
sg10
I01
sg11
(lp1644
sS'isElement'
p1645
I00
ssVpublishedNodeInfo.isHierarchicalNode
p1646
(dp1647
S'attrParentLongName'
p1648
VpublishedNodeInfo
p1649
ssVtarget[5].targetScale
p1650
(dp1651
g88
I00
sg89
(lp1652
Vtarget[5].targetScale.targetScaleX
p1653
aVtarget[5].targetScale.targetScaleY
p1654
aVtarget[5].targetScale.targetScaleZ
p1655
assVtarget[4].targetParentMatrix
p1656
(dp1657
g88
I00
sg89
(lp1658
ssg1176
(dp1659
g88
I00
sg89
(lp1660
ssg1175
(dp1661
g88
I00
sg89
(lp1662
ssg1177
(dp1663
g88
I00
sg89
(lp1664
ssg278
(dp1665
g62
I00
sg63
VdoubleAngle
p1666
sg65
I00
sg66
I00
sg67
I01
sg68
(lp1667
ssVtarget[2].targetRotateTranslate.targetRotateTranslateY
p1668
(dp1669
g16
I00
sg404
I00
sg18
Vtg[2].trty
p1670
sg10
I00
sg11
(lp1671
ssVtarget[2].targetRotateTranslate.targetRotateTranslateX
p1672
(dp1673
g16
I00
sg404
I00
sg18
Vtg[2].trtx
p1674
sg10
I00
sg11
(lp1675
ssVtarget[2].targetRotateTranslate.targetRotateTranslateZ
p1676
(dp1677
g16
I00
sg404
I00
sg18
Vtg[2].trtz
p1678
sg10
I00
sg11
(lp1679
ssVxformMatrix
p1680
(dp1681
S'isArray'
p1682
I00
sg4
Vmatrix
p1683
sS'attrChildrenNames'
p1684
(lp1685
sS'isMulti'
p1686
I00
sS'isCompound'
p1687
I00
sg10
I00
sg11
(lp1688
sS'isElement'
p1689
I00
ssVinstObjGroups[1]
p1690
(dp1691
g16
I00
sg10
I00
sg11
(lp1692
g1425
assVtarget[0].targetRotateCached
p1693
(dp1694
S'isArray'
p1695
I00
sS'attrParentLongName'
p1696
Vtarget[0]
p1697
sS'attrChildrenNames'
p1698
(lp1699
Vtarget[0].targetRotateCached.targetRotateCachedX
p1700
aVtarget[0].targetRotateCached.targetRotateCachedY
p1701
aVtarget[0].targetRotateCached.targetRotateCachedZ
p1702
asg4
Vdouble3
p1703
sS'isMulti'
p1704
I00
sS'isCompound'
p1705
I01
sg10
I01
sg18
Vtg[0].ctr
p1706
sg11
(lp1707
Vtarget[0].targetRotateCached.targetRotateCachedX
p1708
aVtarget[0].targetRotateCached.targetRotateCachedY
p1709
aVtarget[0].targetRotateCached.targetRotateCachedZ
p1710
asS'isElement'
p1711
I00
ssVparentMatrix[1]
p1712
(dp1713
g16
I00
sg10
I00
sg11
(lp1714
ssVrenderInfo
p1715
(dp1716
S'isArray'
p1717
I00
sg4
VTdataCompound
p1718
sS'attrChildrenNames'
p1719
(lp1720
VrenderInfo.identification
p1721
aVrenderInfo.layerRenderable
p1722
aVrenderInfo.layerOverrideColor
p1723
asS'isMulti'
p1724
I00
sS'isCompound'
p1725
I01
sg10
I00
sg11
(lp1726
VrenderInfo.identification
p1727
aVrenderInfo.layerRenderable
p1728
aVrenderInfo.layerOverrideColor
p1729
asS'isElement'
p1730
I00
ssVscalePivotTranslate.scalePivotTranslateY
p1731
(dp1732
S'isArray'
p1733
I00
sS'attrParentLongName'
p1734
VscalePivotTranslate
p1735
sS'attrChildrenNames'
p1736
(lp1737
sg4
VdoubleLinear
p1738
sS'isMulti'
p1739
I00
sS'isCompound'
p1740
I00
sg10
I01
sg11
(lp1741
sS'isElement'
p1742
I00
ssVtarget[5].targetWeight
p1743
(dp1744
g88
I00
sg89
(lp1745
ssVmaxScaleLimit.maxScaleZLimit
p1746
(dp1747
g62
I00
sg63
Vdouble
p1748
sg65
I00
sg66
I00
sg67
I01
sg68
(lp1749
ssVtarget
p1750
(dp1751
S'isArray'
p1752
I01
sg4
VTdataCompound
p1753
sS'isMulti'
p1754
I01
sg10
I00
sg18
Vtg
p1755
sS'isElement'
p1756
I00
ssVtarget[0].targetRotateTranslate.targetRotateTranslateZ
p1757
(dp1758
S'isArray'
p1759
I00
sS'attrParentLongName'
p1760
Vtarget[0].targetRotateTranslate
p1761
sS'attrChildrenNames'
p1762
(lp1763
sg4
VdoubleLinear
p1764
sS'isMulti'
p1765
I00
sS'isCompound'
p1766
I00
sg10
I01
sg18
Vtg[0].trtz
p1767
sg11
(lp1768
sS'isElement'
p1769
I00
ssVtarget[0].targetRotateTranslate.targetRotateTranslateY
p1770
(dp1771
S'isArray'
p1772
I00
sS'attrParentLongName'
p1773
Vtarget[0].targetRotateTranslate
p1774
sS'attrChildrenNames'
p1775
(lp1776
sg4
VdoubleLinear
p1777
sS'isMulti'
p1778
I00
sS'isCompound'
p1779
I00
sg10
I01
sg18
Vtg[0].trty
p1780
sg11
(lp1781
sS'isElement'
p1782
I00
ssVtarget[3]
p1783
(dp1784
g62
I00
sg404
I00
sg67
I00
sg68
(lp1785
Vtarget[3].targetParentMatrix
p1786
aVtarget[3].targetWeight
p1787
ag1148
aVtarget[3].targetTranslate
p1788
ag1490
ag1498
aVtarget[3].targetOffsetTranslate
p1789
aVtarget[3].targetRotate
p1790
aVtarget[3].targetRotateOrder
p1791
aVtarget[3].targetJointOrient
p1792
ag1310
aVtarget[3].targetScale
p1793
assVmaxScaleLimit.maxScaleXLimit
p1794
(dp1795
g62
I00
sg63
Vdouble
p1796
sg65
I00
sg66
I00
sg67
I01
sg68
(lp1797
ssVscalePivot
p1798
(dp1799
S'isArray'
p1800
I00
sg4
Vdouble3
p1801
sS'attrChildrenNames'
p1802
(lp1803
VscalePivot.scalePivotX
p1804
aVscalePivot.scalePivotY
p1805
aVscalePivot.scalePivotZ
p1806
asS'isMulti'
p1807
I00
sS'isCompound'
p1808
I01
sg10
I01
sg11
(lp1809
VscalePivot.scalePivotX
p1810
aVscalePivot.scalePivotY
p1811
aVscalePivot.scalePivotZ
p1812
asS'isElement'
p1813
I00
ssVworldInverseMatrix[0]
p1814
(dp1815
g16
I00
sg10
I00
sg11
(lp1816
ssVboundingBox.boundingBoxMax.boundingBoxMaxY
p1817
(dp1818
S'isArray'
p1819
I00
sS'attrParentLongName'
p1820
VboundingBox.boundingBoxMax
p1821
sS'attrChildrenNames'
p1822
(lp1823
sg4
VdoubleLinear
p1824
sS'isMulti'
p1825
I00
sS'isCompound'
p1826
I00
sg10
I01
sg11
(lp1827
sS'isElement'
p1828
I00
ssVboundingBox.boundingBoxMax.boundingBoxMaxX
p1829
(dp1830
S'isArray'
p1831
I00
sS'attrParentLongName'
p1832
VboundingBox.boundingBoxMax
p1833
sS'attrChildrenNames'
p1834
(lp1835
sg4
VdoubleLinear
p1836
sS'isMulti'
p1837
I00
sS'isCompound'
p1838
I00
sg10
I01
sg11
(lp1839
sS'isElement'
p1840
I00
ssVtarget[1].targetRotate
p1841
(dp1842
g16
I00
sg17
I00
sg18
Vtg[1].tr
p1843
sg10
I00
sg11
(lp1844
Vtarget[1].targetRotate.targetRotateX
p1845
aVtarget[1].targetRotate.targetRotateY
p1846
aVtarget[1].targetRotate.targetRotateZ
p1847
assVboundingBox.boundingBoxMax.boundingBoxMaxZ
p1848
(dp1849
S'isArray'
p1850
I00
sS'attrParentLongName'
p1851
VboundingBox.boundingBoxMax
p1852
sS'attrChildrenNames'
p1853
(lp1854
sg4
VdoubleLinear
p1855
sS'isMulti'
p1856
I00
sS'isCompound'
p1857
I00
sg10
I01
sg11
(lp1858
sS'isElement'
p1859
I00
ssVisCollapsed
p1860
(dp1861
S'isArray'
p1862
I00
sg4
Vbool
p1863
sS'attrChildrenNames'
p1864
(lp1865
sS'isMulti'
p1866
I00
sS'isCompound'
p1867
I00
sg10
I01
sg11
(lp1868
sS'isElement'
p1869
I00
ssg427
(dp1870
g16
I00
sg404
I00
sg18
Vtg[2].tt
p1871
sg10
I00
sg11
(lp1872
Vtarget[2].targetTranslate.targetTranslateX
p1873
aVtarget[2].targetTranslate.targetTranslateY
p1874
aVtarget[2].targetTranslate.targetTranslateZ
p1875
assg431
(dp1876
g16
I00
sg404
I00
sg18
Vtg[2].tro
p1877
sg10
I00
sg11
(lp1878
ssVparentInverseMatrix[2]
p1879
(dp1880
g672
I00
sg673
I00
sg1409
(lp1881
ssVmaxTransLimit.maxTransXLimit
p1882
(dp1883
g62
I00
sg63
VdoubleLinear
p1884
sg65
I00
sg66
I00
sg67
I01
sg68
(lp1885
ssVmaxScaleLimit.maxScaleYLimit
p1886
(dp1887
g62
I00
sg63
Vdouble
p1888
sg65
I00
sg66
I00
sg67
I01
sg68
(lp1889
ssVtarget[4].targetOffsetRotate.targetOffsetRotateZ
p1890
(dp1891
g88
I00
sg89
(lp1892
ssVtarget[4].targetOffsetRotate.targetOffsetRotateY
p1893
(dp1894
g88
I00
sg89
(lp1895
ssVtarget[4].targetOffsetRotate.targetOffsetRotateX
p1896
(dp1897
g88
I00
sg89
(lp1898
ssVtarget.targetJointOrientX
p1899
(dp1900
g72
Vtarget.targetJointOrient
p1901
ssVtarget[0].targetOffsetTranslate.targetOffsetTranslateZ
p1902
(dp1903
S'isArray'
p1904
I00
sS'attrParentLongName'
p1905
Vtarget[0].targetOffsetTranslate
p1906
sS'attrChildrenNames'
p1907
(lp1908
sg4
VdoubleLinear
p1909
sS'isMulti'
p1910
I00
sS'isCompound'
p1911
I00
sg10
I01
sg18
Vtg[0].totz
p1912
sg11
(lp1913
sS'isElement'
p1914
I00
ssVtarget[4].targetWeight
p1915
(dp1916
g88
I00
sg89
(lp1917
ssVtarget[0].targetOffsetTranslate.targetOffsetTranslateX
p1918
(dp1919
S'isArray'
p1920
I00
sS'attrParentLongName'
p1921
Vtarget[0].targetOffsetTranslate
p1922
sS'attrChildrenNames'
p1923
(lp1924
sg4
VdoubleLinear
p1925
sS'isMulti'
p1926
I00
sS'isCompound'
p1927
I00
sg10
I01
sg18
Vtg[0].totx
p1928
sg11
(lp1929
sS'isElement'
p1930
I00
ssVinstObjGroups[0].objectGroups[0].objectGrpCompList
p1931
(dp1932
S'isArray'
p1933
I00
sS'attrParentLongName'
p1934
VinstObjGroups[0].objectGroups[0]
p1935
sS'attrChildrenNames'
p1936
(lp1937
sg10
I00
sg11
(lp1938
sS'isElement'
p1939
I00
ssVuiTreatment
p1940
(dp1941
S'isArray'
p1942
I00
sg4
Venum
p1943
sS'attrChildrenNames'
p1944
(lp1945
sS'isMulti'
p1946
I00
sS'isCompound'
p1947
I00
sg10
I01
sg11
(lp1948
sS'isElement'
p1949
I00
ssVrestTranslate.restTranslateZ
p1950
(dp1951
S'isArray'
p1952
I00
sS'attrParentLongName'
p1953
VrestTranslate
p1954
sS'attrChildrenNames'
p1955
(lp1956
sg4
VdoubleLinear
p1957
sS'isMulti'
p1958
I00
sS'isCompound'
p1959
I00
sg10
I01
sg18
Vrtz
p1960
sg11
(lp1961
sS'isElement'
p1962
I00
ssVmaxRotLimitEnable
p1963
(dp1964
g62
I00
sg63
VTdataCompound
p1965
sg65
I00
sg67
I00
sg68
(lp1966
VmaxRotLimitEnable.maxRotXLimitEnable
p1967
ag916
ag1486
assVrestTranslate.restTranslateX
p1968
(dp1969
S'isArray'
p1970
I00
sS'attrParentLongName'
p1971
VrestTranslate
p1972
sS'attrChildrenNames'
p1973
(lp1974
sg4
VdoubleLinear
p1975
sS'isMulti'
p1976
I00
sS'isCompound'
p1977
I00
sg10
I01
sg18
Vrtx
p1978
sg11
(lp1979
sS'isElement'
p1980
I00
ssVrestTranslate.restTranslateY
p1981
(dp1982
S'isArray'
p1983
I00
sS'attrParentLongName'
p1984
VrestTranslate
p1985
sS'attrChildrenNames'
p1986
(lp1987
sg4
VdoubleLinear
p1988
sS'isMulti'
p1989
I00
sS'isCompound'
p1990
I00
sg10
I01
sg18
Vrty
p1991
sg11
(lp1992
sS'isElement'
p1993
I00
ssVrotate.rotateZ
p1994
(dp1995
S'isArray'
p1996
I00
sS'attrParentLongName'
p1997
Vrotate
p1998
sS'attrChildrenNames'
p1999
(lp2000
sg4
VdoubleAngle
p2001
sS'isMulti'
p2002
I00
sS'isCompound'
p2003
I00
sg10
I01
sg11
(lp2004
sS'isElement'
p2005
I00
ssVrotate.rotateX
p2006
(dp2007
S'isArray'
p2008
I00
sS'attrParentLongName'
p2009
Vrotate
p2010
sS'attrChildrenNames'
p2011
(lp2012
sg4
VdoubleAngle
p2013
sS'isMulti'
p2014
I00
sS'isCompound'
p2015
I00
sg10
I01
sg11
(lp2016
sS'isElement'
p2017
I00
ssVrotate.rotateY
p2018
(dp2019
S'isArray'
p2020
I00
sS'attrParentLongName'
p2021
Vrotate
p2022
sS'attrChildrenNames'
p2023
(lp2024
sg4
VdoubleAngle
p2025
sS'isMulti'
p2026
I00
sS'isCompound'
p2027
I00
sg10
I01
sg11
(lp2028
sS'isElement'
p2029
I00
ssVcaching
p2030
(dp2031
S'isArray'
p2032
I00
sg4
Vbool
p2033
sS'attrChildrenNames'
p2034
(lp2035
sS'isMulti'
p2036
I00
sS'isCompound'
p2037
I00
sg10
I01
sg11
(lp2038
sS'isElement'
p2039
I00
ssVrenderLayerInfo[1].renderLayerRenderable
p2040
(dp2041
g16
I00
sg10
I00
sg11
(lp2042
ssVtranslate.translateZ
p2043
(dp2044
S'isArray'
p2045
I00
sS'attrParentLongName'
p2046
Vtranslate
p2047
sS'attrChildrenNames'
p2048
(lp2049
sg4
VdoubleLinear
p2050
sS'isMulti'
p2051
I00
sS'isCompound'
p2052
I00
sg10
I01
sg11
(lp2053
sS'isElement'
p2054
I00
ssg1791
(dp2055
g62
I00
sg404
I00
sg67
I00
sg68
(lp2056
ssVtranslate.translateX
p2057
(dp2058
S'isArray'
p2059
I00
sS'attrParentLongName'
p2060
Vtranslate
p2061
sS'attrChildrenNames'
p2062
(lp2063
sg4
VdoubleLinear
p2064
sS'isMulti'
p2065
I00
sS'isCompound'
p2066
I00
sg10
I01
sg11
(lp2067
sS'isElement'
p2068
I00
ssVtranslate.translateY
p2069
(dp2070
S'isArray'
p2071
I00
sS'attrParentLongName'
p2072
Vtranslate
p2073
sS'attrChildrenNames'
p2074
(lp2075
sg4
VdoubleLinear
p2076
sS'isMulti'
p2077
I00
sS'isCompound'
p2078
I00
sg10
I01
sg11
(lp2079
sS'isElement'
p2080
I00
ssVghostCustomSteps.ghostPostSteps
p2081
(dp2082
S'isArray'
p2083
I00
sS'attrParentLongName'
p2084
VghostCustomSteps
p2085
sS'attrChildrenNames'
p2086
(lp2087
sg4
Vlong
p2088
sS'isMulti'
p2089
I00
sS'isCompound'
p2090
I00
sg10
I01
sg11
(lp2091
sS'isElement'
p2092
I00
ssVmentalRayControls.miVisible
p2093
(dp2094
S'isArray'
p2095
I00
sS'attrParentLongName'
p2096
VmentalRayControls
p2097
sS'attrChildrenNames'
p2098
(lp2099
sg4
Venum
p2100
sS'isMulti'
p2101
I00
sS'isCompound'
p2102
I00
sg10
I01
sg11
(lp2103
sS'isElement'
p2104
I00
ssVuseObjectColor
p2105
(dp2106
S'isArray'
p2107
I00
sg4
Vbool
p2108
sS'attrChildrenNames'
p2109
(lp2110
sS'isMulti'
p2111
I00
sS'isCompound'
p2112
I00
sg10
I01
sg11
(lp2113
sS'isElement'
p2114
I00
ssVdrawOverride.overrideLevelOfDetail
p2115
(dp2116
S'isArray'
p2117
I00
sS'attrParentLongName'
p2118
VdrawOverride
p2119
sS'attrChildrenNames'
p2120
(lp2121
sg4
Venum
p2122
sS'isMulti'
p2123
I00
sS'isCompound'
p2124
I00
sg10
I01
sg11
(lp2125
sS'isElement'
p2126
I00
ssVinstObjGroups[0].objectGroups[0].objectGroupId
p2127
(dp2128
S'isArray'
p2129
I00
sS'attrParentLongName'
p2130
VinstObjGroups[0].objectGroups[0]
p2131
sS'attrChildrenNames'
p2132
(lp2133
sg10
I00
sg11
(lp2134
sS'isElement'
p2135
I00
ssg1967
(dp2136
g62
I00
sg63
Vbool
p2137
sg65
I00
sg66
I00
sg67
I01
sg68
(lp2138
ssVtarget.targetRotateCachedX
p2139
(dp2140
g72
Vtarget.targetRotateCached
p2141
ssg863
(dp2142
g88
I00
sg89
(lp2143
ssg861
(dp2144
g88
I00
sg89
(lp2145
ssg862
(dp2146
g88
I00
sg89
(lp2147
ssVtarget.targetOffsetTranslateZ
p2148
(dp2149
g72
Vtarget.targetOffsetTranslate
p2150
ssVtarget.targetOffsetTranslateX
p2151
(dp2152
g72
Vtarget.targetOffsetTranslate
p2153
ssVtarget.targetOffsetTranslateY
p2154
(dp2155
g72
Vtarget.targetOffsetTranslate
p2156
ssVtransMinusRotatePivot
p2157
(dp2158
S'isArray'
p2159
I00
sg4
Vdouble3
p2160
sS'attrChildrenNames'
p2161
(lp2162
VtransMinusRotatePivot.transMinusRotatePivotX
p2163
aVtransMinusRotatePivot.transMinusRotatePivotY
p2164
aVtransMinusRotatePivot.transMinusRotatePivotZ
p2165
asS'isMulti'
p2166
I00
sS'isCompound'
p2167
I01
sg10
I01
sg11
(lp2168
VtransMinusRotatePivot.transMinusRotatePivotX
p2169
aVtransMinusRotatePivot.transMinusRotatePivotY
p2170
aVtransMinusRotatePivot.transMinusRotatePivotZ
p2171
asS'isElement'
p2172
I00
ssVbinMembership
p2173
(dp2174
g62
I00
sg63
Vstring
p2175
sg65
I00
sg66
I00
sg67
I01
sg68
(lp2176
ssVrenderLayerInfo[0].renderLayerRenderable
p2177
(dp2178
S'isArray'
p2179
I00
sS'attrParentLongName'
p2180
VrenderLayerInfo[0]
p2181
sS'attrChildrenNames'
p2182
(lp2183
sg10
I00
sg11
(lp2184
sS'isElement'
p2185
I00
ssg409
(dp2186
g16
I00
sg404
I00
sg18
Vtg[2].trz
p2187
sg10
I00
sg11
(lp2188
ssg408
(dp2189
g16
I00
sg404
I00
sg18
Vtg[2].try
p2190
sg10
I00
sg11
(lp2191
ssg407
(dp2192
g16
I00
sg404
I00
sg18
Vtg[2].trx
p2193
sg10
I00
sg11
(lp2194
ssVparentMatrix
p2195
(dp2196
S'isArray'
p2197
I01
sS'isElement'
p2198
I00
sS'isMulti'
p2199
I01
sg10
I00
sg4
Vmatrix
p2200
ssVtarget[5].targetRotateTranslate.targetRotateTranslateZ
p2201
(dp2202
g88
I00
sg89
(lp2203
ssVtarget[5].targetRotateTranslate.targetRotateTranslateX
p2204
(dp2205
g88
I00
sg89
(lp2206
ssVtarget[5].targetRotateTranslate.targetRotateTranslateY
p2207
(dp2208
g88
I00
sg89
(lp2209
ssg1163
(dp2210
g62
I00
sg63
Vbool
p2211
sg65
I00
sg66
I00
sg67
I01
sg68
(lp2212
ssVscalePivotTranslate
p2213
(dp2214
S'isArray'
p2215
I00
sg4
Vdouble3
p2216
sS'attrChildrenNames'
p2217
(lp2218
VscalePivotTranslate.scalePivotTranslateX
p2219
aVscalePivotTranslate.scalePivotTranslateY
p2220
aVscalePivotTranslate.scalePivotTranslateZ
p2221
asS'isMulti'
p2222
I00
sS'isCompound'
p2223
I01
sg10
I01
sg11
(lp2224
VscalePivotTranslate.scalePivotTranslateX
p2225
aVscalePivotTranslate.scalePivotTranslateY
p2226
aVscalePivotTranslate.scalePivotTranslateZ
p2227
asS'isElement'
p2228
I00
ssVrestRotate
p2229
(dp2230
S'isArray'
p2231
I00
sg4
Vdouble3
p2232
sS'attrChildrenNames'
p2233
(lp2234
VrestRotate.restRotateX
p2235
aVrestRotate.restRotateY
p2236
aVrestRotate.restRotateZ
p2237
asS'isMulti'
p2238
I00
sS'isCompound'
p2239
I01
sg10
I01
sg18
Vrsrr
p2240
sg11
(lp2241
VrestRotate.restRotateX
p2242
aVrestRotate.restRotateY
p2243
aVrestRotate.restRotateZ
p2244
asS'isElement'
p2245
I00
ssg1874
(dp2246
g16
I00
sg404
I00
sg18
Vtg[2].tty
p2247
sg10
I00
sg11
(lp2248
ssg1873
(dp2249
g16
I00
sg404
I00
sg18
Vtg[2].ttx
p2250
sg10
I00
sg11
(lp2251
ssg1875
(dp2252
g16
I00
sg404
I00
sg18
Vtg[2].ttz
p2253
sg10
I00
sg11
(lp2254
ssVtarget.targetRotatePivot
p2255
(dp2256
g329
Vtarget
p2257
ssVdrawOverride.overrideEnabled
p2258
(dp2259
S'isArray'
p2260
I00
sS'attrParentLongName'
p2261
VdrawOverride
p2262
sS'attrChildrenNames'
p2263
(lp2264
sg4
Vbool
p2265
sS'isMulti'
p2266
I00
sS'isCompound'
p2267
I00
sg10
I01
sg11
(lp2268
sS'isElement'
p2269
I00
ssVboundingBox.boundingBoxMax
p2270
(dp2271
S'isArray'
p2272
I00
sS'attrParentLongName'
p2273
VboundingBox
p2274
sS'attrChildrenNames'
p2275
(lp2276
VboundingBox.boundingBoxMax.boundingBoxMaxX
p2277
aVboundingBox.boundingBoxMax.boundingBoxMaxY
p2278
aVboundingBox.boundingBoxMax.boundingBoxMaxZ
p2279
asg4
Vdouble3
p2280
sS'isMulti'
p2281
I00
sS'isCompound'
p2282
I01
sg10
I01
sg11
(lp2283
VboundingBox.boundingBoxMax.boundingBoxMaxX
p2284
aVboundingBox.boundingBoxMax.boundingBoxMaxY
p2285
aVboundingBox.boundingBoxMax.boundingBoxMaxZ
p2286
asS'isElement'
p2287
I00
ssVconstraintRotateTranslate.constraintRotateTranslateZ
p2288
(dp2289
S'isArray'
p2290
I00
sS'attrParentLongName'
p2291
VconstraintRotateTranslate
p2292
sS'attrChildrenNames'
p2293
(lp2294
sg4
VdoubleLinear
p2295
sS'isMulti'
p2296
I00
sS'isCompound'
p2297
I00
sg10
I01
sg18
Vcrtz
p2298
sg11
(lp2299
sS'isElement'
p2300
I00
ssVconstraintRotateTranslate.constraintRotateTranslateX
p2301
(dp2302
S'isArray'
p2303
I00
sS'attrParentLongName'
p2304
VconstraintRotateTranslate
p2305
sS'attrChildrenNames'
p2306
(lp2307
sg4
VdoubleLinear
p2308
sS'isMulti'
p2309
I00
sS'isCompound'
p2310
I00
sg10
I01
sg18
Vcrtx
p2311
sg11
(lp2312
sS'isElement'
p2313
I00
ssVconstraintRotateTranslate.constraintRotateTranslateY
p2314
(dp2315
S'isArray'
p2316
I00
sS'attrParentLongName'
p2317
VconstraintRotateTranslate
p2318
sS'attrChildrenNames'
p2319
(lp2320
sg4
VdoubleLinear
p2321
sS'isMulti'
p2322
I00
sS'isCompound'
p2323
I00
sg10
I01
sg18
Vcrty
p2324
sg11
(lp2325
sS'isElement'
p2326
I00
ssVrotateAxis
p2327
(dp2328
S'isArray'
p2329
I00
sg4
Vdouble3
p2330
sS'attrChildrenNames'
p2331
(lp2332
VrotateAxis.rotateAxisX
p2333
aVrotateAxis.rotateAxisY
p2334
aVrotateAxis.rotateAxisZ
p2335
asS'isMulti'
p2336
I00
sS'isCompound'
p2337
I01
sg10
I01
sg11
(lp2338
VrotateAxis.rotateAxisX
p2339
aVrotateAxis.rotateAxisY
p2340
aVrotateAxis.rotateAxisZ
p2341
asS'isElement'
p2342
I00
ssVcreator
p2343
(dp2344
S'isArray'
p2345
I00
sg4
Vstring
p2346
sS'attrChildrenNames'
p2347
(lp2348
sS'isMulti'
p2349
I00
sS'isCompound'
p2350
I00
sg10
I01
sg11
(lp2351
sS'isElement'
p2352
I00
ssVrotateAxis.rotateAxisX
p2353
(dp2354
S'isArray'
p2355
I00
sS'attrParentLongName'
p2356
VrotateAxis
p2357
sS'attrChildrenNames'
p2358
(lp2359
sg4
VdoubleAngle
p2360
sS'isMulti'
p2361
I00
sS'isCompound'
p2362
I00
sg10
I01
sg11
(lp2363
sS'isElement'
p2364
I00
ssVrotateAxis.rotateAxisY
p2365
(dp2366
S'isArray'
p2367
I00
sS'attrParentLongName'
p2368
VrotateAxis
p2369
sS'attrChildrenNames'
p2370
(lp2371
sg4
VdoubleAngle
p2372
sS'isMulti'
p2373
I00
sS'isCompound'
p2374
I00
sg10
I01
sg11
(lp2375
sS'isElement'
p2376
I00
ssVrotateAxis.rotateAxisZ
p2377
(dp2378
S'isArray'
p2379
I00
sS'attrParentLongName'
p2380
VrotateAxis
p2381
sS'attrChildrenNames'
p2382
(lp2383
sg4
VdoubleAngle
p2384
sS'isMulti'
p2385
I00
sS'isCompound'
p2386
I00
sg10
I01
sg11
(lp2387
sS'isElement'
p2388
I00
ssg1793
(dp2389
g62
I00
sg404
I00
sg67
I00
sg68
(lp2390
Vtarget[3].targetScale.targetScaleX
p2391
aVtarget[3].targetScale.targetScaleY
p2392
aVtarget[3].targetScale.targetScaleZ
p2393
assVghostRangeEnd
p2394
(dp2395
S'isArray'
p2396
I00
sg4
Vtime
p2397
sS'attrChildrenNames'
p2398
(lp2399
sS'isMulti'
p2400
I00
sS'isCompound'
p2401
I00
sg10
I01
sg11
(lp2402
sS'isElement'
p2403
I00
ssVtemplateVersion
p2404
(dp2405
S'isArray'
p2406
I00
sg4
Vlong
p2407
sS'attrChildrenNames'
p2408
(lp2409
sS'isMulti'
p2410
I00
sS'isCompound'
p2411
I00
sg10
I01
sg11
(lp2412
sS'isElement'
p2413
I00
ssVtarget[0].targetJointOrient.targetJointOrientZ
p2414
(dp2415
S'isArray'
p2416
I00
sS'attrParentLongName'
p2417
Vtarget[0].targetJointOrient
p2418
sS'attrChildrenNames'
p2419
(lp2420
sg4
VdoubleAngle
p2421
sS'isMulti'
p2422
I00
sS'isCompound'
p2423
I00
sg10
I01
sg18
Vtg[0].tjoz
p2424
sg11
(lp2425
sS'isElement'
p2426
I00
ssVtarget[0].targetJointOrient.targetJointOrientY
p2427
(dp2428
S'isArray'
p2429
I00
sS'attrParentLongName'
p2430
Vtarget[0].targetJointOrient
p2431
sS'attrChildrenNames'
p2432
(lp2433
sg4
VdoubleAngle
p2434
sS'isMulti'
p2435
I00
sS'isCompound'
p2436
I00
sg10
I01
sg18
Vtg[0].tjoy
p2437
sg11
(lp2438
sS'isElement'
p2439
I00
ssVtarget[0].targetJointOrient.targetJointOrientX
p2440
(dp2441
S'isArray'
p2442
I00
sS'attrParentLongName'
p2443
Vtarget[0].targetJointOrient
p2444
sS'attrChildrenNames'
p2445
(lp2446
sg4
VdoubleAngle
p2447
sS'isMulti'
p2448
I00
sS'isCompound'
p2449
I00
sg10
I01
sg18
Vtg[0].tjox
p2450
sg11
(lp2451
sS'isElement'
p2452
I00
ssVparentMatrix[2]
p2453
(dp2454
g672
I00
sg673
I00
sg1409
(lp2455
ssg1057
(dp2456
g62
I00
sg63
Vbool
p2457
sg65
I00
sg66
I00
sg67
I01
sg68
(lp2458
ssVmaxScaleLimitEnable.maxScaleXLimitEnable
p2459
(dp2460
g62
I00
sg63
Vbool
p2461
sg65
I00
sg66
I00
sg67
I01
sg68
(lp2462
ssVtarget[0].targetJointOrient
p2463
(dp2464
S'isArray'
p2465
I00
sS'attrParentLongName'
p2466
Vtarget[0]
p2467
sS'attrChildrenNames'
p2468
(lp2469
Vtarget[0].targetJointOrient.targetJointOrientX
p2470
aVtarget[0].targetJointOrient.targetJointOrientY
p2471
aVtarget[0].targetJointOrient.targetJointOrientZ
p2472
asg4
Vdouble3
p2473
sS'isMulti'
p2474
I00
sS'isCompound'
p2475
I01
sg10
I01
sg18
Vtg[0].tjo
p2476
sg11
(lp2477
Vtarget[0].targetJointOrient.targetJointOrientX
p2478
aVtarget[0].targetJointOrient.targetJointOrientY
p2479
aVtarget[0].targetJointOrient.targetJointOrientZ
p2480
asS'isElement'
p2481
I00
ssVtarget[0].targetRotate.targetRotateY
p2482
(dp2483
S'isArray'
p2484
I00
sS'attrParentLongName'
p2485
Vtarget[0].targetRotate
p2486
sS'attrChildrenNames'
p2487
(lp2488
sg4
VdoubleAngle
p2489
sS'isMulti'
p2490
I00
sS'isCompound'
p2491
I00
sg10
I01
sg18
Vtg[0].try
p2492
sg11
(lp2493
sS'isElement'
p2494
I00
ssVtarget[0].targetRotate.targetRotateX
p2495
(dp2496
S'isArray'
p2497
I00
sS'attrParentLongName'
p2498
Vtarget[0].targetRotate
p2499
sS'attrChildrenNames'
p2500
(lp2501
sg4
VdoubleAngle
p2502
sS'isMulti'
p2503
I00
sS'isCompound'
p2504
I00
sg10
I01
sg18
Vtg[0].trx
p2505
sg11
(lp2506
sS'isElement'
p2507
I00
ssVtarget[0].targetRotate.targetRotateZ
p2508
(dp2509
S'isArray'
p2510
I00
sS'attrParentLongName'
p2511
Vtarget[0].targetRotate
p2512
sS'attrChildrenNames'
p2513
(lp2514
sg4
VdoubleAngle
p2515
sS'isMulti'
p2516
I00
sS'isCompound'
p2517
I00
sg10
I01
sg18
Vtg[0].trz
p2518
sg11
(lp2519
sS'isElement'
p2520
I00
ssVscalePivot.scalePivotX
p2521
(dp2522
S'isArray'
p2523
I00
sS'attrParentLongName'
p2524
VscalePivot
p2525
sS'attrChildrenNames'
p2526
(lp2527
sg4
VdoubleLinear
p2528
sS'isMulti'
p2529
I00
sS'isCompound'
p2530
I00
sg10
I01
sg11
(lp2531
sS'isElement'
p2532
I00
ssVscalePivot.scalePivotY
p2533
(dp2534
S'isArray'
p2535
I00
sS'attrParentLongName'
p2536
VscalePivot
p2537
sS'attrChildrenNames'
p2538
(lp2539
sg4
VdoubleLinear
p2540
sS'isMulti'
p2541
I00
sS'isCompound'
p2542
I00
sg10
I01
sg11
(lp2543
sS'isElement'
p2544
I00
ssVscalePivot.scalePivotZ
p2545
(dp2546
S'isArray'
p2547
I00
sS'attrParentLongName'
p2548
VscalePivot
p2549
sS'attrChildrenNames'
p2550
(lp2551
sg4
VdoubleLinear
p2552
sS'isMulti'
p2553
I00
sS'isCompound'
p2554
I00
sg10
I01
sg11
(lp2555
sS'isElement'
p2556
I00
ssVinstObjGroups.objectGroups.objectGrpCompList
p2557
(dp2558
g1648
VinstObjGroups.objectGroups
p2559
ssVpublishedNodeInfo.publishedNodeType
p2560
(dp2561
g1648
VpublishedNodeInfo
p2562
ssVpublishedNodeInfo[1]
p2563
(dp2564
g16
I00
sg10
I00
sg11
(lp2565
VpublishedNodeInfo[1].publishedNode
p2566
aVpublishedNodeInfo[1].isHierarchicalNode
p2567
ag1584
assVmaxTransLimit
p2568
(dp2569
g62
I00
sg63
Vdouble3
p2570
sg65
I00
sg66
I01
sg67
I01
sg68
(lp2571
g1882
aVmaxTransLimit.maxTransYLimit
p2572
ag373
assVtarget.targetRotateCachedZ
p2573
(dp2574
g72
Vtarget.targetRotateCached
p2575
ssg1845
(dp2576
g16
I00
sg17
I00
sg18
Vtg[1].trx
p2577
sg10
I00
sg11
(lp2578
ssg1846
(dp2579
g16
I00
sg17
I00
sg18
Vtg[1].try
p2580
sg10
I00
sg11
(lp2581
ssg1847
(dp2582
g16
I00
sg17
I00
sg18
Vtg[1].trz
p2583
sg10
I00
sg11
(lp2584
ssg1153
(dp2585
g62
I00
sg404
I00
sg67
I00
sg68
(lp2586
ssg1151
(dp2587
g62
I00
sg404
I00
sg67
I00
sg68
(lp2588
ssVscale.scaleY
p2589
(dp2590
S'isArray'
p2591
I00
sS'attrParentLongName'
p2592
Vscale
p2593
sS'attrChildrenNames'
p2594
(lp2595
sg4
Vdouble
p2596
sS'isMulti'
p2597
I00
sS'isCompound'
p2598
I00
sg10
I01
sg11
(lp2599
sS'isElement'
p2600
I00
ssVghostRangeStart
p2601
(dp2602
S'isArray'
p2603
I00
sg4
Vtime
p2604
sS'attrChildrenNames'
p2605
(lp2606
sS'isMulti'
p2607
I00
sS'isCompound'
p2608
I00
sg10
I01
sg11
(lp2609
sS'isElement'
p2610
I00
ssVpublishedNodeInfo[0].publishedNodeType
p2611
(dp2612
S'isArray'
p2613
I00
sS'attrParentLongName'
p2614
VpublishedNodeInfo[0]
p2615
sS'attrChildrenNames'
p2616
(lp2617
sg10
I00
sg11
(lp2618
sS'isElement'
p2619
I00
ssVmentalRayControls.miTrace
p2620
(dp2621
S'isArray'
p2622
I00
sS'attrParentLongName'
p2623
VmentalRayControls
p2624
sS'attrChildrenNames'
p2625
(lp2626
sg4
Venum
p2627
sS'isMulti'
p2628
I00
sS'isCompound'
p2629
I00
sg10
I01
sg11
(lp2630
sS'isElement'
p2631
I00
ssg2572
(dp2632
g62
I00
sg63
VdoubleLinear
p2633
sg65
I00
sg66
I00
sg67
I01
sg68
(lp2634
ssVmaxTransLimitEnable
p2635
(dp2636
g62
I00
sg63
VTdataCompound
p2637
sg65
I00
sg67
I00
sg68
(lp2638
g874
ag298
aVmaxTransLimitEnable.maxTransZLimitEnable
p2639
assVtarget[5].targetRotateTranslate
p2640
(dp2641
g88
I00
sg89
(lp2642
g2204
ag2207
ag2201
assVmaxScaleLimit
p2643
(dp2644
g62
I00
sg63
Vdouble3
p2645
sg65
I00
sg66
I01
sg67
I01
sg68
(lp2646
g1794
ag1886
ag1746
assVinheritsTransform
p2647
(dp2648
S'isArray'
p2649
I00
sg4
Vbool
p2650
sS'attrChildrenNames'
p2651
(lp2652
sS'isMulti'
p2653
I00
sS'isCompound'
p2654
I00
sg10
I01
sg11
(lp2655
sS'isElement'
p2656
I00
ssVisHistoricallyInteresting
p2657
(dp2658
S'isArray'
p2659
I00
sg4
Vbyte
p2660
sS'attrChildrenNames'
p2661
(lp2662
sS'isMulti'
p2663
I00
sS'isCompound'
p2664
I00
sg10
I00
sg11
(lp2665
sS'isElement'
p2666
I00
ssVghostCustomSteps
p2667
(dp2668
S'isArray'
p2669
I00
sg4
VTdataCompound
p2670
sS'attrChildrenNames'
p2671
(lp2672
VghostCustomSteps.ghostPreSteps
p2673
aVghostCustomSteps.ghostPostSteps
p2674
aVghostCustomSteps.ghostStepSize
p2675
asS'isMulti'
p2676
I00
sS'isCompound'
p2677
I01
sg10
I00
sg11
(lp2678
VghostCustomSteps.ghostPreSteps
p2679
aVghostCustomSteps.ghostPostSteps
p2680
aVghostCustomSteps.ghostStepSize
p2681
asS'isElement'
p2682
I00
ssVtarget[0]
p2683
(dp2684
g16
I00
sg4
VTdataCompound
p2685
sS'isMulti'
p2686
I00
sg10
I00
sg18
Vtg[0]
p2687
sg11
(lp2688
Vtarget[0].targetParentMatrix
p2689
aVtarget[0].targetWeight
p2690
aVtarget[0].targetRotateCached
p2691
aVtarget[0].targetTranslate
p2692
aVtarget[0].targetRotatePivot
p2693
aVtarget[0].targetRotateTranslate
p2694
aVtarget[0].targetOffsetTranslate
p2695
aVtarget[0].targetRotate
p2696
aVtarget[0].targetRotateOrder
p2697
aVtarget[0].targetJointOrient
p2698
aVtarget[0].targetOffsetRotate
p2699
aVtarget[0].targetScale
p2700
assVtarget[0].targetScale
p2701
(dp2702
S'isArray'
p2703
I00
sS'attrParentLongName'
p2704
Vtarget[0]
p2705
sS'attrChildrenNames'
p2706
(lp2707
Vtarget[0].targetScale.targetScaleX
p2708
aVtarget[0].targetScale.targetScaleY
p2709
aVtarget[0].targetScale.targetScaleZ
p2710
asg4
Vdouble3
p2711
sS'isMulti'
p2712
I00
sS'isCompound'
p2713
I01
sg10
I01
sg18
Vtg[0].ts
p2714
sg11
(lp2715
Vtarget[0].targetScale.targetScaleX
p2716
aVtarget[0].targetScale.targetScaleY
p2717
aVtarget[0].targetScale.targetScaleZ
p2718
asS'isElement'
p2719
I00
ssVtarget.targetJointOrientZ
p2720
(dp2721
g72
Vtarget.targetJointOrient
p2722
ssVdrawOverride
p2723
(dp2724
S'isArray'
p2725
I00
sg4
VTdataCompound
p2726
sS'attrChildrenNames'
p2727
(lp2728
VdrawOverride.overrideDisplayType
p2729
aVdrawOverride.overrideLevelOfDetail
p2730
aVdrawOverride.overrideShading
p2731
aVdrawOverride.overrideTexturing
p2732
aVdrawOverride.overridePlayback
p2733
aVdrawOverride.overrideEnabled
p2734
aVdrawOverride.overrideVisibility
p2735
aVdrawOverride.overrideColor
p2736
asS'isMulti'
p2737
I00
sS'isCompound'
p2738
I01
sg10
I00
sg11
(lp2739
VdrawOverride.overrideDisplayType
p2740
aVdrawOverride.overrideLevelOfDetail
p2741
aVdrawOverride.overrideShading
p2742
aVdrawOverride.overrideTexturing
p2743
aVdrawOverride.overridePlayback
p2744
aVdrawOverride.overrideEnabled
p2745
aVdrawOverride.overrideVisibility
p2746
aVdrawOverride.overrideColor
p2747
asS'isElement'
p2748
I00
ssg1261
(dp2749
g16
I00
sg17
I00
sg18
Vtg[1].tjoz
p2750
sg10
I00
sg11
(lp2751
ssVmentalRayControls.miGlobillum
p2752
(dp2753
S'isArray'
p2754
I00
sS'attrParentLongName'
p2755
VmentalRayControls
p2756
sS'attrChildrenNames'
p2757
(lp2758
sg4
Venum
p2759
sS'isMulti'
p2760
I00
sS'isCompound'
p2761
I00
sg10
I01
sg11
(lp2762
sS'isElement'
p2763
I00
ssg1259
(dp2764
g16
I00
sg17
I00
sg18
Vtg[1].tjox
p2765
sg10
I00
sg11
(lp2766
ssg1260
(dp2767
g16
I00
sg17
I00
sg18
Vtg[1].tjoy
p2768
sg10
I00
sg11
(lp2769
ssVinstObjGroups.objectGroups.objectGroupId
p2770
(dp2771
g72
VinstObjGroups.objectGroups
p2772
ssg1162
(dp2773
g62
I00
sg63
Vbool
p2774
sg65
I00
sg66
I00
sg67
I01
sg68
(lp2775
ssg1604
(dp2776
g88
I00
sg89
(lp2777
ssg1603
(dp2778
g88
I00
sg89
(lp2779
ssg1602
(dp2780
g88
I00
sg89
(lp2781
ssg1655
(dp2782
g88
I00
sg89
(lp2783
ssg1653
(dp2784
g88
I00
sg89
(lp2785
ssg1654
(dp2786
g88
I00
sg89
(lp2787
ssg1569
(dp2788
g62
I00
sg63
VdoubleAngle
p2789
sg65
I00
sg66
I00
sg67
I01
sg68
(lp2790
ssVtarget[0].targetRotate
p2791
(dp2792
S'isArray'
p2793
I00
sS'attrParentLongName'
p2794
Vtarget[0]
p2795
sS'attrChildrenNames'
p2796
(lp2797
Vtarget[0].targetRotate.targetRotateX
p2798
aVtarget[0].targetRotate.targetRotateY
p2799
aVtarget[0].targetRotate.targetRotateZ
p2800
asg4
Vdouble3
p2801
sS'isMulti'
p2802
I00
sS'isCompound'
p2803
I01
sg10
I01
sg18
Vtg[0].tr
p2804
sg11
(lp2805
Vtarget[0].targetRotate.targetRotateX
p2806
aVtarget[0].targetRotate.targetRotateY
p2807
aVtarget[0].targetRotate.targetRotateZ
p2808
asS'isElement'
p2809
I00
ssVboundingBox.boundingBoxSize
p2810
(dp2811
S'isArray'
p2812
I00
sS'attrParentLongName'
p2813
VboundingBox
p2814
sS'attrChildrenNames'
p2815
(lp2816
VboundingBox.boundingBoxSize.boundingBoxSizeX
p2817
aVboundingBox.boundingBoxSize.boundingBoxSizeY
p2818
aVboundingBox.boundingBoxSize.boundingBoxSizeZ
p2819
asg4
Vdouble3
p2820
sS'isMulti'
p2821
I00
sS'isCompound'
p2822
I01
sg10
I01
sg11
(lp2823
VboundingBox.boundingBoxSize.boundingBoxSizeX
p2824
aVboundingBox.boundingBoxSize.boundingBoxSizeY
p2825
aVboundingBox.boundingBoxSize.boundingBoxSizeZ
p2826
asS'isElement'
p2827
I00
ssVinterpCache
p2828
(dp2829
S'isArray'
p2830
I00
sg4
Vlong
p2831
sS'attrChildrenNames'
p2832
(lp2833
sS'isMulti'
p2834
I00
sS'isCompound'
p2835
I00
sg10
I01
sg11
(lp2836
sS'isElement'
p2837
I00
ssVscale.scaleZ
p2838
(dp2839
S'isArray'
p2840
I00
sS'attrParentLongName'
p2841
Vscale
p2842
sS'attrChildrenNames'
p2843
(lp2844
sg4
Vdouble
p2845
sS'isMulti'
p2846
I00
sS'isCompound'
p2847
I00
sg10
I01
sg11
(lp2848
sS'isElement'
p2849
I00
ssVtarget[1].targetRotatePivot.targetRotatePivotZ
p2850
(dp2851
g16
I00
sg17
I00
sg18
Vtg[1].trpz
p2852
sg10
I00
sg11
(lp2853
ssVtarget[1].targetRotatePivot.targetRotatePivotX
p2854
(dp2855
g16
I00
sg17
I00
sg18
Vtg[1].trpx
p2856
sg10
I00
sg11
(lp2857
ssVtarget[1].targetRotatePivot.targetRotatePivotY
p2858
(dp2859
g16
I00
sg17
I00
sg18
Vtg[1].trpy
p2860
sg10
I00
sg11
(lp2861
ssg428
(dp2862
g16
I00
sg404
I00
sg18
Vtg[2].trp
p2863
sg10
I00
sg11
(lp2864
Vtarget[2].targetRotatePivot.targetRotatePivotX
p2865
ag1411
ag1421
assg1790
(dp2866
g62
I00
sg404
I00
sg67
I00
sg68
(lp2867
g1003
ag1006
ag990
assVmaxScaleLimitEnable
p2868
(dp2869
g62
I00
sg63
VTdataCompound
p2870
sg65
I00
sg67
I00
sg68
(lp2871
g2459
ag323
aVmaxScaleLimitEnable.maxScaleZLimitEnable
p2872
assVscale.scaleX
p2873
(dp2874
S'isArray'
p2875
I00
sS'attrParentLongName'
p2876
Vscale
p2877
sS'attrChildrenNames'
p2878
(lp2879
sg4
Vdouble
p2880
sS'isMulti'
p2881
I00
sS'isCompound'
p2882
I00
sg10
I01
sg11
(lp2883
sS'isElement'
p2884
I00
ssVboundingBox
p2885
(dp2886
S'isArray'
p2887
I00
sg4
VTdataCompound
p2888
sS'attrChildrenNames'
p2889
(lp2890
VboundingBox.boundingBoxMin
p2891
aVboundingBox.boundingBoxMax
p2892
aVboundingBox.boundingBoxSize
p2893
asS'isMulti'
p2894
I00
sS'isCompound'
p2895
I01
sg10
I00
sg11
(lp2896
VboundingBox.boundingBoxMin
p2897
aVboundingBox.boundingBoxMax
p2898
aVboundingBox.boundingBoxSize
p2899
asS'isElement'
p2900
I00
ssVboundingBox.boundingBoxMin
p2901
(dp2902
S'isArray'
p2903
I00
sS'attrParentLongName'
p2904
VboundingBox
p2905
sS'attrChildrenNames'
p2906
(lp2907
VboundingBox.boundingBoxMin.boundingBoxMinX
p2908
aVboundingBox.boundingBoxMin.boundingBoxMinY
p2909
aVboundingBox.boundingBoxMin.boundingBoxMinZ
p2910
asg4
Vdouble3
p2911
sS'isMulti'
p2912
I00
sS'isCompound'
p2913
I01
sg10
I01
sg11
(lp2914
VboundingBox.boundingBoxMin.boundingBoxMinX
p2915
aVboundingBox.boundingBoxMin.boundingBoxMinY
p2916
aVboundingBox.boundingBoxMin.boundingBoxMinZ
p2917
asS'isElement'
p2918
I00
ssg1152
(dp2919
g62
I00
sg404
I00
sg67
I00
sg68
(lp2920
ssVtarget[0].targetRotateOrder
p2921
(dp2922
S'isArray'
p2923
I00
sS'attrParentLongName'
p2924
Vtarget[0]
p2925
sS'attrChildrenNames'
p2926
(lp2927
sg4
Venum
p2928
sS'isMulti'
p2929
I00
sS'isCompound'
p2930
I00
sg10
I01
sg18
Vtg[0].tro
p2931
sg11
(lp2932
sS'isElement'
p2933
I00
ssVspecifiedManipLocation
p2934
(dp2935
S'isArray'
p2936
I00
sg4
NsS'attrChildrenNames'
p2937
(lp2938
sS'isMulti'
p2939
I00
sS'isCompound'
p2940
I00
sg10
I00
sg11
(lp2941
sS'isElement'
p2942
I00
ssVtarget[1].targetRotateTranslate.targetRotateTranslateZ
p2943
(dp2944
g16
I00
sg17
I00
sg18
Vtg[1].trtz
p2945
sg10
I00
sg11
(lp2946
ssVtarget[1].targetRotateTranslate.targetRotateTranslateX
p2947
(dp2948
g16
I00
sg17
I00
sg18
Vtg[1].trtx
p2949
sg10
I00
sg11
(lp2950
ssVinstObjGroups[0].objectGroups
p2951
(dp2952
S'isArray'
p2953
I01
sS'isElement'
p2954
I00
sS'attrParentLongName'
p2955
VinstObjGroups[0]
p2956
sg10
I00
ssg1792
(dp2957
g62
I00
sg404
I00
sg67
I00
sg68
(lp2958
Vtarget[3].targetJointOrient.targetJointOrientX
p2959
aVtarget[3].targetJointOrient.targetJointOrientY
p2960
aVtarget[3].targetJointOrient.targetJointOrientZ
p2961
assVminScaleLimit
p2962
(dp2963
g62
I00
sg63
Vdouble3
p2964
sg65
I00
sg66
I01
sg67
I01
sg68
(lp2965
g237
ag666
ag1520
assg1304
(dp2966
g88
I00
sg89
(lp2967
ssg1305
(dp2968
g88
I00
sg89
(lp2969
ssg1306
(dp2970
g88
I00
sg89
(lp2971
ssVlodVisibility
p2972
(dp2973
S'isArray'
p2974
I00
sg4
Vbool
p2975
sS'attrChildrenNames'
p2976
(lp2977
sS'isMulti'
p2978
I00
sS'isCompound'
p2979
I00
sg10
I01
sg11
(lp2980
sS'isElement'
p2981
I00
ssVtarget[5].targetOffsetRotate.targetOffsetRotateZ
p2982
(dp2983
g88
I00
sg89
(lp2984
ssVtarget[5].targetOffsetRotate.targetOffsetRotateX
p2985
(dp2986
g88
I00
sg89
(lp2987
ssVtarget[5].targetOffsetRotate.targetOffsetRotateY
p2988
(dp2989
g88
I00
sg89
(lp2990
ssVtarget[1].targetTranslate.targetTranslateY
p2991
(dp2992
g16
I00
sg17
I00
sg18
Vtg[1].tty
p2993
sg10
I00
sg11
(lp2994
ssVtarget[5].targetJointOrient.targetJointOrientZ
p2995
(dp2996
g88
I00
sg89
(lp2997
ssVtarget[5].targetJointOrient.targetJointOrientX
p2998
(dp2999
g88
I00
sg89
(lp3000
ssVtarget[5].targetJointOrient.targetJointOrientY
p3001
(dp3002
g88
I00
sg89
(lp3003
ssVinstObjGroups[0].objectGroups[1].objectGrpCompList
p3004
(dp3005
g16
I00
sg10
I00
sg11
(lp3006
ssVdrawOverride.overridePlayback
p3007
(dp3008
S'isArray'
p3009
I00
sS'attrParentLongName'
p3010
VdrawOverride
p3011
sS'attrChildrenNames'
p3012
(lp3013
sg4
Vbool
p3014
sS'isMulti'
p3015
I00
sS'isCompound'
p3016
I00
sg10
I01
sg11
(lp3017
sS'isElement'
p3018
I00
ssVcenter
p3019
(dp3020
S'isArray'
p3021
I00
sg4
Vdouble3
p3022
sS'attrChildrenNames'
p3023
(lp3024
Vcenter.boundingBoxCenterX
p3025
aVcenter.boundingBoxCenterY
p3026
aVcenter.boundingBoxCenterZ
p3027
asS'isMulti'
p3028
I00
sS'isCompound'
p3029
I01
sg10
I01
sg11
(lp3030
Vcenter.boundingBoxCenterX
p3031
aVcenter.boundingBoxCenterY
p3032
aVcenter.boundingBoxCenterZ
p3033
asS'isElement'
p3034
I00
ssVdrawOverride.overrideShading
p3035
(dp3036
S'isArray'
p3037
I00
sS'attrParentLongName'
p3038
VdrawOverride
p3039
sS'attrChildrenNames'
p3040
(lp3041
sg4
Vbool
p3042
sS'isMulti'
p3043
I00
sS'isCompound'
p3044
I00
sg10
I01
sg11
(lp3045
sS'isElement'
p3046
I00
ssVrenderLayerInfo.renderLayerColor
p3047
(dp3048
g72
VrenderLayerInfo
p3049
ssVtarget[4].targetOffsetRotate
p3050
(dp3051
g88
I00
sg89
(lp3052
g1896
ag1893
ag1890
assVtarget[1].targetOffsetTranslate
p3053
(dp3054
g16
I00
sg17
I00
sg18
Vtg[1].tot
p3055
sg10
I00
sg11
(lp3056
Vtarget[1].targetOffsetTranslate.targetOffsetTranslateX
p3057
aVtarget[1].targetOffsetTranslate.targetOffsetTranslateY
p3058
aVtarget[1].targetOffsetTranslate.targetOffsetTranslateZ
p3059
assVinstObjGroups[0].objectGroups[1].objectGrpColor
p3060
(dp3061
g16
I00
sg10
I00
sg11
(lp3062
ssVtarget[0].targetOffsetRotate
p3063
(dp3064
S'isArray'
p3065
I00
sS'attrParentLongName'
p3066
Vtarget[0]
p3067
sS'attrChildrenNames'
p3068
(lp3069
Vtarget[0].targetOffsetRotate.targetOffsetRotateX
p3070
aVtarget[0].targetOffsetRotate.targetOffsetRotateY
p3071
aVtarget[0].targetOffsetRotate.targetOffsetRotateZ
p3072
asg4
Vdouble3
p3073
sS'isMulti'
p3074
I00
sS'isCompound'
p3075
I01
sg10
I01
sg18
Vtg[0].tor
p3076
sg11
(lp3077
Vtarget[0].targetOffsetRotate.targetOffsetRotateX
p3078
aVtarget[0].targetOffsetRotate.targetOffsetRotateY
p3079
aVtarget[0].targetOffsetRotate.targetOffsetRotateZ
p3080
asS'isElement'
p3081
I00
ssVviewMode
p3082
(dp3083
S'isArray'
p3084
I00
sg4
Venum
p3085
sS'attrChildrenNames'
p3086
(lp3087
sS'isMulti'
p3088
I00
sS'isCompound'
p3089
I00
sg10
I01
sg11
(lp3090
sS'isElement'
p3091
I00
ssVrotatePivotTranslate
p3092
(dp3093
S'isArray'
p3094
I00
sg4
Vdouble3
p3095
sS'attrChildrenNames'
p3096
(lp3097
VrotatePivotTranslate.rotatePivotTranslateX
p3098
aVrotatePivotTranslate.rotatePivotTranslateY
p3099
aVrotatePivotTranslate.rotatePivotTranslateZ
p3100
asS'isMulti'
p3101
I00
sS'isCompound'
p3102
I01
sg10
I01
sg11
(lp3103
VrotatePivotTranslate.rotatePivotTranslateX
p3104
aVrotatePivotTranslate.rotatePivotTranslateY
p3105
aVrotatePivotTranslate.rotatePivotTranslateZ
p3106
asS'isElement'
p3107
I00
ssVintermediateObject
p3108
(dp3109
S'isArray'
p3110
I00
sg4
Vbool
p3111
sS'attrChildrenNames'
p3112
(lp3113
sS'isMulti'
p3114
I00
sS'isCompound'
p3115
I00
sg10
I01
sg11
(lp3116
sS'isElement'
p3117
I00
ssg1117
(dp3118
g88
I00
sg89
(lp3119
ssg1115
(dp3120
g88
I00
sg89
(lp3121
ssg1116
(dp3122
g88
I00
sg89
(lp3123
ssVtarget[5].targetParentMatrix
p3124
(dp3125
g88
I00
sg89
(lp3126
ssg1627
(dp3127
g62
I00
sg63
Vbool
p3128
sg65
I00
sg66
I00
sg67
I01
sg68
(lp3129
ssVtarget[1].targetWeight
p3130
(dp3131
g16
I00
sg17
I00
sg18
Vtg[1].tw
p3132
sg10
I00
sg11
(lp3133
ssg1570
(dp3134
g62
I00
sg63
VdoubleAngle
p3135
sg65
I00
sg66
I00
sg67
I01
sg68
(lp3136
ssg1493
(dp3137
g62
I00
sg404
I00
sg67
I00
sg68
(lp3138
ssg1494
(dp3139
g62
I00
sg404
I00
sg67
I00
sg68
(lp3140
ssg1495
(dp3141
g62
I00
sg404
I00
sg67
I00
sg68
(lp3142
ssVtarget.targetRotateCached
p3143
(dp3144
g72
Vtarget
p3145
ssg1626
(dp3146
g62
I00
sg63
Vbool
p3147
sg65
I00
sg66
I00
sg67
I01
sg68
(lp3148
ssg2959
(dp3149
g62
I00
sg404
I00
sg67
I00
sg68
(lp3150
ssg2960
(dp3151
g62
I00
sg404
I00
sg67
I00
sg68
(lp3152
ssg2961
(dp3153
g62
I00
sg404
I00
sg67
I00
sg68
(lp3154
ssg1787
(dp3155
g62
I00
sg404
I00
sg67
I00
sg68
(lp3156
ssg2639
(dp3157
g62
I00
sg63
Vbool
p3158
sg65
I00
sg66
I00
sg67
I01
sg68
(lp3159
ssVworldInverseMatrix[1]
p3160
(dp3161
g16
I00
sg10
I00
sg11
(lp3162
ssVrotatePivotTranslate.rotatePivotTranslateZ
p3163
(dp3164
S'isArray'
p3165
I00
sS'attrParentLongName'
p3166
VrotatePivotTranslate
p3167
sS'attrChildrenNames'
p3168
(lp3169
sg4
VdoubleLinear
p3170
sS'isMulti'
p3171
I00
sS'isCompound'
p3172
I00
sg10
I01
sg11
(lp3173
sS'isElement'
p3174
I00
ssVrotatePivotTranslate.rotatePivotTranslateX
p3175
(dp3176
S'isArray'
p3177
I00
sS'attrParentLongName'
p3178
VrotatePivotTranslate
p3179
sS'attrChildrenNames'
p3180
(lp3181
sg4
VdoubleLinear
p3182
sS'isMulti'
p3183
I00
sS'isCompound'
p3184
I00
sg10
I01
sg11
(lp3185
sS'isElement'
p3186
I00
ssVrotatePivotTranslate.rotatePivotTranslateY
p3187
(dp3188
S'isArray'
p3189
I00
sS'attrParentLongName'
p3190
VrotatePivotTranslate
p3191
sS'attrChildrenNames'
p3192
(lp3193
sg4
VdoubleLinear
p3194
sS'isMulti'
p3195
I00
sS'isCompound'
p3196
I00
sg10
I01
sg11
(lp3197
sS'isElement'
p3198
I00
ssVrotate
p3199
(dp3200
S'isArray'
p3201
I00
sg4
Vdouble3
p3202
sS'attrChildrenNames'
p3203
(lp3204
Vrotate.rotateX
p3205
aVrotate.rotateY
p3206
aVrotate.rotateZ
p3207
asS'isMulti'
p3208
I00
sS'isCompound'
p3209
I01
sg10
I01
sg11
(lp3210
Vrotate.rotateX
p3211
aVrotate.rotateY
p3212
aVrotate.rotateZ
p3213
asS'isElement'
p3214
I00
ssVtarget.targetTranslate
p3215
(dp3216
g329
Vtarget
p3217
ssg1284
(dp3218
g16
I00
sg17
I00
sg18
Vtg[1].torz
p3219
sg10
I00
sg11
(lp3220
ssg1282
(dp3221
g16
I00
sg17
I00
sg18
Vtg[1].torx
p3222
sg10
I00
sg11
(lp3223
ssg1283
(dp3224
g16
I00
sg17
I00
sg18
Vtg[1].tory
p3225
sg10
I00
sg11
(lp3226
ssVparentInverseMatrix[0]
p3227
(dp3228
g16
I00
sg10
I00
sg11
(lp3229
ssVrenderLayerInfo[1].renderLayerId
p3230
(dp3231
g16
I00
sg10
I00
sg11
(lp3232
ssVobjectColor
p3233
(dp3234
S'isArray'
p3235
I00
sg4
Vshort
p3236
sS'attrChildrenNames'
p3237
(lp3238
sS'isMulti'
p3239
I00
sS'isCompound'
p3240
I00
sg10
I01
sg11
(lp3241
sS'isElement'
p3242
I00
ssg1789
(dp3243
g62
I00
sg404
I00
sg67
I00
sg68
(lp3244
Vtarget[3].targetOffsetTranslate.targetOffsetTranslateX
p3245
aVtarget[3].targetOffsetTranslate.targetOffsetTranslateY
p3246
aVtarget[3].targetOffsetTranslate.targetOffsetTranslateZ
p3247
assVmentalRayControls.miGeoShader
p3248
(dp3249
S'isArray'
p3250
I00
sS'attrParentLongName'
p3251
VmentalRayControls
p3252
sS'attrChildrenNames'
p3253
(lp3254
sg4
NsS'isMulti'
p3255
I00
sS'isCompound'
p3256
I00
sg10
I00
sg11
(lp3257
sS'isElement'
p3258
I00
ssVconstraintRotateOrder
p3259
(dp3260
S'isArray'
p3261
I00
sg4
Venum
p3262
sS'attrChildrenNames'
p3263
(lp3264
sS'isMulti'
p3265
I00
sS'isCompound'
p3266
I00
sg10
I01
sg18
Vcro
p3267
sg11
(lp3268
sS'isElement'
p3269
I00
ssg2391
(dp3270
g62
I00
sg404
I00
sg67
I00
sg68
(lp3271
ssg2392
(dp3272
g62
I00
sg404
I00
sg67
I00
sg68
(lp3273
ssVtarget[5].targetRotateCached
p3274
(dp3275
g88
I00
sg89
(lp3276
g1246
ag1249
ag1252
assVtarget[2].targetOffsetTranslate.targetOffsetTranslateY
p3277
(dp3278
g16
I00
sg404
I00
sg18
Vtg[2].toty
p3279
sg10
I00
sg11
(lp3280
ssVtarget[2].targetOffsetTranslate.targetOffsetTranslateX
p3281
(dp3282
g16
I00
sg404
I00
sg18
Vtg[2].totx
p3283
sg10
I00
sg11
(lp3284
ssVtarget[2].targetOffsetTranslate.targetOffsetTranslateZ
p3285
(dp3286
g16
I00
sg404
I00
sg18
Vtg[2].totz
p3287
sg10
I00
sg11
(lp3288
ssVpublishedNodeInfo[0]
p3289
(dp3290
g16
I00
sg10
I00
sg11
(lp3291
VpublishedNodeInfo[0].publishedNode
p3292
aVpublishedNodeInfo[0].isHierarchicalNode
p3293
aVpublishedNodeInfo[0].publishedNodeType
p3294
assVtarget[1].targetRotateTranslate
p3295
(dp3296
g16
I00
sg17
I00
sg18
Vtg[1].trt
p3297
sg10
I00
sg11
(lp3298
g2947
ag722
ag2943
assVtarget[0].targetWeight
p3299
(dp3300
S'isArray'
p3301
I00
sS'attrParentLongName'
p3302
Vtarget[0]
p3303
sS'attrChildrenNames'
p3304
(lp3305
sg4
Vdouble
p3306
sS'isMulti'
p3307
I00
sS'isCompound'
p3308
I00
sg10
I01
sg18
Vtg[0].tw
p3309
sg11
(lp3310
sS'isElement'
p3311
I00
ssVpublishedNodeInfo[0].publishedNode
p3312
(dp3313
S'isArray'
p3314
I00
sS'attrParentLongName'
p3315
VpublishedNodeInfo[0]
p3316
sS'attrChildrenNames'
p3317
(lp3318
sg10
I00
sg11
(lp3319
sS'isElement'
p3320
I00
ssg2567
(dp3321
g16
I00
sg10
I00
sg11
(lp3322
ssVscale
p3323
(dp3324
S'isArray'
p3325
I00
sg4
Vdouble3
p3326
sS'attrChildrenNames'
p3327
(lp3328
Vscale.scaleX
p3329
aVscale.scaleY
p3330
aVscale.scaleZ
p3331
asS'isMulti'
p3332
I00
sS'isCompound'
p3333
I01
sg10
I01
sg11
(lp3334
Vscale.scaleX
p3335
aVscale.scaleY
p3336
aVscale.scaleZ
p3337
asS'isElement'
p3338
I00
ssg429
(dp3339
g16
I00
sg404
I00
sg18
Vtg[2].trt
p3340
sg10
I00
sg11
(lp3341
g1672
ag1668
ag1676
assVtarget.targetRotateZ
p3342
(dp3343
g72
Vtarget.targetRotate
p3344
ssVtarget.targetRotateY
p3345
(dp3346
g72
Vtarget.targetRotate
p3347
ssVtarget.targetRotateX
p3348
(dp3349
g72
Vtarget.targetRotate
p3350
ssVviewName
p3351
(dp3352
S'isArray'
p3353
I00
sg4
Vstring
p3354
sS'attrChildrenNames'
p3355
(lp3356
sS'isMulti'
p3357
I00
sS'isCompound'
p3358
I00
sg10
I01
sg11
(lp3359
sS'isElement'
p3360
I00
ssVtarget[1].targetTranslate
p3361
(dp3362
g16
I00
sg17
I00
sg18
Vtg[1].tt
p3363
sg10
I00
sg11
(lp3364
g1333
ag2991
ag1048
assVinstObjGroups[0].objectGroups[1]
p3365
(dp3366
g16
I00
sg10
I00
sg11
(lp3367
g3004
aVinstObjGroups[0].objectGroups[1].objectGroupId
p3368
ag3060
assg272
(dp3369
g62
I00
sg63
VdoubleLinear
p3370
sg65
I00
sg66
I00
sg67
I01
sg68
(lp3371
ssViconName
p3372
(dp3373
S'isArray'
p3374
I00
sg4
Vstring
p3375
sS'attrChildrenNames'
p3376
(lp3377
sS'isMulti'
p3378
I00
sS'isCompound'
p3379
I00
sg10
I01
sg11
(lp3380
sS'isElement'
p3381
I00
ssg3245
(dp3382
g62
I00
sg404
I00
sg67
I00
sg68
(lp3383
ssg3246
(dp3384
g62
I00
sg404
I00
sg67
I00
sg68
(lp3385
ssg3247
(dp3386
g62
I00
sg404
I00
sg67
I00
sg68
(lp3387
ssg2872
(dp3388
g62
I00
sg63
Vbool
p3389
sg65
I00
sg66
I00
sg67
I01
sg68
(lp3390
ssg1238
(dp3391
g16
I00
sg404
I00
sg18
Vtg[2].tory
p3392
sg10
I00
sg11
(lp3393
ssg1237
(dp3394
g16
I00
sg404
I00
sg18
Vtg[2].torx
p3395
sg10
I00
sg11
(lp3396
ssg1239
(dp3397
g16
I00
sg404
I00
sg18
Vtg[2].torz
p3398
sg10
I00
sg11
(lp3399
ssVtarget[5]
p3400
(dp3401
g88
I00
sg89
(lp3402
g3124
ag1743
ag3274
aVtarget[5].targetTranslate
p3403
ag858
ag2640
ag1112
ag1301
ag399
aVtarget[5].targetJointOrient
p3404
aVtarget[5].targetOffsetRotate
p3405
ag1650
assVtarget.targetJointOrientY
p3406
(dp3407
g72
Vtarget.targetJointOrient
p3408
ssVtarget[0].targetRotatePivot
p3409
(dp3410
S'isArray'
p3411
I00
sS'attrParentLongName'
p3412
Vtarget[0]
p3413
sS'attrChildrenNames'
p3414
(lp3415
Vtarget[0].targetRotatePivot.targetRotatePivotX
p3416
aVtarget[0].targetRotatePivot.targetRotatePivotY
p3417
aVtarget[0].targetRotatePivot.targetRotatePivotZ
p3418
asg4
Vdouble3
p3419
sS'isMulti'
p3420
I00
sS'isCompound'
p3421
I01
sg10
I01
sg18
Vtg[0].trp
p3422
sg11
(lp3423
Vtarget[0].targetRotatePivot.targetRotatePivotX
p3424
aVtarget[0].targetRotatePivot.targetRotatePivotY
p3425
aVtarget[0].targetRotatePivot.targetRotatePivotZ
p3426
asS'isElement'
p3427
I00
ssVinstObjGroups
p3428
(dp3429
S'isArray'
p3430
I01
sS'isElement'
p3431
I00
sS'isMulti'
p3432
I01
sg10
I00
sg4
VTdataCompound
p3433
ssVtarget[0].targetOffsetTranslate.targetOffsetTranslateY
p3434
(dp3435
S'isArray'
p3436
I00
sS'attrParentLongName'
p3437
Vtarget[0].targetOffsetTranslate
p3438
sS'attrChildrenNames'
p3439
(lp3440
sg4
VdoubleLinear
p3441
sS'isMulti'
p3442
I00
sS'isCompound'
p3443
I00
sg10
I01
sg18
Vtg[0].toty
p3444
sg11
(lp3445
sS'isElement'
p3446
I00
ssVworldMatrix[0]
p3447
(dp3448
g16
I00
sg10
I00
sg11
(lp3449
ssVdrawOverride.overrideVisibility
p3450
(dp3451
S'isArray'
p3452
I00
sS'attrParentLongName'
p3453
VdrawOverride
p3454
sS'attrChildrenNames'
p3455
(lp3456
sg4
Vbool
p3457
sS'isMulti'
p3458
I00
sS'isCompound'
p3459
I00
sg10
I01
sg11
(lp3460
sS'isElement'
p3461
I00
ssVtarget[4].targetRotate.targetRotateY
p3462
(dp3463
g88
I00
sg89
(lp3464
ssVtarget[4].targetRotate.targetRotateX
p3465
(dp3466
g88
I00
sg89
(lp3467
ssVtarget[4].targetRotate.targetRotateZ
p3468
(dp3469
g88
I00
sg89
(lp3470
ssVdisplayLocalAxis
p3471
(dp3472
S'isArray'
p3473
I00
sg4
Vbool
p3474
sS'attrChildrenNames'
p3475
(lp3476
sS'isMulti'
p3477
I00
sS'isCompound'
p3478
I00
sg10
I01
sg11
(lp3479
sS'isElement'
p3480
I00
ssg2566
(dp3481
g16
I00
sg10
I00
sg11
(lp3482
ssg2393
(dp3483
g62
I00
sg404
I00
sg67
I00
sg68
(lp3484
ssVtarget.targetRotate
p3485
(dp3486
g329
Vtarget
p3487
ssg430
(dp3488
g16
I00
sg404
I00
sg18
Vtg[2].tot
p3489
sg10
I00
sg11
(lp3490
g3281
ag3277
ag3285
assVtarget[4].targetRotate
p3491
(dp3492
g88
I00
sg89
(lp3493
g3465
ag3462
ag3468
assVtranslate
p3494
(dp3495
S'isArray'
p3496
I00
sg4
Vdouble3
p3497
sS'attrChildrenNames'
p3498
(lp3499
Vtranslate.translateX
p3500
aVtranslate.translateY
p3501
aVtranslate.translateZ
p3502
asS'isMulti'
p3503
I00
sS'isCompound'
p3504
I01
sg10
I01
sg11
(lp3505
Vtranslate.translateX
p3506
aVtranslate.translateY
p3507
aVtranslate.translateZ
p3508
asS'isElement'
p3509
I00
ssg1501
(dp3510
g62
I00
sg404
I00
sg67
I00
sg68
(lp3511
ssg1502
(dp3512
g62
I00
sg404
I00
sg67
I00
sg68
(lp3513
ssg1503
(dp3514
g62
I00
sg404
I00
sg67
I00
sg68
(lp3515
ssVtarget[0].targetRotateTranslate.targetRotateTranslateX
p3516
(dp3517
S'isArray'
p3518
I00
sS'attrParentLongName'
p3519
Vtarget[0].targetRotateTranslate
p3520
sS'attrChildrenNames'
p3521
(lp3522
sg4
VdoubleLinear
p3523
sS'isMulti'
p3524
I00
sS'isCompound'
p3525
I00
sg10
I01
sg18
Vtg[0].trtx
p3526
sg11
(lp3527
sS'isElement'
p3528
I00
ssVtarget[4]
p3529
(dp3530
g88
I00
sg89
(lp3531
g1656
ag1915
ag1172
ag1599
ag1596
ag1313
ag253
ag3491
aVtarget[4].targetRotateOrder
p3532
ag882
ag3050
ag571
assVtarget[1]
p3533
(dp3534
g16
I00
sg17
I00
sg18
Vtg[1]
p3535
sg10
I00
sg11
(lp3536
g14
ag3130
ag1545
ag3361
aVtarget[1].targetRotatePivot
p3537
ag3295
ag3053
ag1841
ag1099
ag1255
ag1278
ag1329
assg1318
(dp3538
g88
I00
sg89
(lp3539
ssg1317
(dp3540
g88
I00
sg89
(lp3541
ssg1316
(dp3542
g88
I00
sg89
(lp3543
ssVtarget.targetRotatePivotX
p3544
(dp3545
g72
Vtarget.targetRotatePivot
p3546
ssVtarget.targetRotatePivotY
p3547
(dp3548
g72
Vtarget.targetRotatePivot
p3549
ssVtarget.targetRotatePivotZ
p3550
(dp3551
g72
Vtarget.targetRotatePivot
p3552
ssg1788
(dp3553
g62
I00
sg404
I00
sg67
I00
sg68
(lp3554
g1103
ag1106
ag1109
assVtarget[0].targetRotatePivot.targetRotatePivotX
p3555
(dp3556
S'isArray'
p3557
I00
sS'attrParentLongName'
p3558
Vtarget[0].targetRotatePivot
p3559
sS'attrChildrenNames'
p3560
(lp3561
sg4
VdoubleLinear
p3562
sS'isMulti'
p3563
I00
sS'isCompound'
p3564
I00
sg10
I01
sg18
Vtg[0].trpx
p3565
sg11
(lp3566
sS'isElement'
p3567
I00
ssg1786
(dp3568
g62
I00
sg404
I00
sg67
I00
sg68
(lp3569
ssg3368
(dp3570
g16
I00
sg10
I00
sg11
(lp3571
ssg1534
(dp3572
g16
I00
sg404
I00
sg18
Vtg[2].tjoy
p3573
sg10
I00
sg11
(lp3574
ssVconstraintJointOrient
p3575
(dp3576
S'isArray'
p3577
I00
sg4
Vdouble3
p3578
sS'attrChildrenNames'
p3579
(lp3580
VconstraintJointOrient.constraintJointOrientX
p3581
aVconstraintJointOrient.constraintJointOrientY
p3582
aVconstraintJointOrient.constraintJointOrientZ
p3583
asS'isMulti'
p3584
I00
sS'isCompound'
p3585
I01
sg10
I01
sg18
Vcjo
p3586
sg11
(lp3587
VconstraintJointOrient.constraintJointOrientX
p3588
aVconstraintJointOrient.constraintJointOrientY
p3589
aVconstraintJointOrient.constraintJointOrientZ
p3590
asS'isElement'
p3591
I00
ssg1533
(dp3592
g16
I00
sg404
I00
sg18
Vtg[2].tjox
p3593
sg10
I00
sg11
(lp3594
ssg273
(dp3595
g62
I00
sg63
VdoubleLinear
p3596
sg65
I00
sg66
I00
sg67
I01
sg68
(lp3597
ssg279
(dp3598
g62
I00
sg63
VdoubleAngle
p3599
sg65
I00
sg66
I00
sg67
I01
sg68
(lp3600
ssg3537
(dp3601
g16
I00
sg17
I00
sg18
Vtg[1].trp
p3602
sg10
I00
sg11
(lp3603
g2854
ag2858
ag2850
assVconstraintRotatePivot.constraintRotatePivotZ
p3604
(dp3605
S'isArray'
p3606
I00
sS'attrParentLongName'
p3607
VconstraintRotatePivot
p3608
sS'attrChildrenNames'
p3609
(lp3610
sg4
VdoubleLinear
p3611
sS'isMulti'
p3612
I00
sS'isCompound'
p3613
I00
sg10
I01
sg18
Vcrpz
p3614
sg11
(lp3615
sS'isElement'
p3616
I00
ssVconstraintRotatePivot.constraintRotatePivotX
p3617
(dp3618
S'isArray'
p3619
I00
sS'attrParentLongName'
p3620
VconstraintRotatePivot
p3621
sS'attrChildrenNames'
p3622
(lp3623
sg4
VdoubleLinear
p3624
sS'isMulti'
p3625
I00
sS'isCompound'
p3626
I00
sg10
I01
sg18
Vcrpx
p3627
sg11
(lp3628
sS'isElement'
p3629
I00
ssVconstraintRotatePivot.constraintRotatePivotY
p3630
(dp3631
S'isArray'
p3632
I00
sS'attrParentLongName'
p3633
VconstraintRotatePivot
p3634
sS'attrChildrenNames'
p3635
(lp3636
sg4
VdoubleLinear
p3637
sS'isMulti'
p3638
I00
sS'isCompound'
p3639
I00
sg10
I01
sg18
Vcrpy
p3640
sg11
(lp3641
sS'isElement'
p3642
I00
ssVtarget[0].targetOffsetTranslate
p3643
(dp3644
S'isArray'
p3645
I00
sS'attrParentLongName'
p3646
Vtarget[0]
p3647
sS'attrChildrenNames'
p3648
(lp3649
Vtarget[0].targetOffsetTranslate.targetOffsetTranslateX
p3650
aVtarget[0].targetOffsetTranslate.targetOffsetTranslateY
p3651
aVtarget[0].targetOffsetTranslate.targetOffsetTranslateZ
p3652
asg4
Vdouble3
p3653
sS'isMulti'
p3654
I00
sS'isCompound'
p3655
I01
sg10
I01
sg18
Vtg[0].tot
p3656
sg11
(lp3657
Vtarget[0].targetOffsetTranslate.targetOffsetTranslateX
p3658
aVtarget[0].targetOffsetTranslate.targetOffsetTranslateY
p3659
aVtarget[0].targetOffsetTranslate.targetOffsetTranslateZ
p3660
asS'isElement'
p3661
I00
ssVrestRotate.restRotateZ
p3662
(dp3663
S'isArray'
p3664
I00
sS'attrParentLongName'
p3665
VrestRotate
p3666
sS'attrChildrenNames'
p3667
(lp3668
sg4
VdoubleAngle
p3669
sS'isMulti'
p3670
I00
sS'isCompound'
p3671
I00
sg10
I01
sg18
Vrrz
p3672
sg11
(lp3673
sS'isElement'
p3674
I00
ssVrestRotate.restRotateX
p3675
(dp3676
S'isArray'
p3677
I00
sS'attrParentLongName'
p3678
VrestRotate
p3679
sS'attrChildrenNames'
p3680
(lp3681
sg4
VdoubleAngle
p3682
sS'isMulti'
p3683
I00
sS'isCompound'
p3684
I00
sg10
I01
sg18
Vrrx
p3685
sg11
(lp3686
sS'isElement'
p3687
I00
ssVrestRotate.restRotateY
p3688
(dp3689
S'isArray'
p3690
I00
sS'attrParentLongName'
p3691
VrestRotate
p3692
sS'attrChildrenNames'
p3693
(lp3694
sg4
VdoubleAngle
p3695
sS'isMulti'
p3696
I00
sS'isCompound'
p3697
I00
sg10
I01
sg18
Vrry
p3698
sg11
(lp3699
sS'isElement'
p3700
I00
ssg2865
(dp3701
g16
I00
sg404
I00
sg18
Vtg[2].trpx
p3702
sg10
I00
sg11
(lp3703
ssVconstraintJointOrient.constraintJointOrientZ
p3704
(dp3705
S'isArray'
p3706
I00
sS'attrParentLongName'
p3707
VconstraintJointOrient
p3708
sS'attrChildrenNames'
p3709
(lp3710
sg4
VdoubleAngle
p3711
sS'isMulti'
p3712
I00
sS'isCompound'
p3713
I00
sg10
I01
sg18
Vcjoz
p3714
sg11
(lp3715
sS'isElement'
p3716
I00
ssVconstraintJointOrient.constraintJointOrientX
p3717
(dp3718
S'isArray'
p3719
I00
sS'attrParentLongName'
p3720
VconstraintJointOrient
p3721
sS'attrChildrenNames'
p3722
(lp3723
sg4
VdoubleAngle
p3724
sS'isMulti'
p3725
I00
sS'isCompound'
p3726
I00
sg10
I01
sg18
Vcjox
p3727
sg11
(lp3728
sS'isElement'
p3729
I00
ssVconstraintJointOrient.constraintJointOrientY
p3730
(dp3731
S'isArray'
p3732
I00
sS'attrParentLongName'
p3733
VconstraintJointOrient
p3734
sS'attrChildrenNames'
p3735
(lp3736
sg4
VdoubleAngle
p3737
sS'isMulti'
p3738
I00
sS'isCompound'
p3739
I00
sg10
I01
sg18
Vcjoy
p3740
sg11
(lp3741
sS'isElement'
p3742
I00
ssVmentalRayControls
p3743
(dp3744
S'isArray'
p3745
I00
sg4
VTdataCompound
p3746
sS'attrChildrenNames'
p3747
(lp3748
VmentalRayControls.miDeriveFromMaya
p3749
aVmentalRayControls.miHide
p3750
aVmentalRayControls.miVisible
p3751
aVmentalRayControls.miTrace
p3752
aVmentalRayControls.miShadow
p3753
aVmentalRayControls.miCaustic
p3754
aVmentalRayControls.miGlobillum
p3755
aVmentalRayControls.miExportGeoShader
p3756
aVmentalRayControls.miGeoShader
p3757
aVmentalRayControls.miProxyRenderable
p3758
asS'isMulti'
p3759
I00
sS'isCompound'
p3760
I01
sg10
I00
sg11
(lp3761
VmentalRayControls.miDeriveFromMaya
p3762
aVmentalRayControls.miHide
p3763
aVmentalRayControls.miVisible
p3764
aVmentalRayControls.miTrace
p3765
aVmentalRayControls.miShadow
p3766
aVmentalRayControls.miCaustic
p3767
aVmentalRayControls.miGlobillum
p3768
aVmentalRayControls.miExportGeoShader
p3769
aVmentalRayControls.miGeoShader
p3770
aVmentalRayControls.miProxyRenderable
p3771
asS'isElement'
p3772
I00
ssVinstObjGroups[2]
p3773
(dp3774
g672
I00
sg673
I00
sg1409
(lp3775
g670
assVworldInverseMatrix
p3776
(dp3777
S'isArray'
p3778
I01
sS'isElement'
p3779
I00
sS'isMulti'
p3780
I01
sg10
I00
sg4
Vmatrix
p3781
ssVrenderInfo.identification
p3782
(dp3783
S'isArray'
p3784
I00
sS'attrParentLongName'
p3785
VrenderInfo
p3786
sS'attrChildrenNames'
p3787
(lp3788
sg4
Vshort
p3789
sS'isMulti'
p3790
I00
sS'isCompound'
p3791
I00
sg10
I01
sg11
(lp3792
sS'isElement'
p3793
I00
ssVblackBox
p3794
(dp3795
S'isArray'
p3796
I00
sg4
Vbool
p3797
sS'attrChildrenNames'
p3798
(lp3799
sS'isMulti'
p3800
I00
sS'isCompound'
p3801
I00
sg10
I01
sg11
(lp3802
sS'isElement'
p3803
I00
ssVmentalRayControls.miShadow
p3804
(dp3805
S'isArray'
p3806
I00
sS'attrParentLongName'
p3807
VmentalRayControls
p3808
sS'attrChildrenNames'
p3809
(lp3810
sg4
Venum
p3811
sS'isMulti'
p3812
I00
sS'isCompound'
p3813
I00
sg10
I01
sg11
(lp3814
sS'isElement'
p3815
I00
ssVconstraintRotate.constraintRotateX
p3816
(dp3817
S'isArray'
p3818
I00
sS'attrParentLongName'
p3819
VconstraintRotate
p3820
sS'attrChildrenNames'
p3821
(lp3822
sg4
VdoubleAngle
p3823
sS'isMulti'
p3824
I00
sS'isCompound'
p3825
I00
sg10
I01
sg18
Vcrx
p3826
sg11
(lp3827
sS'isElement'
p3828
I00
ssVconstraintRotate.constraintRotateY
p3829
(dp3830
S'isArray'
p3831
I00
sS'attrParentLongName'
p3832
VconstraintRotate
p3833
sS'attrChildrenNames'
p3834
(lp3835
sg4
VdoubleAngle
p3836
sS'isMulti'
p3837
I00
sS'isCompound'
p3838
I00
sg10
I01
sg18
Vcry
p3839
sg11
(lp3840
sS'isElement'
p3841
I00
ssVconstraintRotate.constraintRotateZ
p3842
(dp3843
S'isArray'
p3844
I00
sS'attrParentLongName'
p3845
VconstraintRotate
p3846
sS'attrChildrenNames'
p3847
(lp3848
sg4
VdoubleAngle
p3849
sS'isMulti'
p3850
I00
sS'isCompound'
p3851
I00
sg10
I01
sg18
Vcrz
p3852
sg11
(lp3853
sS'isElement'
p3854
I00
ssVisHierarchicalConnection[0]
p3855
(dp3856
g62
I00
sg67
I00
sg68
(lp3857
ssVshowManipDefault
p3858
(dp3859
S'isArray'
p3860
I00
sg4
Venum
p3861
sS'attrChildrenNames'
p3862
(lp3863
sS'isMulti'
p3864
I00
sS'isCompound'
p3865
I00
sg10
I01
sg11
(lp3866
sS'isElement'
p3867
I00
ssg1571
(dp3868
g62
I00
sg63
VdoubleAngle
p3869
sg65
I00
sg66
I00
sg67
I01
sg68
(lp3870
ssg3059
(dp3871
g16
I00
sg17
I00
sg18
Vtg[1].totz
p3872
sg10
I00
sg11
(lp3873
ssg1058
(dp3874
g62
I00
sg63
Vbool
p3875
sg65
I00
sg66
I00
sg67
I01
sg68
(lp3876
ssg3057
(dp3877
g16
I00
sg17
I00
sg18
Vtg[1].totx
p3878
sg10
I00
sg11
(lp3879
ssg3058
(dp3880
g16
I00
sg17
I00
sg18
Vtg[1].toty
p3881
sg10
I00
sg11
(lp3882
ssVrenderLayerInfo[0].renderLayerColor
p3883
(dp3884
S'isArray'
p3885
I00
sS'attrParentLongName'
p3886
VrenderLayerInfo[0]
p3887
sS'attrChildrenNames'
p3888
(lp3889
sg10
I00
sg11
(lp3890
sS'isElement'
p3891
I00
ssVrenderLayerInfo[1]
p3892
(dp3893
g16
I00
sg10
I00
sg11
(lp3894
g3230
ag2040
ag1262
assg3532
(dp3895
g88
I00
sg89
(lp3896
ssVghostCustomSteps.ghostStepSize
p3897
(dp3898
S'isArray'
p3899
I00
sS'attrParentLongName'
p3900
VghostCustomSteps
p3901
sS'attrChildrenNames'
p3902
(lp3903
sg4
Vlong
p3904
sS'isMulti'
p3905
I00
sS'isCompound'
p3906
I00
sg10
I01
sg11
(lp3907
sS'isElement'
p3908
I00
ssg885
(dp3909
g88
I00
sg89
(lp3910
ssVrenderLayerInfo
p3911
(dp3912
S'isArray'
p3913
I01
sS'isElement'
p3914
I00
sS'isMulti'
p3915
I01
sg10
I00
sg4
VTdataCompound
p3916
ssVtarget[0].targetRotatePivot.targetRotatePivotZ
p3917
(dp3918
S'isArray'
p3919
I00
sS'attrParentLongName'
p3920
Vtarget[0].targetRotatePivot
p3921
sS'attrChildrenNames'
p3922
(lp3923
sg4
VdoubleLinear
p3924
sS'isMulti'
p3925
I00
sS'isCompound'
p3926
I00
sg10
I01
sg18
Vtg[0].trpz
p3927
sg11
(lp3928
sS'isElement'
p3929
I00
ssVtarget[0].targetRotatePivot.targetRotatePivotY
p3930
(dp3931
S'isArray'
p3932
I00
sS'attrParentLongName'
p3933
Vtarget[0].targetRotatePivot
p3934
sS'attrChildrenNames'
p3935
(lp3936
sg4
VdoubleLinear
p3937
sS'isMulti'
p3938
I00
sS'isCompound'
p3939
I00
sg10
I01
sg18
Vtg[0].trpy
p3940
sg11
(lp3941
sS'isElement'
p3942
I00
ssVtarget[0].targetParentMatrix
p3943
(dp3944
S'isArray'
p3945
I00
sS'attrParentLongName'
p3946
Vtarget[0]
p3947
sS'attrChildrenNames'
p3948
(lp3949
sg4
Vmatrix
p3950
sS'isMulti'
p3951
I00
sS'isCompound'
p3952
I00
sg10
I00
sg18
Vtg[0].tpm
p3953
sg11
(lp3954
sS'isElement'
p3955
I00
ssg3403
(dp3956
g88
I00
sg89
(lp3957
g1539
ag1542
ag1536
assg3405
(dp3958
g88
I00
sg89
(lp3959
g2985
ag2988
ag2982
assg1535
(dp3960
g16
I00
sg404
I00
sg18
Vtg[2].tjoz
p3961
sg10
I00
sg11
(lp3962
ssVmentalRayControls.miProxyRenderable
p3963
(dp3964
S'isArray'
p3965
I00
sS'attrParentLongName'
p3966
VmentalRayControls
p3967
sS'attrChildrenNames'
p3968
(lp3969
sg4
Vbool
p3970
sS'isMulti'
p3971
I00
sS'isCompound'
p3972
I00
sg10
I01
sg11
(lp3973
sS'isElement'
p3974
I00
ssg1056
(dp3975
g62
I00
sg63
Vbool
p3976
sg65
I00
sg66
I00
sg67
I01
sg68
(lp3977
ssg3404
(dp3978
g88
I00
sg89
(lp3979
g2998
ag3001
ag2995
assg1419
(dp3980
g16
I00
sg404
I00
sg18
Vtg[2].tsy
p3981
sg10
I00
sg11
(lp3982
ssg1418
(dp3983
g16
I00
sg404
I00
sg18
Vtg[2].tsx
p3984
sg10
I00
sg11
(lp3985
ssVinverseMatrix
p3986
(dp3987
S'isArray'
p3988
I00
sg4
Vmatrix
p3989
sS'attrChildrenNames'
p3990
(lp3991
sS'isMulti'
p3992
I00
sS'isCompound'
p3993
I00
sg10
I00
sg11
(lp3994
sS'isElement'
p3995
I00
ssg1420
(dp3996
g16
I00
sg404
I00
sg18
Vtg[2].tsz
p3997
sg10
I00
sg11
(lp3998
ssVcenter.boundingBoxCenterZ
p3999
(dp4000
S'isArray'
p4001
I00
sS'attrParentLongName'
p4002
Vcenter
p4003
sS'attrChildrenNames'
p4004
(lp4005
sg4
VdoubleLinear
p4006
sS'isMulti'
p4007
I00
sS'isCompound'
p4008
I00
sg10
I01
sg11
(lp4009
sS'isElement'
p4010
I00
ssVcenter.boundingBoxCenterX
p4011
(dp4012
S'isArray'
p4013
I00
sS'attrParentLongName'
p4014
Vcenter
p4015
sS'attrChildrenNames'
p4016
(lp4017
sg4
VdoubleLinear
p4018
sS'isMulti'
p4019
I00
sS'isCompound'
p4020
I00
sg10
I01
sg11
(lp4021
sS'isElement'
p4022
I00
ssVcenter.boundingBoxCenterY
p4023
(dp4024
S'isArray'
p4025
I00
sS'attrParentLongName'
p4026
Vcenter
p4027
sS'attrChildrenNames'
p4028
(lp4029
sg4
VdoubleLinear
p4030
sS'isMulti'
p4031
I00
sS'isCompound'
p4032
I00
sg10
I01
sg11
(lp4033
sS'isElement'
p4034
I00
ss.