(dp0
Vinput1D[2]
p1
(dp2
S'isArray'
p3
I00
sS'attrType'
p4
Vfloat
p5
sS'isMulti'
p6
I00
sS'isCompound'
p7
I00
sS'isSimple'
p8
I01
sS'attrChildrenLongNames'
p9
(lp10
ssVinput2D[1].input2Dx
p11
(dp12
S'isArray'
p13
I00
sS'isMulti'
p14
I00
sS'attrParentLongName'
p15
Vinput2D[1]
p16
sS'isSimple'
p17
I00
sS'attrChildrenLongNames'
p18
(lp19
ssVinput2D[0].input2Dy
p20
(dp21
S'isArray'
p22
I00
sS'attrParentLongName'
p23
Vinput2D[0]
p24
sS'attrChildrenNames'
p25
(lp26
sg14
I00
sg17
I00
sg18
(lp27
sS'isElement'
p28
I00
ssVinput2D[0].input2Dx
p29
(dp30
S'isArray'
p31
I00
sS'attrParentLongName'
p32
Vinput2D[0]
p33
sS'attrChildrenNames'
p34
(lp35
sg14
I00
sg17
I00
sg18
(lp36
sS'isElement'
p37
I00
ssVinput3D[2]
p38
(dp39
S'isArray'
p40
I00
sS'isMulti'
p41
I00
sg17
I00
sS'attrChildrenLongNames'
p42
(lp43
Vinput3D[2].input3Dx
p44
aVinput3D[2].input3Dy
p45
aVinput3D[2].input3Dz
p46
assVinput1D
p47
(dp48
S'isArray'
p49
I01
sS'isElement'
p50
I00
sS'attrType'
p51
VTdataCompound
p52
sS'isSimple'
p53
I00
sS'isMulti'
p54
I01
ssVinput1D[0]
p55
(dp56
g13
I00
sg6
I00
sS'attrParentLongName'
p57
Vinput1D
p58
sg17
I00
sg18
(lp59
ssVinput3D[3].input3Dx
p60
(dp61
S'isArray'
p62
I00
sg41
I00
sg17
I00
sS'attrChildrenLongNames'
p63
(lp64
ssVinput3D[0]
p65
(dp66
g13
I00
sS'attrParentLongName'
p67
Vinput3D
p68
sg51
Vfloat3
p69
sS'isMulti'
p70
I00
sg53
I00
sg18
(lp71
Vinput3D[0].input3Dx
p72
aVinput3D[0].input3Dy
p73
aVinput3D[0].input3Dz
p74
assVinput3D
p75
(dp76
S'isArray'
p77
I01
sS'isElement'
p78
I00
sg51
VTdataCompound
p79
sg53
I00
sS'isMulti'
p80
I01
ssVinput2D[1].input2Dy
p81
(dp82
g13
I00
sg14
I00
sg15
Vinput2D[1]
p83
sg17
I00
sg18
(lp84
ssVinput1D[4]
p85
(dp86
S'isArray'
p87
I00
sS'isSimple'
p88
I00
sS'attrChildrenLongNames'
p89
(lp90
ssVoperation
p91
(dp92
S'isArray'
p93
I00
sg51
Venum
p94
sS'attrChildrenNames'
p95
(lp96
sS'isMulti'
p97
I00
sS'isWritable'
p98
NsS'isCompound'
p99
I00
sg53
I01
sg18
(lp100
sS'isElement'
p101
I00
ssVisHistoricallyInteresting
p102
(dp103
S'isArray'
p104
I00
sS'attrType'
p105
Vbyte
p106
sS'attrChildrenNames'
p107
(lp108
sS'isMulti'
p109
I00
sS'isCompound'
p110
I00
sS'isSimple'
p111
I00
sS'attrChildrenLongNames'
p112
(lp113
sS'isElement'
p114
I00
ssVoutput2D
p115
(dp116
S'isArray'
p117
I00
sg51
Vfloat2
p118
sS'attrChildrenNames'
p119
(lp120
Voutput2D.output2Dx
p121
aVoutput2D.output2Dy
p122
asS'isMulti'
p123
I00
sS'isCompound'
p124
I01
sg53
I00
sg18
(lp125
Voutput2D.output2Dx
p126
aVoutput2D.output2Dy
p127
asS'isElement'
p128
I00
ssVinput2D.input2Dx
p129
(dp130
S'attrParentLongName'
p131
Vinput2D
p132
ssVinput2D[0]
p133
(dp134
g13
I00
sg14
I00
sg17
I00
sg18
(lp135
Vinput2D[0].input2Dx
p136
aVinput2D[0].input2Dy
p137
assVinput2D.input2Dy
p138
(dp139
g131
Vinput2D
p140
ssVinput2D[3].input2Dx
p141
(dp142
S'isArray'
p143
I00
sS'attrChildrenLongNames'
p144
(lp145
ssVinput2D[3].input2Dy
p146
(dp147
g143
I00
sg144
(lp148
ssVbinMembership
p149
(dp150
S'isArray'
p151
I00
sg105
Vstring
p152
sg14
I00
sS'isCompound'
p153
I00
sg111
I01
sg112
(lp154
ssVinput3D[4]
p155
(dp156
S'isArray'
p157
I00
sS'attrChildrenLongNames'
p158
(lp159
Vinput3D[4].input3Dx
p160
aVinput3D[4].input3Dy
p161
aVinput3D[4].input3Dz
p162
assVinput2D[1]
p163
(dp164
g13
I00
sg14
I00
sg17
I00
sg18
(lp165
g11
ag81
assVinput1D[1]
p166
(dp167
g13
I00
sg6
I00
sS'attrParentLongName'
p168
Vinput1D
p169
sg17
I00
sg18
(lp170
ssVinput2D[3]
p171
(dp172
g143
I00
sg144
(lp173
g141
ag146
assVinput1D[3]
p174
(dp175
S'isArray'
p176
I00
sg88
I00
sS'attrChildrenLongNames'
p177
(lp178
ssVnodeState
p179
(dp180
S'isArray'
p181
I00
sg105
Venum
p182
sS'attrChildrenNames'
p183
(lp184
sS'isMulti'
p185
I00
sS'isCompound'
p186
I00
sg111
I01
sg112
(lp187
sS'isElement'
p188
I00
ssVinput3D[1].input3Dz
p189
(dp190
g13
I00
sg51
Vfloat
p191
sg70
I00
sg98
NsS'isCompound'
p192
I00
sg53
I01
sg18
(lp193
ssVinput1D[5]
p194
(dp195
S'isArray'
p196
I00
sS'attrChildrenLongNames'
p197
(lp198
ssVinput3D.input3Dz
p199
(dp200
g131
Vinput3D
p201
ssVoutput3D.output3Dx
p202
(dp203
S'isArray'
p204
I00
sS'attrParentLongName'
p205
Voutput3D
p206
sS'attrChildrenNames'
p207
(lp208
sg51
Vfloat
p209
sS'isMulti'
p210
I00
sg98
NsS'isCompound'
p211
I00
sg53
I01
sg18
(lp212
sS'isElement'
p213
I00
ssVinput3D.input3Dx
p214
(dp215
g131
Vinput3D
p216
ssVinput3D.input3Dy
p217
(dp218
g131
Vinput3D
p219
ssVinput3D[1]
p220
(dp221
g13
I00
sg67
Vinput3D
p222
sg51
Vfloat3
p223
sg70
I00
sg53
I00
sg18
(lp224
Vinput3D[1].input3Dx
p225
aVinput3D[1].input3Dy
p226
ag189
assg46
(dp227
g40
I00
sg41
I00
sg17
I00
sg42
(lp228
ssVoutput3D.output3Dz
p229
(dp230
S'isArray'
p231
I00
sS'attrParentLongName'
p232
Voutput3D
p233
sS'attrChildrenNames'
p234
(lp235
sg51
Vfloat
p236
sS'isMulti'
p237
I00
sg98
NsS'isCompound'
p238
I00
sg53
I01
sg18
(lp239
sS'isElement'
p240
I00
ssVoutput3D.output3Dy
p241
(dp242
S'isArray'
p243
I00
sS'attrParentLongName'
p244
Voutput3D
p245
sS'attrChildrenNames'
p246
(lp247
sg51
Vfloat
p248
sS'isMulti'
p249
I00
sg98
NsS'isCompound'
p250
I00
sg53
I01
sg18
(lp251
sS'isElement'
p252
I00
ssVinput2D
p253
(dp254
S'isArray'
p255
I01
sS'isElement'
p256
I00
sg51
VTdataCompound
p257
sg53
I00
sS'isMulti'
p258
I01
ssg44
(dp259
g40
I00
sg41
I00
sg17
I00
sg42
(lp260
ssg45
(dp261
g40
I00
sg41
I00
sg17
I00
sg42
(lp262
ssVoutput2D.output2Dx
p263
(dp264
S'isArray'
p265
I00
sS'attrParentLongName'
p266
Voutput2D
p267
sS'attrChildrenNames'
p268
(lp269
sg51
Vfloat
p270
sS'isMulti'
p271
I00
sS'isCompound'
p272
I00
sg53
I01
sg18
(lp273
sS'isElement'
p274
I00
ssVoutput2D.output2Dy
p275
(dp276
S'isArray'
p277
I00
sS'attrParentLongName'
p278
Voutput2D
p279
sS'attrChildrenNames'
p280
(lp281
sg51
Vfloat
p282
sS'isMulti'
p283
I00
sS'isCompound'
p284
I00
sg53
I01
sg18
(lp285
sS'isElement'
p286
I00
ssVinput3D[5].input3Dx
p287
(dp288
g157
I00
sg158
(lp289
ssVinput3D[5].input3Dy
p290
(dp291
g157
I00
sg158
(lp292
ssVinput3D[5].input3Dz
p293
(dp294
g157
I00
sg158
(lp295
ssVinput3D[3].input3Dy
p296
(dp297
g62
I00
sg41
I00
sg17
I00
sg63
(lp298
ssg161
(dp299
g157
I00
sg158
(lp300
ssg160
(dp301
g157
I00
sg158
(lp302
ssg162
(dp303
g157
I00
sg158
(lp304
ssVinput2D[2].input2Dy
p305
(dp306
g143
I00
sg144
(lp307
ssVinput2D[2].input2Dx
p308
(dp309
g143
I00
sg144
(lp310
ssVoutput3D
p311
(dp312
S'isArray'
p313
I00
sg51
Vfloat3
p314
sS'attrChildrenNames'
p315
(lp316
Voutput3D.output3Dx
p317
aVoutput3D.output3Dy
p318
aVoutput3D.output3Dz
p319
asS'isMulti'
p320
I00
sS'isCompound'
p321
I01
sg53
I00
sg18
(lp322
Voutput3D.output3Dx
p323
aVoutput3D.output3Dy
p324
aVoutput3D.output3Dz
p325
asS'isElement'
p326
I00
ssVoutput1D
p327
(dp328
S'isArray'
p329
I00
sg51
Vfloat
p330
sS'attrChildrenNames'
p331
(lp332
sS'isMulti'
p333
I00
sS'isCompound'
p334
I00
sg53
I01
sg18
(lp335
sS'isElement'
p336
I00
ssVinput3D[0].input3Dy
p337
(dp338
S'isArray'
p339
I00
sS'attrParentLongName'
p340
Vinput3D[0]
p341
sS'attrChildrenNames'
p342
(lp343
sg51
Vfloat
p344
sg70
I00
sg98
Nsg192
I00
sg53
I01
sg18
(lp345
sS'isElement'
p346
I00
ssVinput3D[5]
p347
(dp348
g157
I00
sg158
(lp349
g287
ag290
ag293
assg225
(dp350
g13
I00
sg51
Vfloat
p351
sg70
I00
sg98
Nsg192
I00
sg53
I01
sg18
(lp352
ssg226
(dp353
g13
I00
sg51
Vfloat
p354
sg70
I00
sg98
Nsg192
I00
sg53
I01
sg18
(lp355
ssVinput3D[3]
p356
(dp357
g62
I00
sg41
I00
sg17
I00
sg63
(lp358
g60
ag296
aVinput3D[3].input3Dz
p359
assVcaching
p360
(dp361
S'isArray'
p362
I00
sg105
Vbool
p363
sS'attrChildrenNames'
p364
(lp365
sS'isMulti'
p366
I00
sS'isCompound'
p367
I00
sg111
I01
sg112
(lp368
sS'isElement'
p369
I00
ssVinput2D[2]
p370
(dp371
g143
I00
sg144
(lp372
g308
ag305
assVinput3D[0].input3Dx
p373
(dp374
S'isArray'
p375
I00
sS'attrParentLongName'
p376
Vinput3D[0]
p377
sS'attrChildrenNames'
p378
(lp379
sg51
Vfloat
p380
sg70
I00
sg98
Nsg192
I00
sg53
I01
sg18
(lp381
sS'isElement'
p382
I00
ssg359
(dp383
g62
I00
sg41
I00
sg17
I00
sg63
(lp384
ssVinput3D[0].input3Dz
p385
(dp386
S'isArray'
p387
I00
sS'attrParentLongName'
p388
Vinput3D[0]
p389
sS'attrChildrenNames'
p390
(lp391
sg51
Vfloat
p392
sg70
I00
sg98
Nsg192
I00
sg53
I01
sg18
(lp393
sS'isElement'
p394
I00
ss.