(dp0
Vtranslate.translateZ
p1
(dp2
S'isArray'
p3
I00
sS'attrParentLongName'
p4
Vtranslate
p5
sS'attrChildrenNames'
p6
(lp7
sS'attrType'
p8
VdoubleLinear
p9
sS'isMulti'
p10
I00
sS'isCompound'
p11
I00
sS'isSimple'
p12
I01
sS'isReadable'
p13
I01
sS'attrChildrenLongNames'
p14
(lp15
sS'isElement'
p16
I00
ssVrotateOrder
p17
(dp18
S'isArray'
p19
I00
sS'attrType'
p20
Venum
p21
sS'attrChildrenNames'
p22
(lp23
sS'isMulti'
p24
I00
sS'isCompound'
p25
I00
sg12
I01
sS'isReadable'
p26
I01
sg14
(lp27
sS'isElement'
p28
I00
ssVtranslate.translateX
p29
(dp30
S'isArray'
p31
I00
sS'attrParentLongName'
p32
Vtranslate
p33
sS'attrChildrenNames'
p34
(lp35
sS'attrType'
p36
VdoubleLinear
p37
sS'isMulti'
p38
I00
sS'isCompound'
p39
I00
sg12
I01
sS'isReadable'
p40
I01
sg14
(lp41
sS'isElement'
p42
I00
ssVdrawOverride.overrideColor
p43
(dp44
S'isArray'
p45
I00
sS'attrParentLongName'
p46
VdrawOverride
p47
sS'attrChildrenNames'
p48
(lp49
sS'attrType'
p50
Vbyte
p51
sS'isMulti'
p52
I00
sS'isCompound'
p53
I00
sg12
I00
sS'isReadable'
p54
I00
sg14
(lp55
sS'isElement'
p56
I00
ssVintermediateObject
p57
(dp58
S'isArray'
p59
I00
sS'attrType'
p60
Vbool
p61
sS'attrChildrenNames'
p62
(lp63
sS'isMulti'
p64
I00
sS'isCompound'
p65
I00
sg12
I01
sS'isReadable'
p66
I01
sg14
(lp67
sS'isElement'
p68
I00
ssVinstObjGroups[0].objectGroups[1].objectGroupId
p69
(dp70
S'isArray'
p71
I00
sS'isSimple'
p72
I00
sg14
(lp73
ssVtarget[1].targetParentMatrix
p74
(dp75
S'isArray'
p76
I00
sS'attrType'
p77
Vmatrix
p78
sS'isMulti'
p79
I00
sg72
I00
sS'attrChildrenLongNames'
p80
(lp81
ssVrenderLayerInfo.renderLayerId
p82
(dp83
S'attrParentLongName'
p84
VrenderLayerInfo
p85
ssVrestTranslate
p86
(dp87
S'isArray'
p88
I00
sS'attrType'
p89
Vdouble3
p90
sS'attrChildrenNames'
p91
(lp92
VrestTranslate.restTranslateX
p93
aVrestTranslate.restTranslateY
p94
aVrestTranslate.restTranslateZ
p95
asS'isMulti'
p96
I00
sS'isCompound'
p97
I01
sg12
I01
sS'isReadable'
p98
I01
sg14
(lp99
VrestTranslate.restTranslateX
p100
aVrestTranslate.restTranslateY
p101
aVrestTranslate.restTranslateZ
p102
asS'isElement'
p103
I00
ssVmentalRayControls.miVisible
p104
(dp105
S'isArray'
p106
I00
sS'attrParentLongName'
p107
VmentalRayControls
p108
sS'attrChildrenNames'
p109
(lp110
sS'attrType'
p111
Venum
p112
sS'isMulti'
p113
I00
sS'isCompound'
p114
I00
sg12
I01
sS'isReadable'
p115
I01
sg14
(lp116
sS'isElement'
p117
I00
ssVuseObjectColor
p118
(dp119
S'isArray'
p120
I00
sS'attrType'
p121
Vbool
p122
sS'attrChildrenNames'
p123
(lp124
sS'isMulti'
p125
I00
sS'isCompound'
p126
I00
sg12
I01
sS'isReadable'
p127
I01
sg14
(lp128
sS'isElement'
p129
I00
ssVdrawOverride.overrideLevelOfDetail
p130
(dp131
S'isArray'
p132
I00
sS'attrParentLongName'
p133
VdrawOverride
p134
sS'attrChildrenNames'
p135
(lp136
sS'attrType'
p137
Venum
p138
sS'isMulti'
p139
I00
sS'isCompound'
p140
I00
sg12
I01
sS'isReadable'
p141
I01
sg14
(lp142
sS'isElement'
p143
I00
ssVinstObjGroups[0].objectGroups[0].objectGroupId
p144
(dp145
S'isArray'
p146
I00
sS'attrParentLongName'
p147
VinstObjGroups[0].objectGroups[0]
p148
sS'attrChildrenNames'
p149
(lp150
sS'attrType'
p151
Vlong
p152
sg72
I00
sS'isReadable'
p153
I01
sg14
(lp154
sS'isElement'
p155
I00
ssVtarget[0].targetTranslate.targetTranslateY
p156
(dp157
S'isArray'
p158
I00
sS'attrParentLongName'
p159
Vtarget[0].targetTranslate
p160
sS'attrChildrenNames'
p161
(lp162
sS'attrType'
p163
VdoubleLinear
p164
sS'isMulti'
p165
I00
sS'isCompound'
p166
I00
sS'isSimple'
p167
I01
sS'isReadable'
p168
I01
sg80
(lp169
sS'isElement'
p170
I00
ssVselectHandle.selectHandleY
p171
(dp172
S'isArray'
p173
I00
sS'attrParentLongName'
p174
VselectHandle
p175
sS'attrChildrenNames'
p176
(lp177
sS'attrType'
p178
VdoubleLinear
p179
sS'isMulti'
p180
I00
sS'isCompound'
p181
I00
sg12
I01
sS'isReadable'
p182
I01
sg14
(lp183
sS'isElement'
p184
I00
ssVminTransLimitEnable.minTransYLimitEnable
p185
(dp186
g71
I00
sS'attrType'
p187
Vbool
p188
sS'isMulti'
p189
I00
sS'isCompound'
p190
I00
sg12
I01
sg14
(lp191
ssVtranslate.translateY
p192
(dp193
S'isArray'
p194
I00
sS'attrParentLongName'
p195
Vtranslate
p196
sS'attrChildrenNames'
p197
(lp198
sS'attrType'
p199
VdoubleLinear
p200
sS'isMulti'
p201
I00
sS'isCompound'
p202
I00
sg12
I01
sS'isReadable'
p203
I01
sg14
(lp204
sS'isElement'
p205
I00
ssVtarget[3].targetRotatePivot.targetRotatePivotZ
p206
(dp207
S'isArray'
p208
I00
sg72
I00
sS'attrChildrenLongNames'
p209
(lp210
ssVrenderLayerInfo.renderLayerRenderable
p211
(dp212
g84
VrenderLayerInfo
p213
ssVminRotLimitEnable.minRotZLimitEnable
p214
(dp215
g71
I00
sg187
Vbool
p216
sg189
I00
sg190
I00
sg12
I01
sg14
(lp217
ssVmentalRayControls.miDeriveFromMaya
p218
(dp219
S'isArray'
p220
I00
sS'attrParentLongName'
p221
VmentalRayControls
p222
sS'attrChildrenNames'
p223
(lp224
sS'attrType'
p225
Vbool
p226
sS'isMulti'
p227
I00
sS'isCompound'
p228
I00
sg12
I01
sS'isReadable'
p229
I01
sg14
(lp230
sS'isElement'
p231
I00
ssVtarget.targetRotateTranslateZ
p232
(dp233
g84
Vtarget.targetRotateTranslate
p234
ssVtarget.targetRotateTranslateX
p235
(dp236
g84
Vtarget.targetRotateTranslate
p237
ssVtarget[1].targetWeight
p238
(dp239
g76
I00
sg77
Vdouble
p240
sg79
I00
sS'isCompound'
p241
I00
sg72
I01
sg80
(lp242
ssVminScaleLimitEnable.minScaleXLimitEnable
p243
(dp244
g71
I00
sg187
Vbool
p245
sg189
I00
sg190
I00
sg12
I01
sg14
(lp246
ssVmaxRotLimit.maxRotYLimit
p247
(dp248
g71
I00
sg187
VdoubleAngle
p249
sg189
I00
sg190
I00
sg12
I01
sg14
(lp250
ssVtransMinusRotatePivot
p251
(dp252
S'isArray'
p253
I00
sS'attrType'
p254
Vdouble3
p255
sS'attrChildrenNames'
p256
(lp257
VtransMinusRotatePivot.transMinusRotatePivotX
p258
aVtransMinusRotatePivot.transMinusRotatePivotY
p259
aVtransMinusRotatePivot.transMinusRotatePivotZ
p260
asS'isMulti'
p261
I00
sS'isCompound'
p262
I01
sg12
I01
sS'isReadable'
p263
I01
sg14
(lp264
VtransMinusRotatePivot.transMinusRotatePivotX
p265
aVtransMinusRotatePivot.transMinusRotatePivotY
p266
aVtransMinusRotatePivot.transMinusRotatePivotZ
p267
asS'isElement'
p268
I00
ssVrenderLayerInfo[1].renderLayerColor
p269
(dp270
g71
I00
sg72
I00
sg14
(lp271
ssVdrawOverride.overrideShading
p272
(dp273
S'isArray'
p274
I00
sS'attrParentLongName'
p275
VdrawOverride
p276
sS'attrChildrenNames'
p277
(lp278
sS'attrType'
p279
Vbool
p280
sS'isMulti'
p281
I00
sS'isCompound'
p282
I00
sg12
I01
sS'isReadable'
p283
I01
sg14
(lp284
sS'isElement'
p285
I00
ssVtarget[3].targetRotatePivot.targetRotatePivotX
p286
(dp287
g208
I00
sg72
I00
sg209
(lp288
ssVtarget[3].targetRotatePivot.targetRotatePivotY
p289
(dp290
g208
I00
sg72
I00
sg209
(lp291
ssVtarget.targetParentMatrix
p292
(dp293
S'attrParentLongName'
p294
Vtarget[0]
p295
sS'isElement'
p296
I00
ssVcustomTreatment
p297
(dp298
S'isArray'
p299
I00
sS'attrType'
p300
Vstring
p301
sS'attrChildrenNames'
p302
(lp303
sS'isMulti'
p304
I00
sS'isCompound'
p305
I00
sg12
I01
sS'isReadable'
p306
I01
sg14
(lp307
sS'isElement'
p308
I00
ssVrenderLayerInfo[0].renderLayerRenderable
p309
(dp310
S'isArray'
p311
I00
sS'attrParentLongName'
p312
VrenderLayerInfo[0]
p313
sS'attrChildrenNames'
p314
(lp315
sS'attrType'
p316
Vbool
p317
sg72
I00
sS'isReadable'
p318
I01
sg14
(lp319
sS'isElement'
p320
I00
ssVrotatePivotTranslate.rotatePivotTranslateY
p321
(dp322
S'isArray'
p323
I00
sS'attrParentLongName'
p324
VrotatePivotTranslate
p325
sS'attrChildrenNames'
p326
(lp327
sS'attrType'
p328
VdoubleLinear
p329
sS'isMulti'
p330
I00
sS'isCompound'
p331
I00
sg12
I01
sS'isReadable'
p332
I01
sg14
(lp333
sS'isElement'
p334
I00
ssVshear
p335
(dp336
S'isArray'
p337
I00
sS'attrType'
p338
Vdouble3
p339
sS'attrChildrenNames'
p340
(lp341
Vshear.shearXY
p342
aVshear.shearXZ
p343
aVshear.shearYZ
p344
asS'isMulti'
p345
I00
sS'isCompound'
p346
I01
sg12
I01
sS'isReadable'
p347
I01
sg14
(lp348
Vshear.shearXY
p349
aVshear.shearXZ
p350
aVshear.shearYZ
p351
asS'isElement'
p352
I00
ssVboundingBox.boundingBoxMin.boundingBoxMinY
p353
(dp354
S'isArray'
p355
I00
sS'attrParentLongName'
p356
VboundingBox.boundingBoxMin
p357
sS'attrChildrenNames'
p358
(lp359
sS'attrType'
p360
VdoubleLinear
p361
sS'isMulti'
p362
I00
sS'isCompound'
p363
I00
sg12
I01
sS'isReadable'
p364
I01
sg14
(lp365
sS'isElement'
p366
I00
ssVboundingBox.boundingBoxMin.boundingBoxMinX
p367
(dp368
S'isArray'
p369
I00
sS'attrParentLongName'
p370
VboundingBox.boundingBoxMin
p371
sS'attrChildrenNames'
p372
(lp373
sS'attrType'
p374
VdoubleLinear
p375
sS'isMulti'
p376
I00
sS'isCompound'
p377
I00
sg12
I01
sS'isReadable'
p378
I01
sg14
(lp379
sS'isElement'
p380
I00
ssVboundingBox.boundingBoxMin.boundingBoxMinZ
p381
(dp382
S'isArray'
p383
I00
sS'attrParentLongName'
p384
VboundingBox.boundingBoxMin
p385
sS'attrChildrenNames'
p386
(lp387
sS'attrType'
p388
VdoubleLinear
p389
sS'isMulti'
p390
I00
sS'isCompound'
p391
I00
sg12
I01
sS'isReadable'
p392
I01
sg14
(lp393
sS'isElement'
p394
I00
ssVminRotLimitEnable.minRotYLimitEnable
p395
(dp396
g71
I00
sg187
Vbool
p397
sg189
I00
sg190
I00
sg12
I01
sg14
(lp398
ssVselectHandle
p399
(dp400
S'isArray'
p401
I00
sS'attrType'
p402
Vdouble3
p403
sS'attrChildrenNames'
p404
(lp405
VselectHandle.selectHandleX
p406
aVselectHandle.selectHandleY
p407
aVselectHandle.selectHandleZ
p408
asS'isMulti'
p409
I00
sS'isCompound'
p410
I01
sg12
I01
sS'isReadable'
p411
I01
sg14
(lp412
VselectHandle.selectHandleX
p413
aVselectHandle.selectHandleY
p414
aVselectHandle.selectHandleZ
p415
asS'isElement'
p416
I00
ssVtarget[0].targetRotatePivot.targetRotatePivotZ
p417
(dp418
S'isArray'
p419
I00
sS'attrParentLongName'
p420
Vtarget[0].targetRotatePivot
p421
sS'attrChildrenNames'
p422
(lp423
sS'attrType'
p424
VdoubleLinear
p425
sS'isMulti'
p426
I00
sS'isCompound'
p427
I00
sg167
I01
sS'isReadable'
p428
I01
sg80
(lp429
sS'isElement'
p430
I00
ssVinstObjGroups.objectGroups.objectGrpColor
p431
(dp432
g84
VinstObjGroups.objectGroups
p433
ssVtarget[0].targetTranslate.targetTranslateZ
p434
(dp435
S'isArray'
p436
I00
sS'attrParentLongName'
p437
Vtarget[0].targetTranslate
p438
sS'attrChildrenNames'
p439
(lp440
sS'attrType'
p441
VdoubleLinear
p442
sS'isMulti'
p443
I00
sS'isCompound'
p444
I00
sg167
I01
sS'isReadable'
p445
I01
sg80
(lp446
sS'isElement'
p447
I00
ssVrotateQuaternion.rotateQuaternionZ
p448
(dp449
S'isArray'
p450
I00
sS'attrParentLongName'
p451
VrotateQuaternion
p452
sS'attrChildrenNames'
p453
(lp454
sS'attrType'
p455
Vdouble
p456
sS'isMulti'
p457
I00
sS'isCompound'
p458
I00
sg12
I01
sS'isReadable'
p459
I01
sg14
(lp460
sS'isElement'
p461
I00
ssVtarget[2]
p462
(dp463
S'isArray'
p464
I00
sS'attrChildrenNames'
p465
(lp466
Vtarget[2].targetTranslate
p467
aVtarget[2].targetRotatePivot
p468
aVtarget[2].targetRotateTranslate
p469
aVtarget[2].targetParentMatrix
p470
aVtarget[2].targetWeight
p471
asg72
I00
sg80
(lp472
Vtarget[2].targetTranslate
p473
aVtarget[2].targetRotatePivot
p474
aVtarget[2].targetRotateTranslate
p475
aVtarget[2].targetParentMatrix
p476
aVtarget[2].targetWeight
p477
assVrotateQuaternion.rotateQuaternionX
p478
(dp479
S'isArray'
p480
I00
sS'attrParentLongName'
p481
VrotateQuaternion
p482
sS'attrChildrenNames'
p483
(lp484
sS'attrType'
p485
Vdouble
p486
sS'isMulti'
p487
I00
sS'isCompound'
p488
I00
sg12
I01
sS'isReadable'
p489
I01
sg14
(lp490
sS'isElement'
p491
I00
ssVrotateQuaternion.rotateQuaternionY
p492
(dp493
S'isArray'
p494
I00
sS'attrParentLongName'
p495
VrotateQuaternion
p496
sS'attrChildrenNames'
p497
(lp498
sS'attrType'
p499
Vdouble
p500
sS'isMulti'
p501
I00
sS'isCompound'
p502
I00
sg12
I01
sS'isReadable'
p503
I01
sg14
(lp504
sS'isElement'
p505
I00
ssVmaxTransLimitEnable.maxTransZLimitEnable
p506
(dp507
g71
I00
sg187
Vbool
p508
sg189
I00
sg190
I00
sg12
I01
sg14
(lp509
ssVworldInverseMatrix[1]
p510
(dp511
g71
I00
sg72
I00
sg14
(lp512
ssVminTransLimitEnable.minTransZLimitEnable
p513
(dp514
g71
I00
sg187
Vbool
p515
sg189
I00
sg190
I00
sg12
I01
sg14
(lp516
ssVscalePivotTranslate
p517
(dp518
S'isArray'
p519
I00
sS'attrType'
p520
Vdouble3
p521
sS'attrChildrenNames'
p522
(lp523
VscalePivotTranslate.scalePivotTranslateX
p524
aVscalePivotTranslate.scalePivotTranslateY
p525
aVscalePivotTranslate.scalePivotTranslateZ
p526
asS'isMulti'
p527
I00
sS'isCompound'
p528
I01
sg12
I01
sS'isReadable'
p529
I01
sg14
(lp530
VscalePivotTranslate.scalePivotTranslateX
p531
aVscalePivotTranslate.scalePivotTranslateY
p532
aVscalePivotTranslate.scalePivotTranslateZ
p533
asS'isElement'
p534
I00
ssVrotatePivotTranslate.rotatePivotTranslateZ
p535
(dp536
S'isArray'
p537
I00
sS'attrParentLongName'
p538
VrotatePivotTranslate
p539
sS'attrChildrenNames'
p540
(lp541
sS'attrType'
p542
VdoubleLinear
p543
sS'isMulti'
p544
I00
sS'isCompound'
p545
I00
sg12
I01
sS'isReadable'
p546
I01
sg14
(lp547
sS'isElement'
p548
I00
ssVrotateQuaternion.rotateQuaternionW
p549
(dp550
S'isArray'
p551
I00
sS'attrParentLongName'
p552
VrotateQuaternion
p553
sS'attrChildrenNames'
p554
(lp555
sS'attrType'
p556
Vdouble
p557
sS'isMulti'
p558
I00
sS'isCompound'
p559
I00
sg12
I01
sS'isReadable'
p560
I01
sg14
(lp561
sS'isElement'
p562
I00
ssVrotatePivotTranslate.rotatePivotTranslateX
p563
(dp564
S'isArray'
p565
I00
sS'attrParentLongName'
p566
VrotatePivotTranslate
p567
sS'attrChildrenNames'
p568
(lp569
sS'attrType'
p570
VdoubleLinear
p571
sS'isMulti'
p572
I00
sS'isCompound'
p573
I00
sg12
I01
sS'isReadable'
p574
I01
sg14
(lp575
sS'isElement'
p576
I00
ssVtemplatePath
p577
(dp578
S'isArray'
p579
I00
sS'attrType'
p580
Vstring
p581
sS'attrChildrenNames'
p582
(lp583
sS'isMulti'
p584
I00
sS'isCompound'
p585
I00
sg12
I01
sS'isReadable'
p586
I01
sg14
(lp587
sS'isElement'
p588
I00
ssVtarget[3].targetWeight
p589
(dp590
g208
I00
sg72
I00
sg209
(lp591
ssVminTransLimit
p592
(dp593
g71
I00
sg187
Vdouble3
p594
sg189
I00
sg190
I01
sg12
I01
sg14
(lp595
VminTransLimit.minTransXLimit
p596
aVminTransLimit.minTransYLimit
p597
aVminTransLimit.minTransZLimit
p598
assVrotate
p599
(dp600
S'isArray'
p601
I00
sS'attrType'
p602
Vdouble3
p603
sS'attrChildrenNames'
p604
(lp605
Vrotate.rotateX
p606
aVrotate.rotateY
p607
aVrotate.rotateZ
p608
asS'isMulti'
p609
I00
sS'isCompound'
p610
I01
sg12
I01
sS'isReadable'
p611
I01
sg14
(lp612
Vrotate.rotateX
p613
aVrotate.rotateY
p614
aVrotate.rotateZ
p615
asS'isElement'
p616
I00
ssVmaxTransLimit.maxTransXLimit
p617
(dp618
g71
I00
sg187
VdoubleLinear
p619
sg189
I00
sg190
I00
sg12
I01
sg14
(lp620
ssVminRotLimit
p621
(dp622
g71
I00
sg187
Vdouble3
p623
sg189
I00
sg190
I01
sg12
I01
sg14
(lp624
VminRotLimit.minRotXLimit
p625
aVminRotLimit.minRotYLimit
p626
aVminRotLimit.minRotZLimit
p627
assVmaxTransLimitEnable.maxTransYLimitEnable
p628
(dp629
g71
I00
sg187
Vbool
p630
sg189
I00
sg190
I00
sg12
I01
sg14
(lp631
ssVtarget[2].targetTranslate.targetTranslateY
p632
(dp633
g76
I00
sg72
I00
sg80
(lp634
ssVtarget[2].targetTranslate.targetTranslateX
p635
(dp636
g76
I00
sg72
I00
sg80
(lp637
ssVtarget[2].targetTranslate.targetTranslateZ
p638
(dp639
g76
I00
sg72
I00
sg80
(lp640
ssVlockOutput
p641
(dp642
S'isArray'
p643
I00
sS'attrType'
p644
Vbool
p645
sS'attrChildrenNames'
p646
(lp647
sS'isMulti'
p648
I00
sS'isCompound'
p649
I00
sg12
I01
sS'isReadable'
p650
I01
sg14
(lp651
sS'isElement'
p652
I00
ssVconstraintParentInverseMatrix
p653
(dp654
S'isArray'
p655
I00
sS'attrType'
p656
Vmatrix
p657
sS'attrChildrenNames'
p658
(lp659
sS'isMulti'
p660
I00
sS'isCompound'
p661
I00
sg167
I00
sS'isReadable'
p662
I00
sg80
(lp663
sS'isElement'
p664
I00
ssVrenderLayerInfo[1].renderLayerId
p665
(dp666
g71
I00
sg72
I00
sg14
(lp667
ssVtarget.targetRotatePivot
p668
(dp669
S'attrParentLongName'
p670
Vtarget[0]
p671
sS'isElement'
p672
I00
ssVobjectColor
p673
(dp674
S'isArray'
p675
I00
sS'attrType'
p676
Vshort
p677
sS'attrChildrenNames'
p678
(lp679
sS'isMulti'
p680
I00
sS'isCompound'
p681
I00
sg12
I01
sS'isReadable'
p682
I01
sg14
(lp683
sS'isElement'
p684
I00
ssVdrawOverride.overrideEnabled
p685
(dp686
S'isArray'
p687
I00
sS'attrParentLongName'
p688
VdrawOverride
p689
sS'attrChildrenNames'
p690
(lp691
sS'attrType'
p692
Vbool
p693
sS'isMulti'
p694
I00
sS'isCompound'
p695
I00
sg12
I01
sS'isReadable'
p696
I01
sg14
(lp697
sS'isElement'
p698
I00
ssVrotatePivot.rotatePivotZ
p699
(dp700
S'isArray'
p701
I00
sS'attrParentLongName'
p702
VrotatePivot
p703
sS'attrChildrenNames'
p704
(lp705
sS'attrType'
p706
VdoubleLinear
p707
sS'isMulti'
p708
I00
sS'isCompound'
p709
I00
sg12
I01
sS'isReadable'
p710
I01
sg14
(lp711
sS'isElement'
p712
I00
ssVboundingBox.boundingBoxSize
p713
(dp714
S'isArray'
p715
I00
sS'attrParentLongName'
p716
VboundingBox
p717
sS'attrChildrenNames'
p718
(lp719
VboundingBox.boundingBoxSize.boundingBoxSizeX
p720
aVboundingBox.boundingBoxSize.boundingBoxSizeY
p721
aVboundingBox.boundingBoxSize.boundingBoxSizeZ
p722
asS'attrType'
p723
Vdouble3
p724
sS'isMulti'
p725
I00
sS'isCompound'
p726
I01
sg12
I01
sS'isReadable'
p727
I01
sg14
(lp728
VboundingBox.boundingBoxSize.boundingBoxSizeX
p729
aVboundingBox.boundingBoxSize.boundingBoxSizeY
p730
aVboundingBox.boundingBoxSize.boundingBoxSizeZ
p731
asS'isElement'
p732
I00
ssVboundingBox.boundingBoxMax
p733
(dp734
S'isArray'
p735
I00
sS'attrParentLongName'
p736
VboundingBox
p737
sS'attrChildrenNames'
p738
(lp739
VboundingBox.boundingBoxMax.boundingBoxMaxX
p740
aVboundingBox.boundingBoxMax.boundingBoxMaxY
p741
aVboundingBox.boundingBoxMax.boundingBoxMaxZ
p742
asS'attrType'
p743
Vdouble3
p744
sS'isMulti'
p745
I00
sS'isCompound'
p746
I01
sg12
I01
sS'isReadable'
p747
I01
sg14
(lp748
VboundingBox.boundingBoxMax.boundingBoxMaxX
p749
aVboundingBox.boundingBoxMax.boundingBoxMaxY
p750
aVboundingBox.boundingBoxMax.boundingBoxMaxZ
p751
asS'isElement'
p752
I00
ssVrotatePivot.rotatePivotY
p753
(dp754
S'isArray'
p755
I00
sS'attrParentLongName'
p756
VrotatePivot
p757
sS'attrChildrenNames'
p758
(lp759
sS'attrType'
p760
VdoubleLinear
p761
sS'isMulti'
p762
I00
sS'isCompound'
p763
I00
sg12
I01
sS'isReadable'
p764
I01
sg14
(lp765
sS'isElement'
p766
I00
ssVconstraintRotateTranslate.constraintRotateTranslateZ
p767
(dp768
S'isArray'
p769
I00
sS'attrParentLongName'
p770
VconstraintRotateTranslate
p771
sS'attrChildrenNames'
p772
(lp773
sS'attrType'
p774
VdoubleLinear
p775
sS'isMulti'
p776
I00
sS'isCompound'
p777
I00
sg167
I01
sS'isReadable'
p778
I01
sg80
(lp779
sS'isElement'
p780
I00
ssVconstraintRotateTranslate.constraintRotateTranslateX
p781
(dp782
S'isArray'
p783
I00
sS'attrParentLongName'
p784
VconstraintRotateTranslate
p785
sS'attrChildrenNames'
p786
(lp787
sS'attrType'
p788
VdoubleLinear
p789
sS'isMulti'
p790
I00
sS'isCompound'
p791
I00
sg167
I01
sS'isReadable'
p792
I01
sg80
(lp793
sS'isElement'
p794
I00
ssVconstraintRotateTranslate.constraintRotateTranslateY
p795
(dp796
S'isArray'
p797
I00
sS'attrParentLongName'
p798
VconstraintRotateTranslate
p799
sS'attrChildrenNames'
p800
(lp801
sS'attrType'
p802
VdoubleLinear
p803
sS'isMulti'
p804
I00
sS'isCompound'
p805
I00
sg167
I01
sS'isReadable'
p806
I01
sg80
(lp807
sS'isElement'
p808
I00
ssVrotateAxis
p809
(dp810
S'isArray'
p811
I00
sS'attrType'
p812
Vdouble3
p813
sS'attrChildrenNames'
p814
(lp815
VrotateAxis.rotateAxisX
p816
aVrotateAxis.rotateAxisY
p817
aVrotateAxis.rotateAxisZ
p818
asS'isMulti'
p819
I00
sS'isCompound'
p820
I01
sg12
I01
sS'isReadable'
p821
I01
sg14
(lp822
VrotateAxis.rotateAxisX
p823
aVrotateAxis.rotateAxisY
p824
aVrotateAxis.rotateAxisZ
p825
asS'isElement'
p826
I00
ssVcreator
p827
(dp828
S'isArray'
p829
I00
sS'attrType'
p830
Vstring
p831
sS'attrChildrenNames'
p832
(lp833
sS'isMulti'
p834
I00
sS'isCompound'
p835
I00
sg12
I01
sS'isReadable'
p836
I01
sg14
(lp837
sS'isElement'
p838
I00
ssVrotateAxis.rotateAxisX
p839
(dp840
S'isArray'
p841
I00
sS'attrParentLongName'
p842
VrotateAxis
p843
sS'attrChildrenNames'
p844
(lp845
sS'attrType'
p846
VdoubleAngle
p847
sS'isMulti'
p848
I00
sS'isCompound'
p849
I00
sg12
I01
sS'isReadable'
p850
I01
sg14
(lp851
sS'isElement'
p852
I00
ssVrotateAxis.rotateAxisY
p853
(dp854
S'isArray'
p855
I00
sS'attrParentLongName'
p856
VrotateAxis
p857
sS'attrChildrenNames'
p858
(lp859
sS'attrType'
p860
VdoubleAngle
p861
sS'isMulti'
p862
I00
sS'isCompound'
p863
I00
sg12
I01
sS'isReadable'
p864
I01
sg14
(lp865
sS'isElement'
p866
I00
ssVrotateAxis.rotateAxisZ
p867
(dp868
S'isArray'
p869
I00
sS'attrParentLongName'
p870
VrotateAxis
p871
sS'attrChildrenNames'
p872
(lp873
sS'attrType'
p874
VdoubleAngle
p875
sS'isMulti'
p876
I00
sS'isCompound'
p877
I00
sg12
I01
sS'isReadable'
p878
I01
sg14
(lp879
sS'isElement'
p880
I00
ssVconstraintRotatePivot.constraintRotatePivotY
p881
(dp882
S'isArray'
p883
I00
sS'attrParentLongName'
p884
VconstraintRotatePivot
p885
sS'attrChildrenNames'
p886
(lp887
sS'attrType'
p888
VdoubleLinear
p889
sS'isMulti'
p890
I00
sS'isCompound'
p891
I00
sg167
I01
sS'isReadable'
p892
I01
sg80
(lp893
sS'isElement'
p894
I00
ssVpublishedNodeInfo[0]
p895
(dp896
g71
I00
sg72
I00
sg14
(lp897
VpublishedNodeInfo[0].publishedNode
p898
aVpublishedNodeInfo[0].isHierarchicalNode
p899
aVpublishedNodeInfo[0].publishedNodeType
p900
assVtarget[1].targetRotateTranslate
p901
(dp902
g76
I00
sg77
Vdouble3
p903
sg79
I00
sg241
I01
sg72
I01
sg80
(lp904
Vtarget[1].targetRotateTranslate.targetRotateTranslateX
p905
aVtarget[1].targetRotateTranslate.targetRotateTranslateY
p906
aVtarget[1].targetRotateTranslate.targetRotateTranslateZ
p907
assVghostRangeEnd
p908
(dp909
S'isArray'
p910
I00
sS'attrType'
p911
Vtime
p912
sS'attrChildrenNames'
p913
(lp914
sS'isMulti'
p915
I00
sS'isCompound'
p916
I00
sg12
I01
sS'isReadable'
p917
I01
sg14
(lp918
sS'isElement'
p919
I00
ssVtarget[0].targetTranslate
p920
(dp921
S'isArray'
p922
I00
sS'attrParentLongName'
p923
Vtarget[0]
p924
sS'attrChildrenNames'
p925
(lp926
Vtarget[0].targetTranslate.targetTranslateX
p927
aVtarget[0].targetTranslate.targetTranslateY
p928
aVtarget[0].targetTranslate.targetTranslateZ
p929
asS'attrType'
p930
Vdouble3
p931
sS'isMulti'
p932
I00
sS'isCompound'
p933
I01
sg167
I01
sS'isReadable'
p934
I01
sg80
(lp935
Vtarget[0].targetTranslate.targetTranslateX
p936
aVtarget[0].targetTranslate.targetTranslateY
p937
aVtarget[0].targetTranslate.targetTranslateZ
p938
asS'isElement'
p939
I00
ssVscalePivotTranslate.scalePivotTranslateX
p940
(dp941
S'isArray'
p942
I00
sS'attrParentLongName'
p943
VscalePivotTranslate
p944
sS'attrChildrenNames'
p945
(lp946
sS'attrType'
p947
VdoubleLinear
p948
sS'isMulti'
p949
I00
sS'isCompound'
p950
I00
sg12
I01
sS'isReadable'
p951
I01
sg14
(lp952
sS'isElement'
p953
I00
ssVtarget[0].targetWeight
p954
(dp955
S'isArray'
p956
I00
sS'attrParentLongName'
p957
Vtarget[0]
p958
sS'attrChildrenNames'
p959
(lp960
sS'attrType'
p961
Vdouble
p962
sS'isMulti'
p963
I00
sS'isCompound'
p964
I00
sg167
I01
sS'isReadable'
p965
I01
sg80
(lp966
sS'isElement'
p967
I00
ssVmaxScaleLimit.maxScaleYLimit
p968
(dp969
g71
I00
sg187
Vdouble
p970
sg189
I00
sg190
I00
sg12
I01
sg14
(lp971
ssVtarget[2].targetRotatePivot.targetRotatePivotY
p972
(dp973
g76
I00
sg72
I00
sg80
(lp974
ssVtarget[2].targetRotatePivot.targetRotatePivotX
p975
(dp976
g76
I00
sg72
I00
sg80
(lp977
ssVpublishedNodeInfo[0].publishedNode
p978
(dp979
S'isArray'
p980
I00
sS'attrParentLongName'
p981
VpublishedNodeInfo[0]
p982
sS'attrChildrenNames'
p983
(lp984
sS'attrType'
p985
Vmessage
p986
sg72
I00
sS'isReadable'
p987
I00
sg14
(lp988
sS'isElement'
p989
I00
ssVtarget[2].targetRotatePivot.targetRotatePivotZ
p990
(dp991
g76
I00
sg72
I00
sg80
(lp992
ssVdynamics
p993
(dp994
S'isArray'
p995
I00
sS'attrType'
p996
Vbool
p997
sS'attrChildrenNames'
p998
(lp999
sS'isMulti'
p1000
I00
sS'isCompound'
p1001
I00
sg12
I01
sS'isReadable'
p1002
I01
sg14
(lp1003
sS'isElement'
p1004
I00
ssVpublishedNodeInfo[1].isHierarchicalNode
p1005
(dp1006
g71
I00
sg72
I00
sg14
(lp1007
ssVconstraintOffsetPolarity
p1008
(dp1009
S'isArray'
p1010
I00
sS'attrType'
p1011
Vdouble
p1012
sS'attrChildrenNames'
p1013
(lp1014
sS'isMulti'
p1015
I00
sS'isCompound'
p1016
I00
sg12
I01
sS'isReadable'
p1017
I01
sg14
(lp1018
sS'isElement'
p1019
I00
ssVtemplateVersion
p1020
(dp1021
S'isArray'
p1022
I00
sS'attrType'
p1023
Vlong
p1024
sS'attrChildrenNames'
p1025
(lp1026
sS'isMulti'
p1027
I00
sS'isCompound'
p1028
I00
sg12
I01
sS'isReadable'
p1029
I01
sg14
(lp1030
sS'isElement'
p1031
I00
ssVmaxTransLimit.maxTransZLimit
p1032
(dp1033
g71
I00
sg187
VdoubleLinear
p1034
sg189
I00
sg190
I00
sg12
I01
sg14
(lp1035
ssVinstObjGroups[1].objectGroups
p1036
(dp1037
g71
I01
sg72
I00
ssVscale
p1038
(dp1039
S'isArray'
p1040
I00
sS'attrType'
p1041
Vdouble3
p1042
sS'attrChildrenNames'
p1043
(lp1044
Vscale.scaleX
p1045
aVscale.scaleY
p1046
aVscale.scaleZ
p1047
asS'isMulti'
p1048
I00
sS'isCompound'
p1049
I01
sg12
I01
sS'isReadable'
p1050
I01
sg14
(lp1051
Vscale.scaleX
p1052
aVscale.scaleY
p1053
aVscale.scaleZ
p1054
asS'isElement'
p1055
I00
ssVmatrix
p1056
(dp1057
S'isArray'
p1058
I00
sS'attrType'
p1059
Vmatrix
p1060
sS'attrChildrenNames'
p1061
(lp1062
sS'isMulti'
p1063
I00
sS'isCompound'
p1064
I00
sg12
I00
sS'isReadable'
p1065
I00
sg14
(lp1066
sS'isElement'
p1067
I00
ssVrenderLayerInfo[0]
p1068
(dp1069
g71
I00
sg72
I00
sg14
(lp1070
VrenderLayerInfo[0].renderLayerId
p1071
aVrenderLayerInfo[0].renderLayerRenderable
p1072
aVrenderLayerInfo[0].renderLayerColor
p1073
assVoffset.offsetZ
p1074
(dp1075
S'isArray'
p1076
I00
sS'attrParentLongName'
p1077
Voffset
p1078
sS'attrChildrenNames'
p1079
(lp1080
sS'attrType'
p1081
VdoubleLinear
p1082
sS'isMulti'
p1083
I00
sS'isCompound'
p1084
I00
sg12
I01
sS'isReadable'
p1085
I01
sg14
(lp1086
sS'isElement'
p1087
I00
ssg475
(dp1088
g76
I00
sg72
I00
sg80
(lp1089
Vtarget[2].targetRotateTranslate.targetRotateTranslateX
p1090
aVtarget[2].targetRotateTranslate.targetRotateTranslateY
p1091
aVtarget[2].targetRotateTranslate.targetRotateTranslateZ
p1092
assVoffset.offsetX
p1093
(dp1094
S'isArray'
p1095
I00
sS'attrParentLongName'
p1096
Voffset
p1097
sS'attrChildrenNames'
p1098
(lp1099
sS'attrType'
p1100
VdoubleLinear
p1101
sS'isMulti'
p1102
I00
sS'isCompound'
p1103
I00
sg12
I01
sS'isReadable'
p1104
I01
sg14
(lp1105
sS'isElement'
p1106
I00
ssVoffset.offsetY
p1107
(dp1108
S'isArray'
p1109
I00
sS'attrParentLongName'
p1110
Voffset
p1111
sS'attrChildrenNames'
p1112
(lp1113
sS'attrType'
p1114
VdoubleLinear
p1115
sS'isMulti'
p1116
I00
sS'isCompound'
p1117
I00
sg12
I01
sS'isReadable'
p1118
I01
sg14
(lp1119
sS'isElement'
p1120
I00
ssVselectHandle.selectHandleX
p1121
(dp1122
S'isArray'
p1123
I00
sS'attrParentLongName'
p1124
VselectHandle
p1125
sS'attrChildrenNames'
p1126
(lp1127
sS'attrType'
p1128
VdoubleLinear
p1129
sS'isMulti'
p1130
I00
sS'isCompound'
p1131
I00
sg12
I01
sS'isReadable'
p1132
I01
sg14
(lp1133
sS'isElement'
p1134
I00
ssVghostCustomSteps
p1135
(dp1136
S'isArray'
p1137
I00
sS'attrType'
p1138
VTdataCompound
p1139
sS'attrChildrenNames'
p1140
(lp1141
VghostCustomSteps.ghostPreSteps
p1142
aVghostCustomSteps.ghostPostSteps
p1143
aVghostCustomSteps.ghostStepSize
p1144
asS'isMulti'
p1145
I00
sS'isCompound'
p1146
I01
sg12
I00
sS'isReadable'
p1147
I00
sg14
(lp1148
VghostCustomSteps.ghostPreSteps
p1149
aVghostCustomSteps.ghostPostSteps
p1150
aVghostCustomSteps.ghostStepSize
p1151
asS'isElement'
p1152
I00
ssVselectHandle.selectHandleZ
p1153
(dp1154
S'isArray'
p1155
I00
sS'attrParentLongName'
p1156
VselectHandle
p1157
sS'attrChildrenNames'
p1158
(lp1159
sS'attrType'
p1160
VdoubleLinear
p1161
sS'isMulti'
p1162
I00
sS'isCompound'
p1163
I00
sg12
I01
sS'isReadable'
p1164
I01
sg14
(lp1165
sS'isElement'
p1166
I00
ssVpublishedNodeInfo[1].publishedNode
p1167
(dp1168
g71
I00
sg72
I00
sg14
(lp1169
ssVmaxRotLimitEnable.maxRotZLimitEnable
p1170
(dp1171
g71
I00
sg187
Vbool
p1172
sg189
I00
sg190
I00
sg12
I01
sg14
(lp1173
ssVtarget[3].targetRotatePivot
p1174
(dp1175
g208
I00
sg72
I00
sg209
(lp1176
g286
ag289
ag206
assVtarget[3].targetRotateTranslate
p1177
(dp1178
g208
I00
sg72
I00
sg209
(lp1179
Vtarget[3].targetRotateTranslate.targetRotateTranslateX
p1180
aVtarget[3].targetRotateTranslate.targetRotateTranslateY
p1181
aVtarget[3].targetRotateTranslate.targetRotateTranslateZ
p1182
assVworldMatrix
p1183
(dp1184
S'isArray'
p1185
I01
sS'attrType'
p1186
Vmatrix
p1187
sS'isMulti'
p1188
I01
sg12
I00
sS'isReadable'
p1189
I00
sS'isElement'
p1190
I00
ssVtemplate
p1191
(dp1192
S'isArray'
p1193
I00
sS'attrType'
p1194
Vbool
p1195
sS'attrChildrenNames'
p1196
(lp1197
sS'isMulti'
p1198
I00
sS'isCompound'
p1199
I00
sg12
I01
sS'isReadable'
p1200
I01
sg14
(lp1201
sS'isElement'
p1202
I00
ssVinstObjGroups[0].objectGroups[1].objectGrpColor
p1203
(dp1204
g71
I00
sg72
I00
sg14
(lp1205
ssVcontainerType
p1206
(dp1207
S'isArray'
p1208
I00
sS'attrType'
p1209
Vstring
p1210
sS'attrChildrenNames'
p1211
(lp1212
sS'isMulti'
p1213
I00
sS'isCompound'
p1214
I00
sg12
I01
sS'isReadable'
p1215
I01
sg14
(lp1216
sS'isElement'
p1217
I00
ssVtarget.targetRotatePivotZ
p1218
(dp1219
g84
Vtarget.targetRotatePivot
p1220
ssVrotate.rotateZ
p1221
(dp1222
S'isArray'
p1223
I00
sS'attrParentLongName'
p1224
Vrotate
p1225
sS'attrChildrenNames'
p1226
(lp1227
sS'attrType'
p1228
VdoubleAngle
p1229
sS'isMulti'
p1230
I00
sS'isCompound'
p1231
I00
sg12
I01
sS'isReadable'
p1232
I01
sg14
(lp1233
sS'isElement'
p1234
I00
ssVminScaleLimit.minScaleZLimit
p1235
(dp1236
g71
I00
sg187
Vdouble
p1237
sg189
I00
sg190
I00
sg12
I01
sg14
(lp1238
ssVparentInverseMatrix[0]
p1239
(dp1240
g71
I00
sg72
I00
sg14
(lp1241
ssVscalePivot.scalePivotX
p1242
(dp1243
S'isArray'
p1244
I00
sS'attrParentLongName'
p1245
VscalePivot
p1246
sS'attrChildrenNames'
p1247
(lp1248
sS'attrType'
p1249
VdoubleLinear
p1250
sS'isMulti'
p1251
I00
sS'isCompound'
p1252
I00
sg12
I01
sS'isReadable'
p1253
I01
sg14
(lp1254
sS'isElement'
p1255
I00
ssVscalePivot.scalePivotY
p1256
(dp1257
S'isArray'
p1258
I00
sS'attrParentLongName'
p1259
VscalePivot
p1260
sS'attrChildrenNames'
p1261
(lp1262
sS'attrType'
p1263
VdoubleLinear
p1264
sS'isMulti'
p1265
I00
sS'isCompound'
p1266
I00
sg12
I01
sS'isReadable'
p1267
I01
sg14
(lp1268
sS'isElement'
p1269
I00
ssVscalePivot.scalePivotZ
p1270
(dp1271
S'isArray'
p1272
I00
sS'attrParentLongName'
p1273
VscalePivot
p1274
sS'attrChildrenNames'
p1275
(lp1276
sS'attrType'
p1277
VdoubleLinear
p1278
sS'isMulti'
p1279
I00
sS'isCompound'
p1280
I00
sg12
I01
sS'isReadable'
p1281
I01
sg14
(lp1282
sS'isElement'
p1283
I00
ssVinstObjGroups.objectGroups.objectGrpCompList
p1284
(dp1285
g84
VinstObjGroups.objectGroups
p1286
ssVparentInverseMatrix
p1287
(dp1288
S'isArray'
p1289
I01
sS'attrType'
p1290
Vmatrix
p1291
sS'isMulti'
p1292
I01
sg12
I00
sS'isReadable'
p1293
I00
sS'isElement'
p1294
I00
ssg627
(dp1295
g71
I00
sg187
VdoubleAngle
p1296
sg189
I00
sg190
I00
sg12
I01
sg14
(lp1297
ssVviewName
p1298
(dp1299
S'isArray'
p1300
I00
sS'attrType'
p1301
Vstring
p1302
sS'attrChildrenNames'
p1303
(lp1304
sS'isMulti'
p1305
I00
sS'isCompound'
p1306
I00
sg12
I01
sS'isReadable'
p1307
I01
sg14
(lp1308
sS'isElement'
p1309
I00
ssVtarget[1].targetTranslate
p1310
(dp1311
g76
I00
sg77
Vdouble3
p1312
sg79
I00
sg241
I01
sg72
I01
sg80
(lp1313
Vtarget[1].targetTranslate.targetTranslateX
p1314
aVtarget[1].targetTranslate.targetTranslateY
p1315
aVtarget[1].targetTranslate.targetTranslateZ
p1316
assVpublishedNodeInfo.publishedNodeType
p1317
(dp1318
g84
VpublishedNodeInfo
p1319
ssVparentInverseMatrix[1]
p1320
(dp1321
g71
I00
sg72
I00
sg14
(lp1322
ssVpublishedNodeInfo[1]
p1323
(dp1324
g71
I00
sg72
I00
sg14
(lp1325
g1167
ag1005
aVpublishedNodeInfo[1].publishedNodeType
p1326
assVmaxTransLimit
p1327
(dp1328
g71
I00
sg187
Vdouble3
p1329
sg189
I00
sg190
I01
sg12
I01
sg14
(lp1330
g617
aVmaxTransLimit.maxTransYLimit
p1331
ag1032
assg596
(dp1332
g71
I00
sg187
VdoubleLinear
p1333
sg189
I00
sg190
I00
sg12
I01
sg14
(lp1334
ssVdisplayScalePivot
p1335
(dp1336
S'isArray'
p1337
I00
sS'attrType'
p1338
Vbool
p1339
sS'attrChildrenNames'
p1340
(lp1341
sS'isMulti'
p1342
I00
sS'isCompound'
p1343
I00
sg12
I01
sS'isReadable'
p1344
I01
sg14
(lp1345
sS'isElement'
p1346
I00
ssg474
(dp1347
g76
I00
sg72
I00
sg80
(lp1348
g975
ag972
ag990
assVrenderInfo.layerRenderable
p1349
(dp1350
S'isArray'
p1351
I00
sS'attrParentLongName'
p1352
VrenderInfo
p1353
sS'attrChildrenNames'
p1354
(lp1355
sS'attrType'
p1356
Vbool
p1357
sS'isMulti'
p1358
I00
sS'isCompound'
p1359
I00
sg12
I01
sS'isReadable'
p1360
I01
sg14
(lp1361
sS'isElement'
p1362
I00
ssVminTransLimitEnable.minTransXLimitEnable
p1363
(dp1364
g71
I00
sg187
Vbool
p1365
sg189
I00
sg190
I00
sg12
I01
sg14
(lp1366
ssVtarget[0].targetRotateTranslate
p1367
(dp1368
S'isArray'
p1369
I00
sS'attrParentLongName'
p1370
Vtarget[0]
p1371
sS'attrChildrenNames'
p1372
(lp1373
Vtarget[0].targetRotateTranslate.targetRotateTranslateX
p1374
aVtarget[0].targetRotateTranslate.targetRotateTranslateY
p1375
aVtarget[0].targetRotateTranslate.targetRotateTranslateZ
p1376
asS'attrType'
p1377
Vdouble3
p1378
sS'isMulti'
p1379
I00
sS'isCompound'
p1380
I01
sg167
I01
sS'isReadable'
p1381
I01
sg80
(lp1382
Vtarget[0].targetRotateTranslate.targetRotateTranslateX
p1383
aVtarget[0].targetRotateTranslate.targetRotateTranslateY
p1384
aVtarget[0].targetRotateTranslate.targetRotateTranslateZ
p1385
asS'isElement'
p1386
I00
ssVmaxScaleLimitEnable.maxScaleYLimitEnable
p1387
(dp1388
g71
I00
sg187
Vbool
p1389
sg189
I00
sg190
I00
sg12
I01
sg14
(lp1390
ssVrmbCommand
p1391
(dp1392
g71
I00
sg187
Vstring
p1393
sg189
I00
sg190
I00
sg12
I01
sg14
(lp1394
ssVcreationDate
p1395
(dp1396
S'isArray'
p1397
I00
sS'attrType'
p1398
Vstring
p1399
sS'attrChildrenNames'
p1400
(lp1401
sS'isMulti'
p1402
I00
sS'isCompound'
p1403
I00
sg12
I01
sS'isReadable'
p1404
I01
sg14
(lp1405
sS'isElement'
p1406
I00
ssVmentalRayControls.miHide
p1407
(dp1408
S'isArray'
p1409
I00
sS'attrParentLongName'
p1410
VmentalRayControls
p1411
sS'attrChildrenNames'
p1412
(lp1413
sS'attrType'
p1414
Vbool
p1415
sS'isMulti'
p1416
I00
sS'isCompound'
p1417
I00
sg12
I01
sS'isReadable'
p1418
I01
sg14
(lp1419
sS'isElement'
p1420
I00
ssVghostCustomSteps.ghostPreSteps
p1421
(dp1422
S'isArray'
p1423
I00
sS'attrParentLongName'
p1424
VghostCustomSteps
p1425
sS'attrChildrenNames'
p1426
(lp1427
sS'attrType'
p1428
Vlong
p1429
sS'isMulti'
p1430
I00
sS'isCompound'
p1431
I00
sg12
I01
sS'isReadable'
p1432
I01
sg14
(lp1433
sS'isElement'
p1434
I00
ssg1326
(dp1435
g71
I00
sg72
I00
sg14
(lp1436
ssVpublishedNodeInfo
p1437
(dp1438
S'isArray'
p1439
I01
sS'attrType'
p1440
VTdataCompound
p1441
sS'isMulti'
p1442
I01
sg12
I00
sS'isReadable'
p1443
I00
sS'isElement'
p1444
I00
ssViconName
p1445
(dp1446
S'isArray'
p1447
I00
sS'attrType'
p1448
Vstring
p1449
sS'attrChildrenNames'
p1450
(lp1451
sS'isMulti'
p1452
I00
sS'isCompound'
p1453
I00
sg12
I01
sS'isReadable'
p1454
I01
sg14
(lp1455
sS'isElement'
p1456
I00
ssVscale.scaleZ
p1457
(dp1458
S'isArray'
p1459
I00
sS'attrParentLongName'
p1460
Vscale
p1461
sS'attrChildrenNames'
p1462
(lp1463
sS'attrType'
p1464
Vdouble
p1465
sS'isMulti'
p1466
I00
sS'isCompound'
p1467
I00
sg12
I01
sS'isReadable'
p1468
I01
sg14
(lp1469
sS'isElement'
p1470
I00
ssg476
(dp1471
g76
I00
sg72
I00
sg80
(lp1472
ssVscale.scaleX
p1473
(dp1474
S'isArray'
p1475
I00
sS'attrParentLongName'
p1476
Vscale
p1477
sS'attrChildrenNames'
p1478
(lp1479
sS'attrType'
p1480
Vdouble
p1481
sS'isMulti'
p1482
I00
sS'isCompound'
p1483
I00
sg12
I01
sS'isReadable'
p1484
I01
sg14
(lp1485
sS'isElement'
p1486
I00
ssVscale.scaleY
p1487
(dp1488
S'isArray'
p1489
I00
sS'attrParentLongName'
p1490
Vscale
p1491
sS'attrChildrenNames'
p1492
(lp1493
sS'attrType'
p1494
Vdouble
p1495
sS'isMulti'
p1496
I00
sS'isCompound'
p1497
I00
sg12
I01
sS'isReadable'
p1498
I01
sg14
(lp1499
sS'isElement'
p1500
I00
ssVconstraintTranslate.constraintTranslateZ
p1501
(dp1502
S'isArray'
p1503
I00
sS'attrParentLongName'
p1504
VconstraintTranslate
p1505
sS'attrChildrenNames'
p1506
(lp1507
sS'attrType'
p1508
VdoubleLinear
p1509
sS'isMulti'
p1510
I00
sS'isCompound'
p1511
I00
sg167
I01
sS'isReadable'
p1512
I01
sg80
(lp1513
sS'isElement'
p1514
I00
ssVconstraintRotatePivot
p1515
(dp1516
S'isArray'
p1517
I00
sS'attrType'
p1518
Vdouble3
p1519
sS'attrChildrenNames'
p1520
(lp1521
VconstraintRotatePivot.constraintRotatePivotX
p1522
aVconstraintRotatePivot.constraintRotatePivotY
p1523
aVconstraintRotatePivot.constraintRotatePivotZ
p1524
asS'isMulti'
p1525
I00
sS'isCompound'
p1526
I01
sg167
I01
sS'isReadable'
p1527
I01
sg80
(lp1528
VconstraintRotatePivot.constraintRotatePivotX
p1529
aVconstraintRotatePivot.constraintRotatePivotY
p1530
aVconstraintRotatePivot.constraintRotatePivotZ
p1531
asS'isElement'
p1532
I00
ssVconstraintTranslate.constraintTranslateX
p1533
(dp1534
S'isArray'
p1535
I00
sS'attrParentLongName'
p1536
VconstraintTranslate
p1537
sS'attrChildrenNames'
p1538
(lp1539
sS'attrType'
p1540
VdoubleLinear
p1541
sS'isMulti'
p1542
I00
sS'isCompound'
p1543
I00
sg167
I01
sS'isReadable'
p1544
I01
sg80
(lp1545
sS'isElement'
p1546
I00
ssVconstraintTranslate.constraintTranslateY
p1547
(dp1548
S'isArray'
p1549
I00
sS'attrParentLongName'
p1550
VconstraintTranslate
p1551
sS'attrChildrenNames'
p1552
(lp1553
sS'attrType'
p1554
VdoubleLinear
p1555
sS'isMulti'
p1556
I00
sS'isCompound'
p1557
I00
sg167
I01
sS'isReadable'
p1558
I01
sg80
(lp1559
sS'isElement'
p1560
I00
ssVrotatePivot
p1561
(dp1562
S'isArray'
p1563
I00
sS'attrType'
p1564
Vdouble3
p1565
sS'attrChildrenNames'
p1566
(lp1567
VrotatePivot.rotatePivotX
p1568
aVrotatePivot.rotatePivotY
p1569
aVrotatePivot.rotatePivotZ
p1570
asS'isMulti'
p1571
I00
sS'isCompound'
p1572
I01
sg12
I01
sS'isReadable'
p1573
I01
sg14
(lp1574
VrotatePivot.rotatePivotX
p1575
aVrotatePivot.rotatePivotY
p1576
aVrotatePivot.rotatePivotZ
p1577
asS'isElement'
p1578
I00
ssVrotatePivot.rotatePivotX
p1579
(dp1580
S'isArray'
p1581
I00
sS'attrParentLongName'
p1582
VrotatePivot
p1583
sS'attrChildrenNames'
p1584
(lp1585
sS'attrType'
p1586
VdoubleLinear
p1587
sS'isMulti'
p1588
I00
sS'isCompound'
p1589
I00
sg12
I01
sS'isReadable'
p1590
I01
sg14
(lp1591
sS'isElement'
p1592
I00
ssVinstObjGroups[0].objectGroups[1]
p1593
(dp1594
g71
I00
sg72
I00
sg14
(lp1595
VinstObjGroups[0].objectGroups[1].objectGrpCompList
p1596
ag69
ag1203
assVghostRangeStart
p1597
(dp1598
S'isArray'
p1599
I00
sS'attrType'
p1600
Vtime
p1601
sS'attrChildrenNames'
p1602
(lp1603
sS'isMulti'
p1604
I00
sS'isCompound'
p1605
I00
sg12
I01
sS'isReadable'
p1606
I01
sg14
(lp1607
sS'isElement'
p1608
I00
ssVminRotLimitEnable
p1609
(dp1610
g71
I00
sg189
I00
sg187
VTdataCompound
p1611
sg12
I00
sg14
(lp1612
VminRotLimitEnable.minRotXLimitEnable
p1613
ag395
ag214
assVpublishedNodeInfo[0].publishedNodeType
p1614
(dp1615
S'isArray'
p1616
I00
sS'attrParentLongName'
p1617
VpublishedNodeInfo[0]
p1618
sS'attrChildrenNames'
p1619
(lp1620
sS'attrType'
p1621
Vstring
p1622
sg72
I00
sS'isReadable'
p1623
I01
sg14
(lp1624
sS'isElement'
p1625
I00
ssVtarget.targetWeight
p1626
(dp1627
S'attrParentLongName'
p1628
Vtarget[0]
p1629
sS'isElement'
p1630
I00
ssVmentalRayControls.miTrace
p1631
(dp1632
S'isArray'
p1633
I00
sS'attrParentLongName'
p1634
VmentalRayControls
p1635
sS'attrChildrenNames'
p1636
(lp1637
sS'attrType'
p1638
Venum
p1639
sS'isMulti'
p1640
I00
sS'isCompound'
p1641
I00
sg12
I01
sS'isReadable'
p1642
I01
sg14
(lp1643
sS'isElement'
p1644
I00
ssVtarget[0].targetRotatePivot
p1645
(dp1646
S'isArray'
p1647
I00
sS'attrParentLongName'
p1648
Vtarget[0]
p1649
sS'attrChildrenNames'
p1650
(lp1651
Vtarget[0].targetRotatePivot.targetRotatePivotX
p1652
aVtarget[0].targetRotatePivot.targetRotatePivotY
p1653
aVtarget[0].targetRotatePivot.targetRotatePivotZ
p1654
asS'attrType'
p1655
Vdouble3
p1656
sS'isMulti'
p1657
I00
sS'isCompound'
p1658
I01
sg167
I01
sS'isReadable'
p1659
I01
sg80
(lp1660
Vtarget[0].targetRotatePivot.targetRotatePivotX
p1661
aVtarget[0].targetRotatePivot.targetRotatePivotY
p1662
aVtarget[0].targetRotatePivot.targetRotatePivotZ
p1663
asS'isElement'
p1664
I00
ssVparentMatrix[0]
p1665
(dp1666
g71
I00
sg72
I00
sg14
(lp1667
ssVinstObjGroups
p1668
(dp1669
S'isArray'
p1670
I01
sS'attrType'
p1671
VTdataCompound
p1672
sS'isMulti'
p1673
I01
sg12
I00
sS'isReadable'
p1674
I00
sS'isElement'
p1675
I00
ssg1331
(dp1676
g71
I00
sg187
VdoubleLinear
p1677
sg189
I00
sg190
I00
sg12
I01
sg14
(lp1678
ssVdisplayHandle
p1679
(dp1680
S'isArray'
p1681
I00
sS'attrType'
p1682
Vbool
p1683
sS'attrChildrenNames'
p1684
(lp1685
sS'isMulti'
p1686
I00
sS'isCompound'
p1687
I00
sg12
I01
sS'isReadable'
p1688
I01
sg14
(lp1689
sS'isElement'
p1690
I00
ssVmaxTransLimitEnable
p1691
(dp1692
g71
I00
sg189
I00
sg187
VTdataCompound
p1693
sg12
I00
sg14
(lp1694
VmaxTransLimitEnable.maxTransXLimitEnable
p1695
ag628
ag506
assg1613
(dp1696
g71
I00
sg187
Vbool
p1697
sg189
I00
sg190
I00
sg12
I01
sg14
(lp1698
ssVoffset
p1699
(dp1700
S'isArray'
p1701
I00
sS'attrType'
p1702
Vdouble3
p1703
sS'attrChildrenNames'
p1704
(lp1705
Voffset.offsetX
p1706
aVoffset.offsetY
p1707
aVoffset.offsetZ
p1708
asS'isMulti'
p1709
I00
sS'isCompound'
p1710
I01
sg12
I01
sS'isReadable'
p1711
I01
sg14
(lp1712
Voffset.offsetX
p1713
aVoffset.offsetY
p1714
aVoffset.offsetZ
p1715
asS'isElement'
p1716
I00
ssVdrawOverride.overrideTexturing
p1717
(dp1718
S'isArray'
p1719
I00
sS'attrParentLongName'
p1720
VdrawOverride
p1721
sS'attrChildrenNames'
p1722
(lp1723
sS'attrType'
p1724
Vbool
p1725
sS'isMulti'
p1726
I00
sS'isCompound'
p1727
I00
sg12
I01
sS'isReadable'
p1728
I01
sg14
(lp1729
sS'isElement'
p1730
I00
ssVtarget.targetRotateTranslate
p1731
(dp1732
S'attrParentLongName'
p1733
Vtarget[0]
p1734
sS'isElement'
p1735
I00
ssVinstObjGroups[0]
p1736
(dp1737
g71
I00
sg72
I00
sg14
(lp1738
VinstObjGroups[0].objectGroups
p1739
assVrotateQuaternion
p1740
(dp1741
S'isArray'
p1742
I00
sS'attrType'
p1743
Vdouble4
p1744
sS'attrChildrenNames'
p1745
(lp1746
VrotateQuaternion.rotateQuaternionX
p1747
aVrotateQuaternion.rotateQuaternionY
p1748
aVrotateQuaternion.rotateQuaternionZ
p1749
aVrotateQuaternion.rotateQuaternionW
p1750
asS'isMulti'
p1751
I00
sS'isCompound'
p1752
I01
sg12
I00
sS'isReadable'
p1753
I00
sg14
(lp1754
VrotateQuaternion.rotateQuaternionX
p1755
aVrotateQuaternion.rotateQuaternionY
p1756
aVrotateQuaternion.rotateQuaternionZ
p1757
aVrotateQuaternion.rotateQuaternionW
p1758
asS'isElement'
p1759
I00
ssVinstObjGroups[0].objectGroups[0].objectGrpCompList
p1760
(dp1761
S'isArray'
p1762
I00
sS'attrParentLongName'
p1763
VinstObjGroups[0].objectGroups[0]
p1764
sS'attrChildrenNames'
p1765
(lp1766
sS'attrType'
p1767
VcomponentList
p1768
sg72
I00
sS'isReadable'
p1769
I00
sg14
(lp1770
sS'isElement'
p1771
I00
ssVdrawOverride.overrideVisibility
p1772
(dp1773
S'isArray'
p1774
I00
sS'attrParentLongName'
p1775
VdrawOverride
p1776
sS'attrChildrenNames'
p1777
(lp1778
sS'attrType'
p1779
Vbool
p1780
sS'isMulti'
p1781
I00
sS'isCompound'
p1782
I00
sg12
I01
sS'isReadable'
p1783
I01
sg14
(lp1784
sS'isElement'
p1785
I00
ssVmaxScaleLimit
p1786
(dp1787
g71
I00
sg187
Vdouble3
p1788
sg189
I00
sg190
I01
sg12
I01
sg14
(lp1789
VmaxScaleLimit.maxScaleXLimit
p1790
ag968
aVmaxScaleLimit.maxScaleZLimit
p1791
assVshear.shearYZ
p1792
(dp1793
S'isArray'
p1794
I00
sS'attrParentLongName'
p1795
Vshear
p1796
sS'attrChildrenNames'
p1797
(lp1798
sS'attrType'
p1799
Vdouble
p1800
sS'isMulti'
p1801
I00
sS'isCompound'
p1802
I00
sg12
I01
sS'isReadable'
p1803
I01
sg14
(lp1804
sS'isElement'
p1805
I00
ssVghosting
p1806
(dp1807
S'isArray'
p1808
I00
sS'attrType'
p1809
Vbool
p1810
sS'attrChildrenNames'
p1811
(lp1812
sS'isMulti'
p1813
I00
sS'isCompound'
p1814
I00
sg12
I01
sS'isReadable'
p1815
I01
sg14
(lp1816
sS'isElement'
p1817
I00
ssVtransMinusRotatePivot.transMinusRotatePivotZ
p1818
(dp1819
S'isArray'
p1820
I00
sS'attrParentLongName'
p1821
VtransMinusRotatePivot
p1822
sS'attrChildrenNames'
p1823
(lp1824
sS'attrType'
p1825
VdoubleLinear
p1826
sS'isMulti'
p1827
I00
sS'isCompound'
p1828
I00
sg12
I01
sS'isReadable'
p1829
I01
sg14
(lp1830
sS'isElement'
p1831
I00
ssVinheritsTransform
p1832
(dp1833
S'isArray'
p1834
I00
sS'attrType'
p1835
Vbool
p1836
sS'attrChildrenNames'
p1837
(lp1838
sS'isMulti'
p1839
I00
sS'isCompound'
p1840
I00
sg12
I01
sS'isReadable'
p1841
I01
sg14
(lp1842
sS'isElement'
p1843
I00
ssVtransMinusRotatePivot.transMinusRotatePivotX
p1844
(dp1845
S'isArray'
p1846
I00
sS'attrParentLongName'
p1847
VtransMinusRotatePivot
p1848
sS'attrChildrenNames'
p1849
(lp1850
sS'attrType'
p1851
VdoubleLinear
p1852
sS'isMulti'
p1853
I00
sS'isCompound'
p1854
I00
sg12
I01
sS'isReadable'
p1855
I01
sg14
(lp1856
sS'isElement'
p1857
I00
ssVtransMinusRotatePivot.transMinusRotatePivotY
p1858
(dp1859
S'isArray'
p1860
I00
sS'attrParentLongName'
p1861
VtransMinusRotatePivot
p1862
sS'attrChildrenNames'
p1863
(lp1864
sS'attrType'
p1865
VdoubleLinear
p1866
sS'isMulti'
p1867
I00
sS'isCompound'
p1868
I00
sg12
I01
sS'isReadable'
p1869
I01
sg14
(lp1870
sS'isElement'
p1871
I00
ssVisHistoricallyInteresting
p1872
(dp1873
S'isArray'
p1874
I00
sS'attrType'
p1875
Vbyte
p1876
sS'attrChildrenNames'
p1877
(lp1878
sS'isMulti'
p1879
I00
sS'isCompound'
p1880
I00
sg12
I00
sS'isReadable'
p1881
I00
sg14
(lp1882
sS'isElement'
p1883
I00
ssVrotationInterpolation
p1884
(dp1885
S'isArray'
p1886
I00
sS'attrType'
p1887
Venum
p1888
sS'attrChildrenNames'
p1889
(lp1890
sS'isMulti'
p1891
I00
sS'isCompound'
p1892
I00
sg12
I01
sS'isReadable'
p1893
I01
sg14
(lp1894
sS'isElement'
p1895
I00
ssVminScaleLimit.minScaleYLimit
p1896
(dp1897
g71
I00
sg187
Vdouble
p1898
sg189
I00
sg190
I00
sg12
I01
sg14
(lp1899
ssg625
(dp1900
g71
I00
sg187
VdoubleAngle
p1901
sg189
I00
sg190
I00
sg12
I01
sg14
(lp1902
ssVmaxRotLimit
p1903
(dp1904
g71
I00
sg187
Vdouble3
p1905
sg189
I00
sg190
I01
sg12
I01
sg14
(lp1906
VmaxRotLimit.maxRotXLimit
p1907
ag247
aVmaxRotLimit.maxRotZLimit
p1908
assVtarget[0]
p1909
(dp1910
g464
I00
sS'attrType'
p1911
VTdataCompound
p1912
sg465
(lp1913
Vtarget[0].targetTranslate
p1914
aVtarget[0].targetRotatePivot
p1915
aVtarget[0].targetRotateTranslate
p1916
aVtarget[0].targetParentMatrix
p1917
aVtarget[0].targetWeight
p1918
asS'isMulti'
p1919
I00
sg167
I00
sg80
(lp1920
Vtarget[0].targetTranslate
p1921
aVtarget[0].targetRotatePivot
p1922
aVtarget[0].targetRotateTranslate
p1923
aVtarget[0].targetParentMatrix
p1924
aVtarget[0].targetWeight
p1925
assg1091
(dp1926
g76
I00
sg72
I00
sg80
(lp1927
ssg1090
(dp1928
g76
I00
sg72
I00
sg80
(lp1929
ssg1092
(dp1930
g76
I00
sg72
I00
sg80
(lp1931
ssVbinMembership
p1932
(dp1933
g71
I00
sg187
Vstring
p1934
sg189
I00
sg190
I00
sg12
I01
sg14
(lp1935
ssVtarget.targetTranslateY
p1936
(dp1937
g84
Vtarget.targetTranslate
p1938
ssVtarget.targetTranslateX
p1939
(dp1940
g84
Vtarget.targetTranslate
p1941
ssVxformMatrix
p1942
(dp1943
S'isArray'
p1944
I00
sS'attrType'
p1945
Vmatrix
p1946
sS'attrChildrenNames'
p1947
(lp1948
sS'isMulti'
p1949
I00
sS'isCompound'
p1950
I00
sg12
I00
sS'isReadable'
p1951
I00
sg14
(lp1952
sS'isElement'
p1953
I00
ssVtarget.targetTranslateZ
p1954
(dp1955
g84
Vtarget.targetTranslate
p1956
ssVinstObjGroups[1]
p1957
(dp1958
g71
I00
sg72
I00
sg14
(lp1959
g1036
assVtranslate
p1960
(dp1961
S'isArray'
p1962
I00
sS'attrType'
p1963
Vdouble3
p1964
sS'attrChildrenNames'
p1965
(lp1966
Vtranslate.translateX
p1967
aVtranslate.translateY
p1968
aVtranslate.translateZ
p1969
asS'isMulti'
p1970
I00
sS'isCompound'
p1971
I01
sg12
I01
sS'isReadable'
p1972
I01
sg14
(lp1973
Vtranslate.translateX
p1974
aVtranslate.translateY
p1975
aVtranslate.translateZ
p1976
asS'isElement'
p1977
I00
ssg1180
(dp1978
g208
I00
sg72
I00
sg209
(lp1979
ssVtarget[0].targetRotateTranslate.targetRotateTranslateZ
p1980
(dp1981
S'isArray'
p1982
I00
sS'attrParentLongName'
p1983
Vtarget[0].targetRotateTranslate
p1984
sS'attrChildrenNames'
p1985
(lp1986
sS'attrType'
p1987
VdoubleLinear
p1988
sS'isMulti'
p1989
I00
sS'isCompound'
p1990
I00
sg167
I01
sS'isReadable'
p1991
I01
sg80
(lp1992
sS'isElement'
p1993
I00
ssVtarget[0].targetRotateTranslate.targetRotateTranslateY
p1994
(dp1995
S'isArray'
p1996
I00
sS'attrParentLongName'
p1997
Vtarget[0].targetRotateTranslate
p1998
sS'attrChildrenNames'
p1999
(lp2000
sS'attrType'
p2001
VdoubleLinear
p2002
sS'isMulti'
p2003
I00
sS'isCompound'
p2004
I00
sg167
I01
sS'isReadable'
p2005
I01
sg80
(lp2006
sS'isElement'
p2007
I00
ssVtarget[0].targetRotateTranslate.targetRotateTranslateX
p2008
(dp2009
S'isArray'
p2010
I00
sS'attrParentLongName'
p2011
Vtarget[0].targetRotateTranslate
p2012
sS'attrChildrenNames'
p2013
(lp2014
sS'attrType'
p2015
VdoubleLinear
p2016
sS'isMulti'
p2017
I00
sS'isCompound'
p2018
I00
sg167
I01
sS'isReadable'
p2019
I01
sg80
(lp2020
sS'isElement'
p2021
I00
ssVinstObjGroups.objectGroups
p2022
(dp2023
g84
VinstObjGroups
p2024
ssVdrawOverride
p2025
(dp2026
S'isArray'
p2027
I00
sS'attrType'
p2028
VTdataCompound
p2029
sS'attrChildrenNames'
p2030
(lp2031
VdrawOverride.overrideDisplayType
p2032
aVdrawOverride.overrideLevelOfDetail
p2033
aVdrawOverride.overrideShading
p2034
aVdrawOverride.overrideTexturing
p2035
aVdrawOverride.overridePlayback
p2036
aVdrawOverride.overrideEnabled
p2037
aVdrawOverride.overrideVisibility
p2038
aVdrawOverride.overrideColor
p2039
asS'isMulti'
p2040
I00
sS'isCompound'
p2041
I01
sg12
I00
sS'isReadable'
p2042
I00
sg14
(lp2043
VdrawOverride.overrideDisplayType
p2044
aVdrawOverride.overrideLevelOfDetail
p2045
aVdrawOverride.overrideShading
p2046
aVdrawOverride.overrideTexturing
p2047
aVdrawOverride.overridePlayback
p2048
aVdrawOverride.overrideEnabled
p2049
aVdrawOverride.overrideVisibility
p2050
aVdrawOverride.overrideColor
p2051
asS'isElement'
p2052
I00
ssVinstObjGroups[0].objectGroups
p2053
(dp2054
S'isArray'
p2055
I01
sS'attrParentLongName'
p2056
VinstObjGroups[0]
p2057
sS'attrType'
p2058
VTdataCompound
p2059
sg72
I00
sS'isReadable'
p2060
I00
sS'isElement'
p2061
I00
ssVshear.shearXZ
p2062
(dp2063
S'isArray'
p2064
I00
sS'attrParentLongName'
p2065
Vshear
p2066
sS'attrChildrenNames'
p2067
(lp2068
sS'attrType'
p2069
Vdouble
p2070
sS'isMulti'
p2071
I00
sS'isCompound'
p2072
I00
sg12
I01
sS'isReadable'
p2073
I01
sg14
(lp2074
sS'isElement'
p2075
I00
ssVdisplayLocalAxis
p2076
(dp2077
S'isArray'
p2078
I00
sS'attrType'
p2079
Vbool
p2080
sS'attrChildrenNames'
p2081
(lp2082
sS'isMulti'
p2083
I00
sS'isCompound'
p2084
I00
sg12
I01
sS'isReadable'
p2085
I01
sg14
(lp2086
sS'isElement'
p2087
I00
ssVparentMatrix[1]
p2088
(dp2089
g71
I00
sg72
I00
sg14
(lp2090
ssVinstObjGroups[0].objectGroups[0]
p2091
(dp2092
g71
I00
sg72
I00
sg14
(lp2093
VinstObjGroups[0].objectGroups[0].objectGrpCompList
p2094
aVinstObjGroups[0].objectGroups[0].objectGroupId
p2095
aVinstObjGroups[0].objectGroups[0].objectGrpColor
p2096
assVtarget.targetRotatePivotX
p2097
(dp2098
g84
Vtarget.targetRotatePivot
p2099
ssVtarget.targetRotatePivotY
p2100
(dp2101
g84
Vtarget.targetRotatePivot
p2102
ssVvisibility
p2103
(dp2104
S'isArray'
p2105
I00
sS'attrType'
p2106
Vbool
p2107
sS'attrChildrenNames'
p2108
(lp2109
sS'isMulti'
p2110
I00
sS'isCompound'
p2111
I00
sg12
I01
sS'isReadable'
p2112
I01
sg14
(lp2113
sS'isElement'
p2114
I00
ssVenableRestPosition
p2115
(dp2116
S'isArray'
p2117
I00
sS'attrType'
p2118
Vbool
p2119
sS'attrChildrenNames'
p2120
(lp2121
sS'isMulti'
p2122
I00
sS'isCompound'
p2123
I00
sg12
I01
sS'isReadable'
p2124
I01
sg14
(lp2125
sS'isElement'
p2126
I00
ssVmaxRotLimitEnable
p2127
(dp2128
g71
I00
sg189
I00
sg187
VTdataCompound
p2129
sg12
I00
sg14
(lp2130
VmaxRotLimitEnable.maxRotXLimitEnable
p2131
aVmaxRotLimitEnable.maxRotYLimitEnable
p2132
ag1170
assVscalePivotTranslate.scalePivotTranslateY
p2133
(dp2134
S'isArray'
p2135
I00
sS'attrParentLongName'
p2136
VscalePivotTranslate
p2137
sS'attrChildrenNames'
p2138
(lp2139
sS'attrType'
p2140
VdoubleLinear
p2141
sS'isMulti'
p2142
I00
sS'isCompound'
p2143
I00
sg12
I01
sS'isReadable'
p2144
I01
sg14
(lp2145
sS'isElement'
p2146
I00
ssVtarget[3].targetParentMatrix
p2147
(dp2148
g208
I00
sg72
I00
sg209
(lp2149
ssVconstraintTranslate
p2150
(dp2151
S'isArray'
p2152
I00
sS'attrType'
p2153
Vdouble3
p2154
sS'attrChildrenNames'
p2155
(lp2156
VconstraintTranslate.constraintTranslateX
p2157
aVconstraintTranslate.constraintTranslateY
p2158
aVconstraintTranslate.constraintTranslateZ
p2159
asS'isMulti'
p2160
I00
sS'isCompound'
p2161
I01
sg167
I01
sS'isReadable'
p2162
I01
sg80
(lp2163
VconstraintTranslate.constraintTranslateX
p2164
aVconstraintTranslate.constraintTranslateY
p2165
aVconstraintTranslate.constraintTranslateZ
p2166
asS'isElement'
p2167
I00
ssVghostCustomSteps.ghostPostSteps
p2168
(dp2169
S'isArray'
p2170
I00
sS'attrParentLongName'
p2171
VghostCustomSteps
p2172
sS'attrChildrenNames'
p2173
(lp2174
sS'attrType'
p2175
Vlong
p2176
sS'isMulti'
p2177
I00
sS'isCompound'
p2178
I00
sg12
I01
sS'isReadable'
p2179
I01
sg14
(lp2180
sS'isElement'
p2181
I00
ssg1907
(dp2182
g71
I00
sg187
VdoubleAngle
p2183
sg189
I00
sg190
I00
sg12
I01
sg14
(lp2184
ssg1791
(dp2185
g71
I00
sg187
Vdouble
p2186
sg189
I00
sg190
I00
sg12
I01
sg14
(lp2187
ssVuiTreatment
p2188
(dp2189
S'isArray'
p2190
I00
sS'attrType'
p2191
Venum
p2192
sS'attrChildrenNames'
p2193
(lp2194
sS'isMulti'
p2195
I00
sS'isCompound'
p2196
I00
sg12
I01
sS'isReadable'
p2197
I01
sg14
(lp2198
sS'isElement'
p2199
I00
ssVtarget.targetRotateTranslateY
p2200
(dp2201
g84
Vtarget.targetRotateTranslate
p2202
ssg598
(dp2203
g71
I00
sg187
VdoubleLinear
p2204
sg189
I00
sg190
I00
sg12
I01
sg14
(lp2205
ssg626
(dp2206
g71
I00
sg187
VdoubleAngle
p2207
sg189
I00
sg190
I00
sg12
I01
sg14
(lp2208
ssg1596
(dp2209
g71
I00
sg72
I00
sg14
(lp2210
ssVtarget
p2211
(dp2212
S'isArray'
p2213
I01
sS'attrType'
p2214
VTdataCompound
p2215
sS'isMulti'
p2216
I01
sg167
I00
sS'isReadable'
p2217
I00
sS'isElement'
p2218
I00
ssVisHierarchicalConnection
p2219
(dp2220
g71
I01
sg189
I01
sg12
I00
sg187
VTdataCompound
p2221
ssVtarget[1].targetRotatePivot
p2222
(dp2223
g76
I00
sg77
Vdouble3
p2224
sg79
I00
sg241
I01
sg72
I01
sg80
(lp2225
Vtarget[1].targetRotatePivot.targetRotatePivotX
p2226
aVtarget[1].targetRotatePivot.targetRotatePivotY
p2227
aVtarget[1].targetRotatePivot.targetRotatePivotZ
p2228
assVconstraintRotatePivot.constraintRotatePivotZ
p2229
(dp2230
S'isArray'
p2231
I00
sS'attrParentLongName'
p2232
VconstraintRotatePivot
p2233
sS'attrChildrenNames'
p2234
(lp2235
sS'attrType'
p2236
VdoubleLinear
p2237
sS'isMulti'
p2238
I00
sS'isCompound'
p2239
I00
sg167
I01
sS'isReadable'
p2240
I01
sg80
(lp2241
sS'isElement'
p2242
I00
ssVminScaleLimitEnable.minScaleYLimitEnable
p2243
(dp2244
g71
I00
sg187
Vbool
p2245
sg189
I00
sg190
I00
sg12
I01
sg14
(lp2246
ssVconstraintRotatePivot.constraintRotatePivotX
p2247
(dp2248
S'isArray'
p2249
I00
sS'attrParentLongName'
p2250
VconstraintRotatePivot
p2251
sS'attrChildrenNames'
p2252
(lp2253
sS'attrType'
p2254
VdoubleLinear
p2255
sS'isMulti'
p2256
I00
sS'isCompound'
p2257
I00
sg167
I01
sS'isReadable'
p2258
I01
sg80
(lp2259
sS'isElement'
p2260
I00
ssVrenderInfo.layerOverrideColor
p2261
(dp2262
S'isArray'
p2263
I00
sS'attrParentLongName'
p2264
VrenderInfo
p2265
sS'attrChildrenNames'
p2266
(lp2267
sS'attrType'
p2268
Vbyte
p2269
sS'isMulti'
p2270
I00
sS'isCompound'
p2271
I00
sg12
I00
sS'isReadable'
p2272
I00
sg14
(lp2273
sS'isElement'
p2274
I00
ssg1181
(dp2275
g208
I00
sg72
I00
sg209
(lp2276
ssVgeometry
p2277
(dp2278
S'isArray'
p2279
I00
sS'attrType'
p2280
NsS'attrChildrenNames'
p2281
(lp2282
sS'isMulti'
p2283
I00
sS'isCompound'
p2284
I00
sg12
I00
sS'isReadable'
p2285
I00
sg14
(lp2286
sS'isElement'
p2287
I00
ssVtarget[0].targetRotatePivot.targetRotatePivotX
p2288
(dp2289
S'isArray'
p2290
I00
sS'attrParentLongName'
p2291
Vtarget[0].targetRotatePivot
p2292
sS'attrChildrenNames'
p2293
(lp2294
sS'attrType'
p2295
VdoubleLinear
p2296
sS'isMulti'
p2297
I00
sS'isCompound'
p2298
I00
sg167
I01
sS'isReadable'
p2299
I01
sg80
(lp2300
sS'isElement'
p2301
I00
ssg2228
(dp2302
g76
I00
sg77
VdoubleLinear
p2303
sg79
I00
sg241
I00
sg72
I01
sg80
(lp2304
ssg1182
(dp2305
g208
I00
sg72
I00
sg209
(lp2306
ssg2226
(dp2307
g76
I00
sg77
VdoubleLinear
p2308
sg79
I00
sg241
I00
sg72
I01
sg80
(lp2309
ssVdisplayRotatePivot
p2310
(dp2311
S'isArray'
p2312
I00
sS'attrType'
p2313
Vbool
p2314
sS'attrChildrenNames'
p2315
(lp2316
sS'isMulti'
p2317
I00
sS'isCompound'
p2318
I00
sg12
I01
sS'isReadable'
p2319
I01
sg14
(lp2320
sS'isElement'
p2321
I00
ssVminScaleLimitEnable.minScaleZLimitEnable
p2322
(dp2323
g71
I00
sg187
Vbool
p2324
sg189
I00
sg190
I00
sg12
I01
sg14
(lp2325
ssg1695
(dp2326
g71
I00
sg187
Vbool
p2327
sg189
I00
sg190
I00
sg12
I01
sg14
(lp2328
ssVtarget[3]
p2329
(dp2330
g208
I00
sg72
I00
sg209
(lp2331
Vtarget[3].targetTranslate
p2332
ag1174
ag1177
ag2147
ag589
assg1790
(dp2333
g71
I00
sg187
Vdouble
p2334
sg189
I00
sg190
I00
sg12
I01
sg14
(lp2335
ssVmentalRayControls.miGeoShader
p2336
(dp2337
S'isArray'
p2338
I00
sS'attrParentLongName'
p2339
VmentalRayControls
p2340
sS'attrChildrenNames'
p2341
(lp2342
sS'attrType'
p2343
NsS'isMulti'
p2344
I00
sS'isCompound'
p2345
I00
sg12
I00
sS'isReadable'
p2346
I00
sg14
(lp2347
sS'isElement'
p2348
I00
ssVboundingBox.boundingBoxMax.boundingBoxMaxX
p2349
(dp2350
S'isArray'
p2351
I00
sS'attrParentLongName'
p2352
VboundingBox.boundingBoxMax
p2353
sS'attrChildrenNames'
p2354
(lp2355
sS'attrType'
p2356
VdoubleLinear
p2357
sS'isMulti'
p2358
I00
sS'isCompound'
p2359
I00
sg12
I01
sS'isReadable'
p2360
I01
sg14
(lp2361
sS'isElement'
p2362
I00
ssVmaxScaleLimitEnable.maxScaleZLimitEnable
p2363
(dp2364
g71
I00
sg187
Vbool
p2365
sg189
I00
sg190
I00
sg12
I01
sg14
(lp2366
ssVboundingBox.boundingBoxMin
p2367
(dp2368
S'isArray'
p2369
I00
sS'attrParentLongName'
p2370
VboundingBox
p2371
sS'attrChildrenNames'
p2372
(lp2373
VboundingBox.boundingBoxMin.boundingBoxMinX
p2374
aVboundingBox.boundingBoxMin.boundingBoxMinY
p2375
aVboundingBox.boundingBoxMin.boundingBoxMinZ
p2376
asS'attrType'
p2377
Vdouble3
p2378
sS'isMulti'
p2379
I00
sS'isCompound'
p2380
I01
sg12
I01
sS'isReadable'
p2381
I01
sg14
(lp2382
VboundingBox.boundingBoxMin.boundingBoxMinX
p2383
aVboundingBox.boundingBoxMin.boundingBoxMinY
p2384
aVboundingBox.boundingBoxMin.boundingBoxMinZ
p2385
asS'isElement'
p2386
I00
ssVscalePivot
p2387
(dp2388
S'isArray'
p2389
I00
sS'attrType'
p2390
Vdouble3
p2391
sS'attrChildrenNames'
p2392
(lp2393
VscalePivot.scalePivotX
p2394
aVscalePivot.scalePivotY
p2395
aVscalePivot.scalePivotZ
p2396
asS'isMulti'
p2397
I00
sS'isCompound'
p2398
I01
sg12
I01
sS'isReadable'
p2399
I01
sg14
(lp2400
VscalePivot.scalePivotX
p2401
aVscalePivot.scalePivotY
p2402
aVscalePivot.scalePivotZ
p2403
asS'isElement'
p2404
I00
ssVspecifiedManipLocation
p2405
(dp2406
S'isArray'
p2407
I00
sS'attrType'
p2408
NsS'attrChildrenNames'
p2409
(lp2410
sS'isMulti'
p2411
I00
sS'isCompound'
p2412
I00
sg12
I00
sS'isReadable'
p2413
I00
sg14
(lp2414
sS'isElement'
p2415
I00
ssVmentalRayControls.miCaustic
p2416
(dp2417
S'isArray'
p2418
I00
sS'attrParentLongName'
p2419
VmentalRayControls
p2420
sS'attrChildrenNames'
p2421
(lp2422
sS'attrType'
p2423
Venum
p2424
sS'isMulti'
p2425
I00
sS'isCompound'
p2426
I00
sg12
I01
sS'isReadable'
p2427
I01
sg14
(lp2428
sS'isElement'
p2429
I00
ssg905
(dp2430
g76
I00
sg77
VdoubleLinear
p2431
sg79
I00
sg241
I00
sg72
I01
sg80
(lp2432
ssg906
(dp2433
g76
I00
sg77
VdoubleLinear
p2434
sg79
I00
sg241
I00
sg72
I01
sg80
(lp2435
ssVmentalRayControls
p2436
(dp2437
S'isArray'
p2438
I00
sS'attrType'
p2439
VTdataCompound
p2440
sS'attrChildrenNames'
p2441
(lp2442
VmentalRayControls.miDeriveFromMaya
p2443
aVmentalRayControls.miHide
p2444
aVmentalRayControls.miVisible
p2445
aVmentalRayControls.miTrace
p2446
aVmentalRayControls.miShadow
p2447
aVmentalRayControls.miCaustic
p2448
aVmentalRayControls.miGlobillum
p2449
aVmentalRayControls.miExportGeoShader
p2450
aVmentalRayControls.miGeoShader
p2451
aVmentalRayControls.miProxyRenderable
p2452
asS'isMulti'
p2453
I00
sS'isCompound'
p2454
I01
sg12
I00
sS'isReadable'
p2455
I00
sg14
(lp2456
VmentalRayControls.miDeriveFromMaya
p2457
aVmentalRayControls.miHide
p2458
aVmentalRayControls.miVisible
p2459
aVmentalRayControls.miTrace
p2460
aVmentalRayControls.miShadow
p2461
aVmentalRayControls.miCaustic
p2462
aVmentalRayControls.miGlobillum
p2463
aVmentalRayControls.miExportGeoShader
p2464
aVmentalRayControls.miGeoShader
p2465
aVmentalRayControls.miProxyRenderable
p2466
asS'isElement'
p2467
I00
ssVrenderInfo
p2468
(dp2469
S'isArray'
p2470
I00
sS'attrType'
p2471
VTdataCompound
p2472
sS'attrChildrenNames'
p2473
(lp2474
VrenderInfo.identification
p2475
aVrenderInfo.layerRenderable
p2476
aVrenderInfo.layerOverrideColor
p2477
asS'isMulti'
p2478
I00
sS'isCompound'
p2479
I01
sg12
I00
sS'isReadable'
p2480
I00
sg14
(lp2481
VrenderInfo.identification
p2482
aVrenderInfo.layerRenderable
p2483
aVrenderInfo.layerOverrideColor
p2484
asS'isElement'
p2485
I00
ssVworldInverseMatrix[0]
p2486
(dp2487
g71
I00
sg72
I00
sg14
(lp2488
ssVisHierarchicalConnection[1]
p2489
(dp2490
g71
I00
sg72
I00
sg14
(lp2491
ssVboundingBox.boundingBoxMax.boundingBoxMaxY
p2492
(dp2493
S'isArray'
p2494
I00
sS'attrParentLongName'
p2495
VboundingBox.boundingBoxMax
p2496
sS'attrChildrenNames'
p2497
(lp2498
sS'attrType'
p2499
VdoubleLinear
p2500
sS'isMulti'
p2501
I00
sS'isCompound'
p2502
I00
sg12
I01
sS'isReadable'
p2503
I01
sg14
(lp2504
sS'isElement'
p2505
I00
ssVtarget[0].targetTranslate.targetTranslateX
p2506
(dp2507
S'isArray'
p2508
I00
sS'attrParentLongName'
p2509
Vtarget[0].targetTranslate
p2510
sS'attrChildrenNames'
p2511
(lp2512
sS'attrType'
p2513
VdoubleLinear
p2514
sS'isMulti'
p2515
I00
sS'isCompound'
p2516
I00
sg167
I01
sS'isReadable'
p2517
I01
sg80
(lp2518
sS'isElement'
p2519
I00
ssVpublishedNodeInfo[0].isHierarchicalNode
p2520
(dp2521
S'isArray'
p2522
I00
sS'attrParentLongName'
p2523
VpublishedNodeInfo[0]
p2524
sS'attrChildrenNames'
p2525
(lp2526
sS'attrType'
p2527
Vbool
p2528
sg72
I00
sS'isReadable'
p2529
I01
sg14
(lp2530
sS'isElement'
p2531
I00
ssVboundingBox.boundingBoxMax.boundingBoxMaxZ
p2532
(dp2533
S'isArray'
p2534
I00
sS'attrParentLongName'
p2535
VboundingBox.boundingBoxMax
p2536
sS'attrChildrenNames'
p2537
(lp2538
sS'attrType'
p2539
VdoubleLinear
p2540
sS'isMulti'
p2541
I00
sS'isCompound'
p2542
I00
sg12
I01
sS'isReadable'
p2543
I01
sg14
(lp2544
sS'isElement'
p2545
I00
ssg2132
(dp2546
g71
I00
sg187
Vbool
p2547
sg189
I00
sg190
I00
sg12
I01
sg14
(lp2548
ssVminScaleLimit.minScaleXLimit
p2549
(dp2550
g71
I00
sg187
Vdouble
p2551
sg189
I00
sg190
I00
sg12
I01
sg14
(lp2552
ssVmaxScaleLimitEnable
p2553
(dp2554
g71
I00
sg189
I00
sg187
VTdataCompound
p2555
sg12
I00
sg14
(lp2556
VmaxScaleLimitEnable.maxScaleXLimitEnable
p2557
ag1387
ag2363
assVminScaleLimit
p2558
(dp2559
g71
I00
sg187
Vdouble3
p2560
sg189
I00
sg190
I01
sg12
I01
sg14
(lp2561
g2549
ag1896
ag1235
assg1314
(dp2562
g76
I00
sg77
VdoubleLinear
p2563
sS'isMulti'
p2564
I00
sS'isCompound'
p2565
I00
sg72
I01
sg80
(lp2566
ssVisCollapsed
p2567
(dp2568
S'isArray'
p2569
I00
sS'attrType'
p2570
Vbool
p2571
sS'attrChildrenNames'
p2572
(lp2573
sS'isMulti'
p2574
I00
sS'isCompound'
p2575
I00
sg12
I01
sS'isReadable'
p2576
I01
sg14
(lp2577
sS'isElement'
p2578
I00
ssVboundingBox.boundingBoxSize.boundingBoxSizeX
p2579
(dp2580
S'isArray'
p2581
I00
sS'attrParentLongName'
p2582
VboundingBox.boundingBoxSize
p2583
sS'attrChildrenNames'
p2584
(lp2585
sS'attrType'
p2586
VdoubleLinear
p2587
sS'isMulti'
p2588
I00
sS'isCompound'
p2589
I00
sg12
I01
sS'isReadable'
p2590
I01
sg14
(lp2591
sS'isElement'
p2592
I00
ssg907
(dp2593
g76
I00
sg77
VdoubleLinear
p2594
sg79
I00
sg241
I00
sg72
I01
sg80
(lp2595
ssVboundingBox.boundingBoxSize.boundingBoxSizeZ
p2596
(dp2597
S'isArray'
p2598
I00
sS'attrParentLongName'
p2599
VboundingBox.boundingBoxSize
p2600
sS'attrChildrenNames'
p2601
(lp2602
sS'attrType'
p2603
VdoubleLinear
p2604
sS'isMulti'
p2605
I00
sS'isCompound'
p2606
I00
sg12
I01
sS'isReadable'
p2607
I01
sg14
(lp2608
sS'isElement'
p2609
I00
ssVlodVisibility
p2610
(dp2611
S'isArray'
p2612
I00
sS'attrType'
p2613
Vbool
p2614
sS'attrChildrenNames'
p2615
(lp2616
sS'isMulti'
p2617
I00
sS'isCompound'
p2618
I00
sg12
I01
sS'isReadable'
p2619
I01
sg14
(lp2620
sS'isElement'
p2621
I00
ssVshear.shearXY
p2622
(dp2623
S'isArray'
p2624
I00
sS'attrParentLongName'
p2625
Vshear
p2626
sS'attrChildrenNames'
p2627
(lp2628
sS'attrType'
p2629
Vdouble
p2630
sS'isMulti'
p2631
I00
sS'isCompound'
p2632
I00
sg12
I01
sS'isReadable'
p2633
I01
sg14
(lp2634
sS'isElement'
p2635
I00
ssVmentalRayControls.miShadow
p2636
(dp2637
S'isArray'
p2638
I00
sS'attrParentLongName'
p2639
VmentalRayControls
p2640
sS'attrChildrenNames'
p2641
(lp2642
sS'attrType'
p2643
Venum
p2644
sS'isMulti'
p2645
I00
sS'isCompound'
p2646
I00
sg12
I01
sS'isReadable'
p2647
I01
sg14
(lp2648
sS'isElement'
p2649
I00
ssVghostingControl
p2650
(dp2651
S'isArray'
p2652
I00
sS'attrType'
p2653
Venum
p2654
sS'attrChildrenNames'
p2655
(lp2656
sS'isMulti'
p2657
I00
sS'isCompound'
p2658
I00
sg12
I01
sS'isReadable'
p2659
I01
sg14
(lp2660
sS'isElement'
p2661
I00
ssVboundingBox
p2662
(dp2663
S'isArray'
p2664
I00
sS'attrType'
p2665
VTdataCompound
p2666
sS'attrChildrenNames'
p2667
(lp2668
VboundingBox.boundingBoxMin
p2669
aVboundingBox.boundingBoxMax
p2670
aVboundingBox.boundingBoxSize
p2671
asS'isMulti'
p2672
I00
sS'isCompound'
p2673
I01
sg12
I00
sS'isReadable'
p2674
I00
sg14
(lp2675
VboundingBox.boundingBoxMin
p2676
aVboundingBox.boundingBoxMax
p2677
aVboundingBox.boundingBoxSize
p2678
asS'isElement'
p2679
I00
ssg597
(dp2680
g71
I00
sg187
VdoubleLinear
p2681
sg189
I00
sg190
I00
sg12
I01
sg14
(lp2682
ssVworldInverseMatrix
p2683
(dp2684
S'isArray'
p2685
I01
sS'attrType'
p2686
Vmatrix
p2687
sS'isMulti'
p2688
I01
sg12
I00
sS'isReadable'
p2689
I00
sS'isElement'
p2690
I00
ssVisHierarchicalConnection[0]
p2691
(dp2692
g71
I00
sg72
I00
sg14
(lp2693
ssVshowManipDefault
p2694
(dp2695
S'isArray'
p2696
I00
sS'attrType'
p2697
Venum
p2698
sS'attrChildrenNames'
p2699
(lp2700
sS'isMulti'
p2701
I00
sS'isCompound'
p2702
I00
sg12
I01
sS'isReadable'
p2703
I01
sg14
(lp2704
sS'isElement'
p2705
I00
ssVinstObjGroups.objectGroups.objectGroupId
p2706
(dp2707
g84
VinstObjGroups.objectGroups
p2708
ssg1316
(dp2709
g76
I00
sg77
VdoubleLinear
p2710
sg2564
I00
sg2565
I00
sg72
I01
sg80
(lp2711
ssVminScaleLimitEnable
p2712
(dp2713
g71
I00
sg189
I00
sg187
VTdataCompound
p2714
sg12
I00
sg14
(lp2715
g243
ag2243
ag2322
assg1908
(dp2716
g71
I00
sg187
VdoubleAngle
p2717
sg189
I00
sg190
I00
sg12
I01
sg14
(lp2718
ssg1315
(dp2719
g76
I00
sg77
VdoubleLinear
p2720
sg2564
I00
sg2565
I00
sg72
I01
sg80
(lp2721
ssVtarget.targetTranslate
p2722
(dp2723
S'attrParentLongName'
p2724
Vtarget[0]
p2725
sS'isElement'
p2726
I00
ssVdrawOverride.overrideDisplayType
p2727
(dp2728
S'isArray'
p2729
I00
sS'attrParentLongName'
p2730
VdrawOverride
p2731
sS'attrChildrenNames'
p2732
(lp2733
sS'attrType'
p2734
Venum
p2735
sS'isMulti'
p2736
I00
sS'isCompound'
p2737
I00
sg12
I01
sS'isReadable'
p2738
I01
sg14
(lp2739
sS'isElement'
p2740
I00
ssg2557
(dp2741
g71
I00
sg187
Vbool
p2742
sg189
I00
sg190
I00
sg12
I01
sg14
(lp2743
ssg473
(dp2744
g76
I00
sg72
I00
sg80
(lp2745
g635
ag632
ag638
assg477
(dp2746
g76
I00
sg72
I00
sg80
(lp2747
ssVnodeState
p2748
(dp2749
S'isArray'
p2750
I00
sS'attrType'
p2751
Venum
p2752
sS'attrChildrenNames'
p2753
(lp2754
sS'isMulti'
p2755
I00
sS'isCompound'
p2756
I00
sg12
I01
sS'isReadable'
p2757
I01
sg14
(lp2758
sS'isElement'
p2759
I00
ssVpublishedNodeInfo.isHierarchicalNode
p2760
(dp2761
g84
VpublishedNodeInfo
p2762
ssVrenderLayerInfo.renderLayerColor
p2763
(dp2764
g84
VrenderLayerInfo
p2765
ssVrenderInfo.identification
p2766
(dp2767
S'isArray'
p2768
I00
sS'attrParentLongName'
p2769
VrenderInfo
p2770
sS'attrChildrenNames'
p2771
(lp2772
sS'attrType'
p2773
Vshort
p2774
sS'isMulti'
p2775
I00
sS'isCompound'
p2776
I00
sg12
I01
sS'isReadable'
p2777
I01
sg14
(lp2778
sS'isElement'
p2779
I00
ssVrenderLayerInfo[0].renderLayerColor
p2780
(dp2781
S'isArray'
p2782
I00
sS'attrParentLongName'
p2783
VrenderLayerInfo[0]
p2784
sS'attrChildrenNames'
p2785
(lp2786
sS'attrType'
p2787
Vbyte
p2788
sg72
I00
sS'isReadable'
p2789
I00
sg14
(lp2790
sS'isElement'
p2791
I00
ssVboundingBox.boundingBoxSize.boundingBoxSizeY
p2792
(dp2793
S'isArray'
p2794
I00
sS'attrParentLongName'
p2795
VboundingBox.boundingBoxSize
p2796
sS'attrChildrenNames'
p2797
(lp2798
sS'attrType'
p2799
VdoubleLinear
p2800
sS'isMulti'
p2801
I00
sS'isCompound'
p2802
I00
sg12
I01
sS'isReadable'
p2803
I01
sg14
(lp2804
sS'isElement'
p2805
I00
ssVconstraintRotateTranslate
p2806
(dp2807
S'isArray'
p2808
I00
sS'attrType'
p2809
Vdouble3
p2810
sS'attrChildrenNames'
p2811
(lp2812
VconstraintRotateTranslate.constraintRotateTranslateX
p2813
aVconstraintRotateTranslate.constraintRotateTranslateY
p2814
aVconstraintRotateTranslate.constraintRotateTranslateZ
p2815
asS'isMulti'
p2816
I00
sS'isCompound'
p2817
I01
sg167
I01
sS'isReadable'
p2818
I01
sg80
(lp2819
VconstraintRotateTranslate.constraintRotateTranslateX
p2820
aVconstraintRotateTranslate.constraintRotateTranslateY
p2821
aVconstraintRotateTranslate.constraintRotateTranslateZ
p2822
asS'isElement'
p2823
I00
ssVmentalRayControls.miExportGeoShader
p2824
(dp2825
S'isArray'
p2826
I00
sS'attrParentLongName'
p2827
VmentalRayControls
p2828
sS'attrChildrenNames'
p2829
(lp2830
sS'attrType'
p2831
Vbool
p2832
sS'isMulti'
p2833
I00
sS'isCompound'
p2834
I00
sg12
I01
sS'isReadable'
p2835
I01
sg14
(lp2836
sS'isElement'
p2837
I00
ssVrenderLayerInfo[1]
p2838
(dp2839
g71
I00
sg72
I00
sg14
(lp2840
g665
aVrenderLayerInfo[1].renderLayerRenderable
p2841
ag269
assVghostCustomSteps.ghostStepSize
p2842
(dp2843
S'isArray'
p2844
I00
sS'attrParentLongName'
p2845
VghostCustomSteps
p2846
sS'attrChildrenNames'
p2847
(lp2848
sS'attrType'
p2849
Vlong
p2850
sS'isMulti'
p2851
I00
sS'isCompound'
p2852
I00
sg12
I01
sS'isReadable'
p2853
I01
sg14
(lp2854
sS'isElement'
p2855
I00
ssVdrawOverride.overridePlayback
p2856
(dp2857
S'isArray'
p2858
I00
sS'attrParentLongName'
p2859
VdrawOverride
p2860
sS'attrChildrenNames'
p2861
(lp2862
sS'attrType'
p2863
Vbool
p2864
sS'isMulti'
p2865
I00
sS'isCompound'
p2866
I00
sg12
I01
sS'isReadable'
p2867
I01
sg14
(lp2868
sS'isElement'
p2869
I00
ssVtarget[3].targetTranslate.targetTranslateX
p2870
(dp2871
g208
I00
sg72
I00
sg209
(lp2872
ssVtarget[3].targetTranslate.targetTranslateY
p2873
(dp2874
g208
I00
sg72
I00
sg209
(lp2875
ssVtarget[3].targetTranslate.targetTranslateZ
p2876
(dp2877
g208
I00
sg72
I00
sg209
(lp2878
ssg2227
(dp2879
g76
I00
sg77
VdoubleLinear
p2880
sg79
I00
sg241
I00
sg72
I01
sg80
(lp2881
ssVrenderLayerInfo
p2882
(dp2883
S'isArray'
p2884
I01
sS'attrType'
p2885
VTdataCompound
p2886
sS'isMulti'
p2887
I01
sg12
I00
sS'isReadable'
p2888
I00
sS'isElement'
p2889
I00
ssVblackBox
p2890
(dp2891
S'isArray'
p2892
I00
sS'attrType'
p2893
Vbool
p2894
sS'attrChildrenNames'
p2895
(lp2896
sS'isMulti'
p2897
I00
sS'isCompound'
p2898
I00
sg12
I01
sS'isReadable'
p2899
I01
sg14
(lp2900
sS'isElement'
p2901
I00
ssVworldMatrix[1]
p2902
(dp2903
g71
I00
sg72
I00
sg14
(lp2904
ssVparentMatrix
p2905
(dp2906
S'isArray'
p2907
I01
sS'attrType'
p2908
Vmatrix
p2909
sS'isMulti'
p2910
I01
sg12
I00
sS'isReadable'
p2911
I00
sS'isElement'
p2912
I00
ssVscalePivotTranslate.scalePivotTranslateZ
p2913
(dp2914
S'isArray'
p2915
I00
sS'attrParentLongName'
p2916
VscalePivotTranslate
p2917
sS'attrChildrenNames'
p2918
(lp2919
sS'attrType'
p2920
VdoubleLinear
p2921
sS'isMulti'
p2922
I00
sS'isCompound'
p2923
I00
sg12
I01
sS'isReadable'
p2924
I01
sg14
(lp2925
sS'isElement'
p2926
I00
ssVtarget[1]
p2927
(dp2928
g464
I00
sg77
VTdataCompound
p2929
sg465
(lp2930
Vtarget[1].targetTranslate
p2931
aVtarget[1].targetRotatePivot
p2932
aVtarget[1].targetRotateTranslate
p2933
aVtarget[1].targetParentMatrix
p2934
aVtarget[1].targetWeight
p2935
asg79
I00
sg72
I00
sg80
(lp2936
g1310
ag2222
ag901
ag74
ag238
assVtarget[0].targetRotatePivot.targetRotatePivotY
p2937
(dp2938
S'isArray'
p2939
I00
sS'attrParentLongName'
p2940
Vtarget[0].targetRotatePivot
p2941
sS'attrChildrenNames'
p2942
(lp2943
sS'attrType'
p2944
VdoubleLinear
p2945
sS'isMulti'
p2946
I00
sS'isCompound'
p2947
I00
sg167
I01
sS'isReadable'
p2948
I01
sg80
(lp2949
sS'isElement'
p2950
I00
ssVtarget[0].targetParentMatrix
p2951
(dp2952
S'isArray'
p2953
I00
sS'attrParentLongName'
p2954
Vtarget[0]
p2955
sS'attrChildrenNames'
p2956
(lp2957
sS'attrType'
p2958
Vmatrix
p2959
sS'isMulti'
p2960
I00
sS'isCompound'
p2961
I00
sg167
I00
sS'isReadable'
p2962
I00
sg80
(lp2963
sS'isElement'
p2964
I00
ssVcenter
p2965
(dp2966
S'isArray'
p2967
I00
sS'attrType'
p2968
Vdouble3
p2969
sS'attrChildrenNames'
p2970
(lp2971
Vcenter.boundingBoxCenterX
p2972
aVcenter.boundingBoxCenterY
p2973
aVcenter.boundingBoxCenterZ
p2974
asS'isMulti'
p2975
I00
sS'isCompound'
p2976
I01
sg12
I01
sS'isReadable'
p2977
I01
sg14
(lp2978
Vcenter.boundingBoxCenterX
p2979
aVcenter.boundingBoxCenterY
p2980
aVcenter.boundingBoxCenterZ
p2981
asS'isElement'
p2982
I00
ssg2131
(dp2983
g71
I00
sg187
Vbool
p2984
sg189
I00
sg190
I00
sg12
I01
sg14
(lp2985
ssVrenderLayerInfo[0].renderLayerId
p2986
(dp2987
S'isArray'
p2988
I00
sS'attrParentLongName'
p2989
VrenderLayerInfo[0]
p2990
sS'attrChildrenNames'
p2991
(lp2992
sS'attrType'
p2993
Vshort
p2994
sg72
I00
sS'isReadable'
p2995
I01
sg14
(lp2996
sS'isElement'
p2997
I00
ssVmentalRayControls.miProxyRenderable
p2998
(dp2999
S'isArray'
p3000
I00
sS'attrParentLongName'
p3001
VmentalRayControls
p3002
sS'attrChildrenNames'
p3003
(lp3004
sS'attrType'
p3005
Vbool
p3006
sS'isMulti'
p3007
I00
sS'isCompound'
p3008
I00
sg12
I01
sS'isReadable'
p3009
I01
sg14
(lp3010
sS'isElement'
p3011
I00
ssVghostFrames
p3012
(dp3013
S'isArray'
p3014
I00
sS'attrType'
p3015
NsS'attrChildrenNames'
p3016
(lp3017
sS'isMulti'
p3018
I00
sS'isCompound'
p3019
I00
sg12
I00
sS'isReadable'
p3020
I00
sg14
(lp3021
sS'isElement'
p3022
I00
ssVtemplateName
p3023
(dp3024
S'isArray'
p3025
I00
sS'attrType'
p3026
Vstring
p3027
sS'attrChildrenNames'
p3028
(lp3029
sS'isMulti'
p3030
I00
sS'isCompound'
p3031
I00
sg12
I01
sS'isReadable'
p3032
I01
sg14
(lp3033
sS'isElement'
p3034
I00
ssVrestTranslate.restTranslateZ
p3035
(dp3036
S'isArray'
p3037
I00
sS'attrParentLongName'
p3038
VrestTranslate
p3039
sS'attrChildrenNames'
p3040
(lp3041
sS'attrType'
p3042
VdoubleLinear
p3043
sS'isMulti'
p3044
I00
sS'isCompound'
p3045
I00
sg12
I01
sS'isReadable'
p3046
I01
sg14
(lp3047
sS'isElement'
p3048
I00
ssg2332
(dp3049
g208
I00
sg72
I00
sg209
(lp3050
g2870
ag2873
ag2876
assVrestTranslate.restTranslateX
p3051
(dp3052
S'isArray'
p3053
I00
sS'attrParentLongName'
p3054
VrestTranslate
p3055
sS'attrChildrenNames'
p3056
(lp3057
sS'attrType'
p3058
VdoubleLinear
p3059
sS'isMulti'
p3060
I00
sS'isCompound'
p3061
I00
sg12
I01
sS'isReadable'
p3062
I01
sg14
(lp3063
sS'isElement'
p3064
I00
ssVrestTranslate.restTranslateY
p3065
(dp3066
S'isArray'
p3067
I00
sS'attrParentLongName'
p3068
VrestTranslate
p3069
sS'attrChildrenNames'
p3070
(lp3071
sS'attrType'
p3072
VdoubleLinear
p3073
sS'isMulti'
p3074
I00
sS'isCompound'
p3075
I00
sg12
I01
sS'isReadable'
p3076
I01
sg14
(lp3077
sS'isElement'
p3078
I00
ssVminTransLimitEnable
p3079
(dp3080
g71
I00
sg189
I00
sg187
VTdataCompound
p3081
sg12
I00
sg14
(lp3082
g1363
ag185
ag513
assVviewMode
p3083
(dp3084
S'isArray'
p3085
I00
sS'attrType'
p3086
Venum
p3087
sS'attrChildrenNames'
p3088
(lp3089
sS'isMulti'
p3090
I00
sS'isCompound'
p3091
I00
sg12
I01
sS'isReadable'
p3092
I01
sg14
(lp3093
sS'isElement'
p3094
I00
ssVrotatePivotTranslate
p3095
(dp3096
S'isArray'
p3097
I00
sS'attrType'
p3098
Vdouble3
p3099
sS'attrChildrenNames'
p3100
(lp3101
VrotatePivotTranslate.rotatePivotTranslateX
p3102
aVrotatePivotTranslate.rotatePivotTranslateY
p3103
aVrotatePivotTranslate.rotatePivotTranslateZ
p3104
asS'isMulti'
p3105
I00
sS'isCompound'
p3106
I01
sg12
I01
sS'isReadable'
p3107
I01
sg14
(lp3108
VrotatePivotTranslate.rotatePivotTranslateX
p3109
aVrotatePivotTranslate.rotatePivotTranslateY
p3110
aVrotatePivotTranslate.rotatePivotTranslateZ
p3111
asS'isElement'
p3112
I00
ssVworldMatrix[0]
p3113
(dp3114
g71
I00
sg72
I00
sg14
(lp3115
ssVinstObjGroups[0].objectGroups[0].objectGrpColor
p3116
(dp3117
S'isArray'
p3118
I00
sS'attrParentLongName'
p3119
VinstObjGroups[0].objectGroups[0]
p3120
sS'attrChildrenNames'
p3121
(lp3122
sS'attrType'
p3123
Vshort
p3124
sg72
I00
sS'isReadable'
p3125
I01
sg14
(lp3126
sS'isElement'
p3127
I00
ssVrotate.rotateX
p3128
(dp3129
S'isArray'
p3130
I00
sS'attrParentLongName'
p3131
Vrotate
p3132
sS'attrChildrenNames'
p3133
(lp3134
sS'attrType'
p3135
VdoubleAngle
p3136
sS'isMulti'
p3137
I00
sS'isCompound'
p3138
I00
sg12
I01
sS'isReadable'
p3139
I01
sg14
(lp3140
sS'isElement'
p3141
I00
ssVrotate.rotateY
p3142
(dp3143
S'isArray'
p3144
I00
sS'attrParentLongName'
p3145
Vrotate
p3146
sS'attrChildrenNames'
p3147
(lp3148
sS'attrType'
p3149
VdoubleAngle
p3150
sS'isMulti'
p3151
I00
sS'isCompound'
p3152
I00
sg12
I01
sS'isReadable'
p3153
I01
sg14
(lp3154
sS'isElement'
p3155
I00
ssVcaching
p3156
(dp3157
S'isArray'
p3158
I00
sS'attrType'
p3159
Vbool
p3160
sS'attrChildrenNames'
p3161
(lp3162
sS'isMulti'
p3163
I00
sS'isCompound'
p3164
I00
sg12
I01
sS'isReadable'
p3165
I01
sg14
(lp3166
sS'isElement'
p3167
I00
ssVinverseMatrix
p3168
(dp3169
S'isArray'
p3170
I00
sS'attrType'
p3171
Vmatrix
p3172
sS'attrChildrenNames'
p3173
(lp3174
sS'isMulti'
p3175
I00
sS'isCompound'
p3176
I00
sg12
I00
sS'isReadable'
p3177
I00
sg14
(lp3178
sS'isElement'
p3179
I00
ssVcenter.boundingBoxCenterY
p3180
(dp3181
S'isArray'
p3182
I00
sS'attrParentLongName'
p3183
Vcenter
p3184
sS'attrChildrenNames'
p3185
(lp3186
sS'attrType'
p3187
VdoubleLinear
p3188
sS'isMulti'
p3189
I00
sS'isCompound'
p3190
I00
sg12
I01
sS'isReadable'
p3191
I01
sg14
(lp3192
sS'isElement'
p3193
I00
ssVcenter.boundingBoxCenterZ
p3194
(dp3195
S'isArray'
p3196
I00
sS'attrParentLongName'
p3197
Vcenter
p3198
sS'attrChildrenNames'
p3199
(lp3200
sS'attrType'
p3201
VdoubleLinear
p3202
sS'isMulti'
p3203
I00
sS'isCompound'
p3204
I00
sg12
I01
sS'isReadable'
p3205
I01
sg14
(lp3206
sS'isElement'
p3207
I00
ssg2841
(dp3208
g71
I00
sg72
I00
sg14
(lp3209
ssVcenter.boundingBoxCenterX
p3210
(dp3211
S'isArray'
p3212
I00
sS'attrParentLongName'
p3213
Vcenter
p3214
sS'attrChildrenNames'
p3215
(lp3216
sS'attrType'
p3217
VdoubleLinear
p3218
sS'isMulti'
p3219
I00
sS'isCompound'
p3220
I00
sg12
I01
sS'isReadable'
p3221
I01
sg14
(lp3222
sS'isElement'
p3223
I00
ssVmentalRayControls.miGlobillum
p3224
(dp3225
S'isArray'
p3226
I00
sS'attrParentLongName'
p3227
VmentalRayControls
p3228
sS'attrChildrenNames'
p3229
(lp3230
sS'attrType'
p3231
Venum
p3232
sS'isMulti'
p3233
I00
sS'isCompound'
p3234
I00
sg12
I01
sS'isReadable'
p3235
I01
sg14
(lp3236
sS'isElement'
p3237
I00
ss.