(dp0
Vresult.normalizedTangent.normalizedTangentY
p1
(dp2
S'isArray'
p3
I00
sS'attrParentLongName'
p4
Vresult.normalizedTangent
p5
sS'attrChildrenNames'
p6
(lp7
sS'isMulti'
p8
I00
sS'isCompound'
p9
I00
sS'isElement'
p10
I00
ssVresult.curvatureRadius
p11
(dp12
S'isArray'
p13
I00
sS'attrParentLongName'
p14
Vresult
p15
sS'attrChildrenNames'
p16
(lp17
sS'isMulti'
p18
I00
sS'isCompound'
p19
I00
sS'isElement'
p20
I00
ssVresult.tangent.tangentZ
p21
(dp22
S'isArray'
p23
I00
sS'attrParentLongName'
p24
Vresult.tangent
p25
sS'attrChildrenNames'
p26
(lp27
sS'isMulti'
p28
I00
sS'isCompound'
p29
I00
sS'isElement'
p30
I00
ssVresult.position.positionX
p31
(dp32
S'isArray'
p33
I00
sS'attrParentLongName'
p34
Vresult.position
p35
sS'attrChildrenNames'
p36
(lp37
sS'isMulti'
p38
I00
sS'isCompound'
p39
I00
sS'isElement'
p40
I00
ssVresult.tangent
p41
(dp42
S'isArray'
p43
I00
sS'attrParentLongName'
p44
Vresult
p45
sS'attrChildrenNames'
p46
(lp47
Vresult.tangent.tangentX
p48
aVresult.tangent.tangentY
p49
aVresult.tangent.tangentZ
p50
asS'isMulti'
p51
I00
sS'isCompound'
p52
I01
sS'isElement'
p53
I00
ssVresult.tangent.tangentX
p54
(dp55
S'isArray'
p56
I00
sS'attrParentLongName'
p57
Vresult.tangent
p58
sS'attrChildrenNames'
p59
(lp60
sS'isMulti'
p61
I00
sS'isCompound'
p62
I00
sS'isElement'
p63
I00
ssVresult.tangent.tangentY
p64
(dp65
S'isArray'
p66
I00
sS'attrParentLongName'
p67
Vresult.tangent
p68
sS'attrChildrenNames'
p69
(lp70
sS'isMulti'
p71
I00
sS'isCompound'
p72
I00
sS'isElement'
p73
I00
ssVresult.normalizedNormal
p74
(dp75
S'isArray'
p76
I00
sS'attrParentLongName'
p77
Vresult
p78
sS'attrChildrenNames'
p79
(lp80
Vresult.normalizedNormal.normalizedNormalX
p81
aVresult.normalizedNormal.normalizedNormalY
p82
aVresult.normalizedNormal.normalizedNormalZ
p83
asS'isMulti'
p84
I00
sS'isCompound'
p85
I01
sS'isElement'
p86
I00
ssVisHistoricallyInteresting
p87
(dp88
S'isArray'
p89
I00
sS'isElement'
p90
I00
sS'isMulti'
p91
I00
sS'isCompound'
p92
I00
sS'attrChildrenNames'
p93
(lp94
ssVresult.normalizedNormal.normalizedNormalX
p95
(dp96
S'isArray'
p97
I00
sS'attrParentLongName'
p98
Vresult.normalizedNormal
p99
sS'attrChildrenNames'
p100
(lp101
sS'isMulti'
p102
I00
sS'isCompound'
p103
I00
sS'isElement'
p104
I00
ssVresult.normalizedNormal.normalizedNormalY
p105
(dp106
S'isArray'
p107
I00
sS'attrParentLongName'
p108
Vresult.normalizedNormal
p109
sS'attrChildrenNames'
p110
(lp111
sS'isMulti'
p112
I00
sS'isCompound'
p113
I00
sS'isElement'
p114
I00
ssVresult.normalizedNormal.normalizedNormalZ
p115
(dp116
S'isArray'
p117
I00
sS'attrParentLongName'
p118
Vresult.normalizedNormal
p119
sS'attrChildrenNames'
p120
(lp121
sS'isMulti'
p122
I00
sS'isCompound'
p123
I00
sS'isElement'
p124
I00
ssVresult.curvatureCenter.curvatureCenterZ
p125
(dp126
S'isArray'
p127
I00
sS'attrParentLongName'
p128
Vresult.curvatureCenter
p129
sS'attrChildrenNames'
p130
(lp131
sS'isMulti'
p132
I00
sS'isCompound'
p133
I00
sS'isElement'
p134
I00
ssVresult.curvatureCenter.curvatureCenterX
p135
(dp136
S'isArray'
p137
I00
sS'attrParentLongName'
p138
Vresult.curvatureCenter
p139
sS'attrChildrenNames'
p140
(lp141
sS'isMulti'
p142
I00
sS'isCompound'
p143
I00
sS'isElement'
p144
I00
ssVresult.curvatureCenter.curvatureCenterY
p145
(dp146
S'isArray'
p147
I00
sS'attrParentLongName'
p148
Vresult.curvatureCenter
p149
sS'attrChildrenNames'
p150
(lp151
sS'isMulti'
p152
I00
sS'isCompound'
p153
I00
sS'isElement'
p154
I00
ssVparameter
p155
(dp156
S'isArray'
p157
I00
sS'isElement'
p158
I00
sS'isMulti'
p159
I00
sS'attrChildrenNames'
p160
(lp161
sS'isCompound'
p162
I00
ssVinputCurve
p163
(dp164
S'isArray'
p165
I00
sS'isElement'
p166
I00
sS'isMulti'
p167
I00
sS'isCompound'
p168
I00
sS'attrChildrenNames'
p169
(lp170
ssVnodeState
p171
(dp172
S'isArray'
p173
I00
sS'isElement'
p174
I00
sS'isMulti'
p175
I00
sS'attrChildrenNames'
p176
(lp177
sS'isCompound'
p178
I00
ssVresult.normal.normalZ
p179
(dp180
S'isArray'
p181
I00
sS'attrParentLongName'
p182
Vresult.normal
p183
sS'attrChildrenNames'
p184
(lp185
sS'isMulti'
p186
I00
sS'isCompound'
p187
I00
sS'isElement'
p188
I00
ssVresult.normalizedTangent
p189
(dp190
S'isArray'
p191
I00
sS'attrParentLongName'
p192
Vresult
p193
sS'attrChildrenNames'
p194
(lp195
Vresult.normalizedTangent.normalizedTangentX
p196
aVresult.normalizedTangent.normalizedTangentY
p197
aVresult.normalizedTangent.normalizedTangentZ
p198
asS'isMulti'
p199
I00
sS'isCompound'
p200
I01
sS'isElement'
p201
I00
ssVresult.curvatureCenter
p202
(dp203
S'isArray'
p204
I00
sS'attrParentLongName'
p205
Vresult
p206
sS'attrChildrenNames'
p207
(lp208
Vresult.curvatureCenter.curvatureCenterX
p209
aVresult.curvatureCenter.curvatureCenterY
p210
aVresult.curvatureCenter.curvatureCenterZ
p211
asS'isMulti'
p212
I00
sS'isCompound'
p213
I01
sS'isElement'
p214
I00
ssVresult.normalizedTangent.normalizedTangentZ
p215
(dp216
S'isArray'
p217
I00
sS'attrParentLongName'
p218
Vresult.normalizedTangent
p219
sS'attrChildrenNames'
p220
(lp221
sS'isMulti'
p222
I00
sS'isCompound'
p223
I00
sS'isElement'
p224
I00
ssVresult.normalizedTangent.normalizedTangentX
p225
(dp226
S'isArray'
p227
I00
sS'attrParentLongName'
p228
Vresult.normalizedTangent
p229
sS'attrChildrenNames'
p230
(lp231
sS'isMulti'
p232
I00
sS'isCompound'
p233
I00
sS'isElement'
p234
I00
ssVresult.normal
p235
(dp236
S'isArray'
p237
I00
sS'attrParentLongName'
p238
Vresult
p239
sS'attrChildrenNames'
p240
(lp241
Vresult.normal.normalX
p242
aVresult.normal.normalY
p243
aVresult.normal.normalZ
p244
asS'isMulti'
p245
I00
sS'isCompound'
p246
I01
sS'isElement'
p247
I00
ssVresult.position.positionZ
p248
(dp249
S'isArray'
p250
I00
sS'attrParentLongName'
p251
Vresult.position
p252
sS'attrChildrenNames'
p253
(lp254
sS'isMulti'
p255
I00
sS'isCompound'
p256
I00
sS'isElement'
p257
I00
ssVturnOnPercentage
p258
(dp259
S'isArray'
p260
I00
sS'isElement'
p261
I00
sS'isMulti'
p262
I00
sS'isCompound'
p263
I00
sS'attrChildrenNames'
p264
(lp265
ssVresult.position.positionY
p266
(dp267
S'isArray'
p268
I00
sS'attrParentLongName'
p269
Vresult.position
p270
sS'attrChildrenNames'
p271
(lp272
sS'isMulti'
p273
I00
sS'isCompound'
p274
I00
sS'isElement'
p275
I00
ssVresult.position
p276
(dp277
S'isArray'
p278
I00
sS'attrParentLongName'
p279
Vresult
p280
sS'attrChildrenNames'
p281
(lp282
Vresult.position.positionX
p283
aVresult.position.positionY
p284
aVresult.position.positionZ
p285
asS'isMulti'
p286
I00
sS'isCompound'
p287
I01
sS'isElement'
p288
I00
ssVcaching
p289
(dp290
S'isArray'
p291
I00
sS'isElement'
p292
I00
sS'isMulti'
p293
I00
sS'attrChildrenNames'
p294
(lp295
sS'isCompound'
p296
I00
ssVresult.normal.normalX
p297
(dp298
S'isArray'
p299
I00
sS'attrParentLongName'
p300
Vresult.normal
p301
sS'attrChildrenNames'
p302
(lp303
sS'isMulti'
p304
I00
sS'isCompound'
p305
I00
sS'isElement'
p306
I00
ssVresult.normal.normalY
p307
(dp308
S'isArray'
p309
I00
sS'attrParentLongName'
p310
Vresult.normal
p311
sS'attrChildrenNames'
p312
(lp313
sS'isMulti'
p314
I00
sS'isCompound'
p315
I00
sS'isElement'
p316
I00
ssVresult
p317
(dp318
S'isArray'
p319
I00
sS'isElement'
p320
I00
sS'isMulti'
p321
I00
sS'attrChildrenNames'
p322
(lp323
Vresult.position
p324
aVresult.normal
p325
aVresult.normalizedNormal
p326
aVresult.tangent
p327
aVresult.normalizedTangent
p328
aVresult.curvatureCenter
p329
aVresult.curvatureRadius
p330
asS'isCompound'
p331
I01
ss.