(dp0
VoutColor.outColorR
p1
(dp2
S'isArray'
p3
I00
sS'attrParentLongName'
p4
VoutColor
p5
sS'attrChildrenNames'
p6
(lp7
sS'isMulti'
p8
I00
sS'isCompound'
p9
I00
sS'isElement'
p10
I00
ssVcolor
p11
(dp12
S'isArray'
p13
I01
sS'isElement'
p14
I00
sS'isMulti'
p15
I01
ssVoutputMin
p16
(dp17
S'isArray'
p18
I00
sS'isElement'
p19
I00
sS'isCompound'
p20
I00
sS'attrChildrenNames'
p21
(lp22
sS'isMulti'
p23
I00
ssVoutColor.outColorG
p24
(dp25
S'isArray'
p26
I00
sS'attrParentLongName'
p27
VoutColor
p28
sS'attrChildrenNames'
p29
(lp30
sS'isMulti'
p31
I00
sS'isCompound'
p32
I00
sS'isElement'
p33
I00
ssVoutColor.outColorB
p34
(dp35
S'isArray'
p36
I00
sS'attrParentLongName'
p37
VoutColor
p38
sS'attrChildrenNames'
p39
(lp40
sS'isMulti'
p41
I00
sS'isCompound'
p42
I00
sS'isElement'
p43
I00
ssVcolor[0].color_Interp
p44
(dp45
S'isArray'
p46
I00
sS'attrParentLongName'
p47
Vcolor[0]
p48
sS'attrChildrenNames'
p49
(lp50
sS'isMulti'
p51
I00
sS'isCompound'
p52
I00
sS'isElement'
p53
I00
ssVoutValue
p54
(dp55
S'isArray'
p56
I00
sS'isElement'
p57
I00
sS'isMulti'
p58
I00
sS'attrChildrenNames'
p59
(lp60
sS'isCompound'
p61
I00
ssVcolor[0].color_Color
p62
(dp63
S'isArray'
p64
I00
sS'attrParentLongName'
p65
Vcolor[0]
p66
sS'attrChildrenNames'
p67
(lp68
Vcolor[0].color_Color.color_ColorR
p69
aVcolor[0].color_Color.color_ColorG
p70
aVcolor[0].color_Color.color_ColorB
p71
asS'isMulti'
p72
I00
sS'isCompound'
p73
I01
sS'isElement'
p74
I00
ssVcolor[0].color_Position
p75
(dp76
S'isArray'
p77
I00
sS'attrParentLongName'
p78
Vcolor[0]
p79
sS'attrChildrenNames'
p80
(lp81
sS'isMulti'
p82
I00
sS'isCompound'
p83
I00
sS'isElement'
p84
I00
ssVisHistoricallyInteresting
p85
(dp86
S'isArray'
p87
I00
sS'isElement'
p88
I00
sS'attrChildrenNames'
p89
(lp90
sS'isCompound'
p91
I00
sS'isMulti'
p92
I00
ssVoutputMax
p93
(dp94
S'isArray'
p95
I00
sS'isElement'
p96
I00
sS'attrChildrenNames'
p97
(lp98
sS'isCompound'
p99
I00
sS'isMulti'
p100
I00
ssVvalue[0].value_FloatValue
p101
(dp102
S'isArray'
p103
I00
sS'attrParentLongName'
p104
Vvalue[0]
p105
sS'attrChildrenNames'
p106
(lp107
sS'isMulti'
p108
I00
sS'isCompound'
p109
I00
sS'isElement'
p110
I00
ssVinputMax
p111
(dp112
S'isArray'
p113
I00
sS'isElement'
p114
I00
sS'attrChildrenNames'
p115
(lp116
sS'isCompound'
p117
I00
sS'isMulti'
p118
I00
ssVinputMin
p119
(dp120
S'isArray'
p121
I00
sS'isElement'
p122
I00
sS'isCompound'
p123
I00
sS'attrChildrenNames'
p124
(lp125
sS'isMulti'
p126
I00
ssVnodeState
p127
(dp128
S'isArray'
p129
I00
sS'isElement'
p130
I00
sS'isCompound'
p131
I00
sS'attrChildrenNames'
p132
(lp133
sS'isMulti'
p134
I00
ssVcaching
p135
(dp136
S'isArray'
p137
I00
sS'isElement'
p138
I00
sS'isCompound'
p139
I00
sS'attrChildrenNames'
p140
(lp141
sS'isMulti'
p142
I00
ssVvalue[0].value_Position
p143
(dp144
S'isArray'
p145
I00
sS'attrParentLongName'
p146
Vvalue[0]
p147
sS'attrChildrenNames'
p148
(lp149
sS'isMulti'
p150
I00
sS'isCompound'
p151
I00
sS'isElement'
p152
I00
ssVcolor[0].color_Color.color_ColorB
p153
(dp154
S'isArray'
p155
I00
sS'attrParentLongName'
p156
Vcolor[0].color_Color
p157
sS'attrChildrenNames'
p158
(lp159
sS'isMulti'
p160
I00
sS'isCompound'
p161
I00
sS'isElement'
p162
I00
ssVcolor[0].color_Color.color_ColorG
p163
(dp164
S'isArray'
p165
I00
sS'attrParentLongName'
p166
Vcolor[0].color_Color
p167
sS'attrChildrenNames'
p168
(lp169
sS'isMulti'
p170
I00
sS'isCompound'
p171
I00
sS'isElement'
p172
I00
ssVvalue
p173
(dp174
S'isArray'
p175
I01
sS'isElement'
p176
I00
sS'isMulti'
p177
I01
ssVoutColor
p178
(dp179
S'isArray'
p180
I00
sS'isElement'
p181
I00
sS'isMulti'
p182
I00
sS'isCompound'
p183
I01
sS'attrChildrenNames'
p184
(lp185
VoutColor.outColorR
p186
aVoutColor.outColorG
p187
aVoutColor.outColorB
p188
assVinputValue
p189
(dp190
S'isArray'
p191
I00
sS'isElement'
p192
I00
sS'attrChildrenNames'
p193
(lp194
sS'isCompound'
p195
I00
sS'isMulti'
p196
I00
ssVcolor[0].color_Color.color_ColorR
p197
(dp198
S'isArray'
p199
I00
sS'attrParentLongName'
p200
Vcolor[0].color_Color
p201
sS'attrChildrenNames'
p202
(lp203
sS'isMulti'
p204
I00
sS'isCompound'
p205
I00
sS'isElement'
p206
I00
ssVvalue[0].value_Interp
p207
(dp208
S'isArray'
p209
I00
sS'attrParentLongName'
p210
Vvalue[0]
p211
sS'attrChildrenNames'
p212
(lp213
sS'isMulti'
p214
I00
sS'isCompound'
p215
I00
sS'isElement'
p216
I00
ss.