(dp0
VisHistoricallyInteresting
p1
(dp2
S'isArray'
p3
I00
sS'isElement'
p4
I00
sS'isCompound'
p5
I00
sS'attrChildrenNames'
p6
(lp7
sS'isMulti'
p8
I00
ssVnodeState
p9
(dp10
S'isArray'
p11
I00
sS'isElement'
p12
I00
sS'attrChildrenNames'
p13
(lp14
sS'isCompound'
p15
I00
sS'isMulti'
p16
I00
ssVoutput.outputX
p17
(dp18
S'isArray'
p19
I00
sS'attrParentLongName'
p20
Voutput
p21
sS'attrChildrenNames'
p22
(lp23
sS'isMulti'
p24
I00
sS'isCompound'
p25
I00
sS'isElement'
p26
I00
ssVoutput.outputZ
p27
(dp28
S'isArray'
p29
I00
sS'attrParentLongName'
p30
Voutput
p31
sS'attrChildrenNames'
p32
(lp33
sS'isMulti'
p34
I00
sS'isCompound'
p35
I00
sS'isElement'
p36
I00
ssVinput.inputY
p37
(dp38
S'isArray'
p39
I00
sS'attrParentLongName'
p40
Vinput
p41
sS'attrChildrenNames'
p42
(lp43
sS'isMulti'
p44
I00
sS'isCompound'
p45
I00
sS'isElement'
p46
I00
ssVinput.inputZ
p47
(dp48
S'isArray'
p49
I00
sS'attrParentLongName'
p50
Vinput
p51
sS'attrChildrenNames'
p52
(lp53
sS'isMulti'
p54
I00
sS'isCompound'
p55
I00
sS'isElement'
p56
I00
ssVinput.inputX
p57
(dp58
S'isArray'
p59
I00
sS'attrParentLongName'
p60
Vinput
p61
sS'attrChildrenNames'
p62
(lp63
sS'isMulti'
p64
I00
sS'isCompound'
p65
I00
sS'isElement'
p66
I00
ssVoutput.outputY
p67
(dp68
S'isArray'
p69
I00
sS'attrParentLongName'
p70
Voutput
p71
sS'attrChildrenNames'
p72
(lp73
sS'isMulti'
p74
I00
sS'isCompound'
p75
I00
sS'isElement'
p76
I00
ssVcaching
p77
(dp78
S'isArray'
p79
I00
sS'isElement'
p80
I00
sS'attrChildrenNames'
p81
(lp82
sS'isCompound'
p83
I00
sS'isMulti'
p84
I00
ssVoutput
p85
(dp86
S'isArray'
p87
I00
sS'isElement'
p88
I00
sS'isMulti'
p89
I00
sS'isCompound'
p90
I01
sS'attrChildrenNames'
p91
(lp92
Voutput.outputX
p93
aVoutput.outputY
p94
aVoutput.outputZ
p95
assVinput
p96
(dp97
S'isArray'
p98
I00
sS'isElement'
p99
I00
sS'isCompound'
p100
I01
sS'attrChildrenNames'
p101
(lp102
Vinput.inputX
p103
aVinput.inputY
p104
aVinput.inputZ
p105
asS'isMulti'
p106
I00
ss.