(dp0
Vmin.minZ
p1
(dp2
S'isArray'
p3
I00
sS'attrParentLongName'
p4
Vmin
p5
sS'attrChildrenNames'
p6
(lp7
sS'attrType'
p8
Vfloat
p9
sS'isMulti'
p10
I00
sS'isCompound'
p11
I00
sS'isSimple'
p12
I01
sS'attrChildrenLongNames'
p13
(lp14
sS'isElement'
p15
I00
ssVmin.minX
p16
(dp17
S'isArray'
p18
I00
sS'attrParentLongName'
p19
Vmin
p20
sS'attrChildrenNames'
p21
(lp22
sg8
Vfloat
p23
sS'isMulti'
p24
I00
sS'isCompound'
p25
I00
sg12
I01
sg13
(lp26
sS'isElement'
p27
I00
ssVmin.minY
p28
(dp29
S'isArray'
p30
I00
sS'attrParentLongName'
p31
Vmin
p32
sS'attrChildrenNames'
p33
(lp34
sg8
Vfloat
p35
sS'isMulti'
p36
I00
sS'isCompound'
p37
I00
sg12
I01
sg13
(lp38
sS'isElement'
p39
I00
ssVoutValue
p40
(dp41
S'isArray'
p42
I00
sg8
Vfloat3
p43
sS'attrChildrenNames'
p44
(lp45
VoutValue.outValueX
p46
aVoutValue.outValueY
p47
aVoutValue.outValueZ
p48
asS'isMulti'
p49
I00
sS'isCompound'
p50
I01
sg12
I00
sg13
(lp51
VoutValue.outValueX
p52
aVoutValue.outValueY
p53
aVoutValue.outValueZ
p54
asS'isElement'
p55
I00
ssVoutValue.outValueZ
p56
(dp57
S'isArray'
p58
I00
sS'attrParentLongName'
p59
VoutValue
p60
sS'attrChildrenNames'
p61
(lp62
sg8
Vfloat
p63
sS'isMulti'
p64
I00
sS'isCompound'
p65
I00
sg12
I01
sg13
(lp66
sS'isElement'
p67
I00
ssVoutValue.outValueX
p68
(dp69
S'isArray'
p70
I00
sS'attrParentLongName'
p71
VoutValue
p72
sS'attrChildrenNames'
p73
(lp74
sg8
Vfloat
p75
sS'isMulti'
p76
I00
sS'isCompound'
p77
I00
sg12
I01
sg13
(lp78
sS'isElement'
p79
I00
ssVoutValue.outValueY
p80
(dp81
S'isArray'
p82
I00
sS'attrParentLongName'
p83
VoutValue
p84
sS'attrChildrenNames'
p85
(lp86
sg8
Vfloat
p87
sS'isMulti'
p88
I00
sS'isCompound'
p89
I00
sg12
I01
sg13
(lp90
sS'isElement'
p91
I00
ssVisHistoricallyInteresting
p92
(dp93
S'isArray'
p94
I00
sS'isElement'
p95
I00
sS'isMulti'
p96
I00
sS'isCompound'
p97
I00
sS'attrChildrenNames'
p98
(lp99
ssVmin
p100
(dp101
S'isArray'
p102
I00
sg8
Vfloat3
p103
sS'attrChildrenNames'
p104
(lp105
Vmin.minX
p106
aVmin.minY
p107
aVmin.minZ
p108
asS'isMulti'
p109
I00
sS'isCompound'
p110
I01
sg12
I00
sg13
(lp111
Vmin.minX
p112
aVmin.minY
p113
aVmin.minZ
p114
asS'isElement'
p115
I00
ssVoldMax.oldMaxZ
p116
(dp117
S'isArray'
p118
I00
sS'attrParentLongName'
p119
VoldMax
p120
sS'attrChildrenNames'
p121
(lp122
sg8
Vfloat
p123
sS'isMulti'
p124
I00
sS'isCompound'
p125
I00
sg12
I01
sg13
(lp126
sS'isElement'
p127
I00
ssVoldMax.oldMaxX
p128
(dp129
S'isArray'
p130
I00
sS'attrParentLongName'
p131
VoldMax
p132
sS'attrChildrenNames'
p133
(lp134
sg8
Vfloat
p135
sS'isMulti'
p136
I00
sS'isCompound'
p137
I00
sg12
I01
sg13
(lp138
sS'isElement'
p139
I00
ssVoldMax.oldMaxY
p140
(dp141
S'isArray'
p142
I00
sS'attrParentLongName'
p143
VoldMax
p144
sS'attrChildrenNames'
p145
(lp146
sg8
Vfloat
p147
sS'isMulti'
p148
I00
sS'isCompound'
p149
I00
sg12
I01
sg13
(lp150
sS'isElement'
p151
I00
ssVnodeState
p152
(dp153
S'isArray'
p154
I00
sS'isElement'
p155
I00
sS'isMulti'
p156
I00
sS'attrChildrenNames'
p157
(lp158
sS'isCompound'
p159
I00
ssVvalue.valueZ
p160
(dp161
S'isArray'
p162
I00
sS'attrParentLongName'
p163
Vvalue
p164
sS'attrChildrenNames'
p165
(lp166
sg8
Vfloat
p167
sS'isMulti'
p168
I00
sS'isCompound'
p169
I00
sg12
I01
sg13
(lp170
sS'isElement'
p171
I00
ssVoldMax
p172
(dp173
S'isArray'
p174
I00
sg8
Vfloat3
p175
sS'attrChildrenNames'
p176
(lp177
VoldMax.oldMaxX
p178
aVoldMax.oldMaxY
p179
aVoldMax.oldMaxZ
p180
asS'isMulti'
p181
I00
sS'isCompound'
p182
I01
sg12
I00
sg13
(lp183
VoldMax.oldMaxX
p184
aVoldMax.oldMaxY
p185
aVoldMax.oldMaxZ
p186
asS'isElement'
p187
I00
ssVvalue.valueX
p188
(dp189
S'isArray'
p190
I00
sS'attrParentLongName'
p191
Vvalue
p192
sS'attrChildrenNames'
p193
(lp194
sg8
Vfloat
p195
sS'isMulti'
p196
I00
sS'isCompound'
p197
I00
sg12
I01
sg13
(lp198
sS'isElement'
p199
I00
ssVvalue.valueY
p200
(dp201
S'isArray'
p202
I00
sS'attrParentLongName'
p203
Vvalue
p204
sS'attrChildrenNames'
p205
(lp206
sg8
Vfloat
p207
sS'isMulti'
p208
I00
sS'isCompound'
p209
I00
sg12
I01
sg13
(lp210
sS'isElement'
p211
I00
ssVmax
p212
(dp213
S'isArray'
p214
I00
sg8
Vfloat3
p215
sS'attrChildrenNames'
p216
(lp217
Vmax.maxX
p218
aVmax.maxY
p219
aVmax.maxZ
p220
asS'isMulti'
p221
I00
sS'isCompound'
p222
I01
sg12
I00
sg13
(lp223
Vmax.maxX
p224
aVmax.maxY
p225
aVmax.maxZ
p226
asS'isElement'
p227
I00
ssVoldMin
p228
(dp229
S'isArray'
p230
I00
sg8
Vfloat3
p231
sS'attrChildrenNames'
p232
(lp233
VoldMin.oldMinX
p234
aVoldMin.oldMinY
p235
aVoldMin.oldMinZ
p236
asS'isMulti'
p237
I00
sS'isCompound'
p238
I01
sg12
I00
sg13
(lp239
VoldMin.oldMinX
p240
aVoldMin.oldMinY
p241
aVoldMin.oldMinZ
p242
asS'isElement'
p243
I00
ssVvalue
p244
(dp245
S'isArray'
p246
I00
sg8
Vfloat3
p247
sS'attrChildrenNames'
p248
(lp249
Vvalue.valueX
p250
aVvalue.valueY
p251
aVvalue.valueZ
p252
asS'isMulti'
p253
I00
sS'isCompound'
p254
I01
sg12
I00
sg13
(lp255
Vvalue.valueX
p256
aVvalue.valueY
p257
aVvalue.valueZ
p258
asS'isElement'
p259
I00
ssVoldMin.oldMinZ
p260
(dp261
S'isArray'
p262
I00
sS'attrParentLongName'
p263
VoldMin
p264
sS'attrChildrenNames'
p265
(lp266
sg8
Vfloat
p267
sS'isMulti'
p268
I00
sS'isCompound'
p269
I00
sg12
I01
sg13
(lp270
sS'isElement'
p271
I00
ssVoldMin.oldMinX
p272
(dp273
S'isArray'
p274
I00
sS'attrParentLongName'
p275
VoldMin
p276
sS'attrChildrenNames'
p277
(lp278
sg8
Vfloat
p279
sS'isMulti'
p280
I00
sS'isCompound'
p281
I00
sg12
I01
sg13
(lp282
sS'isElement'
p283
I00
ssVoldMin.oldMinY
p284
(dp285
S'isArray'
p286
I00
sS'attrParentLongName'
p287
VoldMin
p288
sS'attrChildrenNames'
p289
(lp290
sg8
Vfloat
p291
sS'isMulti'
p292
I00
sS'isCompound'
p293
I00
sg12
I01
sg13
(lp294
sS'isElement'
p295
I00
ssVcaching
p296
(dp297
S'isArray'
p298
I00
sS'isElement'
p299
I00
sS'isMulti'
p300
I00
sS'attrChildrenNames'
p301
(lp302
sS'isCompound'
p303
I00
ssVmax.maxZ
p304
(dp305
S'isArray'
p306
I00
sS'attrParentLongName'
p307
Vmax
p308
sS'attrChildrenNames'
p309
(lp310
sg8
Vfloat
p311
sS'isMulti'
p312
I00
sS'isCompound'
p313
I00
sg12
I01
sg13
(lp314
sS'isElement'
p315
I00
ssVmax.maxX
p316
(dp317
S'isArray'
p318
I00
sS'attrParentLongName'
p319
Vmax
p320
sS'attrChildrenNames'
p321
(lp322
sg8
Vfloat
p323
sS'isMulti'
p324
I00
sS'isCompound'
p325
I00
sg12
I01
sg13
(lp326
sS'isElement'
p327
I00
ssVmax.maxY
p328
(dp329
S'isArray'
p330
I00
sS'attrParentLongName'
p331
Vmax
p332
sS'attrChildrenNames'
p333
(lp334
sg8
Vfloat
p335
sS'isMulti'
p336
I00
sS'isCompound'
p337
I00
sg12
I01
sg13
(lp338
sS'isElement'
p339
I00
ss.