(dp0
VisHistoricallyInteresting
p1
(dp2
S'isArray'
p3
I00
sS'isElement'
p4
I00
sS'isMulti'
p5
I00
sS'attrChildrenNames'
p6
(lp7
sS'isCompound'
p8
I00
ssVnodeState
p9
(dp10
S'isArray'
p11
I00
sS'isElement'
p12
I00
sS'isMulti'
p13
I00
sS'isCompound'
p14
I00
sS'attrChildrenNames'
p15
(lp16
ssVcontrolPoints[0].zValue
p17
(dp18
S'isArray'
p19
I00
sS'isElement'
p20
I00
sS'attrParentLongName'
p21
VcontrolPoints[0]
p22
sS'attrChildrenNames'
p23
(lp24
ssVcontrolPoints[0].yValue
p25
(dp26
S'isArray'
p27
I00
sS'isElement'
p28
I00
sS'attrParentLongName'
p29
VcontrolPoints[0]
p30
sS'attrChildrenNames'
p31
(lp32
ssVcontrolPoints[0].xValue
p33
(dp34
S'isArray'
p35
I00
sS'isElement'
p36
I00
sS'attrParentLongName'
p37
VcontrolPoints[0]
p38
sS'attrChildrenNames'
p39
(lp40
ssVweights
p41
(dp42
S'isArray'
p43
I01
sS'isElement'
p44
I00
sS'isMulti'
p45
I01
ssVcaching
p46
(dp47
S'isArray'
p48
I00
sS'isElement'
p49
I00
sS'isMulti'
p50
I00
sS'isCompound'
p51
I00
sS'attrChildrenNames'
p52
(lp53
ssVinputSurface
p54
(dp55
S'isArray'
p56
I00
sS'isElement'
p57
I00
sS'isMulti'
p58
I00
sS'attrChildrenNames'
p59
(lp60
sS'isCompound'
p61
I00
ssVknotsV
p62
(dp63
S'isArray'
p64
I01
sS'isElement'
p65
I00
sS'isMulti'
p66
I01
ssVknotsU
p67
(dp68
S'isArray'
p69
I01
sS'isElement'
p70
I00
sS'isMulti'
p71
I01
ssVcontrolPoints
p72
(dp73
S'isArray'
p74
I01
sS'isElement'
p75
I00
sS'isMulti'
p76
I01
ss.