(dp0
VrotateOrder
p1
(dp2
S'isArray'
p3
I00
sS'attrType'
p4
Venum
p5
sS'attrChildrenNames'
p6
(lp7
sS'isMulti'
p8
I00
sS'isCompound'
p9
I00
sS'isSimple'
p10
I01
sS'attrShortName'
p11
Vro
p12
sS'isReadable'
p13
I00
sS'attrChildrenLongNames'
p14
(lp15
sS'isElement'
p16
I00
ssVworldInverseMatrix[6]
p17
(dp18
S'isArray'
p19
I00
sS'isMulti'
p20
I00
sS'attrChildrenNames'
p21
(lp22
sS'isSimple'
p23
I00
sS'attrType'
p24
NssVtranslate.translateX
p25
(dp26
S'isArray'
p27
I00
sS'attrType'
p28
VdoubleLinear
p29
sS'attrParentLongName'
p30
Vtranslate
p31
sS'attrChildrenNames'
p32
(lp33
sS'isMulti'
p34
I00
sS'isWritable'
p35
NsS'isCompound'
p36
I00
sS'isSimple'
p37
I01
sg11
Vtx
p38
sg14
(lp39
ssVdrawOverride.overrideColor
p40
(dp41
S'isArray'
p42
I00
sS'attrParentLongName'
p43
VdrawOverride
p44
sS'attrChildrenNames'
p45
(lp46
sS'attrType'
p47
Vbyte
p48
sS'isMulti'
p49
I00
sS'isCompound'
p50
I00
sS'isSimple'
p51
I00
sS'attrShortName'
p52
Vovc
p53
sg14
(lp54
sS'isElement'
p55
I00
ssVintermediateObject
p56
(dp57
S'isArray'
p58
I00
sg47
Vbool
p59
sS'attrChildrenNames'
p60
(lp61
sS'isMulti'
p62
I00
sS'isCompound'
p63
I00
sg51
I01
sg52
Vio
p64
sg14
(lp65
sS'isElement'
p66
I00
ssVinstObjGroups[0].objectGroups[1].objectGroupId
p67
(dp68
S'isArray'
p69
I00
sg52
Viog[0].og[1].gid
p70
sS'isSimple'
p71
I00
sg14
(lp72
ssVworldInverseMatrix[12]
p73
(dp74
S'isArray'
p75
I00
sS'isMulti'
p76
I00
sS'attrChildrenNames'
p77
(lp78
sS'isSimple'
p79
I00
sS'attrType'
p80
NssVworldMatrix[4]
p81
(dp82
g19
I00
sS'isMulti'
p83
I00
sg21
(lp84
sS'isSimple'
p85
I00
sS'attrType'
p86
NssVrenderLayerInfo.renderLayerId
p87
(dp88
S'attrParentLongName'
p89
VrenderLayerInfo
p90
sS'isElement'
p91
I00
ssVrotatePivot
p92
(dp93
S'isArray'
p94
I00
sg47
Vdouble3
p95
sS'attrChildrenNames'
p96
(lp97
VrotatePivot.rotatePivotX
p98
aVrotatePivot.rotatePivotY
p99
aVrotatePivot.rotatePivotZ
p100
asS'isMulti'
p101
I00
sS'isCompound'
p102
I01
sg51
I01
sg52
Vrp
p103
sg14
(lp104
VrotatePivot.rotatePivotX
p105
aVrotatePivot.rotatePivotY
p106
aVrotatePivot.rotatePivotZ
p107
asS'isElement'
p108
I00
ssVmentalRayControls.miVisible
p109
(dp110
S'isArray'
p111
I00
sS'attrParentLongName'
p112
VmentalRayControls
p113
sS'attrChildrenNames'
p114
(lp115
sg47
Venum
p116
sS'isMulti'
p117
I00
sS'isCompound'
p118
I00
sg51
I01
sg52
Vvsb
p119
sg14
(lp120
sS'isElement'
p121
I00
ssVuseObjectColor
p122
(dp123
S'isArray'
p124
I00
sg47
Vbool
p125
sS'attrChildrenNames'
p126
(lp127
sS'isMulti'
p128
I00
sS'isCompound'
p129
I00
sg51
I01
sg52
Vuoc
p130
sg14
(lp131
sS'isElement'
p132
I00
ssVdrawOverride.overrideLevelOfDetail
p133
(dp134
S'isArray'
p135
I00
sS'attrParentLongName'
p136
VdrawOverride
p137
sS'attrChildrenNames'
p138
(lp139
sg47
Venum
p140
sS'isMulti'
p141
I00
sS'isCompound'
p142
I00
sg51
I01
sg52
Vovlod
p143
sg14
(lp144
sS'isElement'
p145
I00
ssVinstObjGroups[0].objectGroups[0].objectGroupId
p146
(dp147
S'isArray'
p148
I00
sS'attrParentLongName'
p149
VinstObjGroups[0].objectGroups[0]
p150
sS'attrChildrenNames'
p151
(lp152
sg71
I00
sg52
Viog[0].og[0].gid
p153
sg14
(lp154
sS'isElement'
p155
I00
ssVmaxRotLimitEnable.maxRotXLimitEnable
p156
(dp157
S'isArray'
p158
I00
sS'attrType'
p159
Vbool
p160
sS'isMulti'
p161
I00
sS'isCompound'
p162
I00
sS'isSimple'
p163
I01
sg52
Vxrxe
p164
sS'attrChildrenLongNames'
p165
(lp166
ssVghostCustomSteps
p167
(dp168
S'isArray'
p169
I00
sg47
VTdataCompound
p170
sS'attrChildrenNames'
p171
(lp172
VghostCustomSteps.ghostPreSteps
p173
aVghostCustomSteps.ghostPostSteps
p174
aVghostCustomSteps.ghostStepSize
p175
asS'isMulti'
p176
I00
sS'isCompound'
p177
I01
sg51
I00
sg52
Vgcs
p178
sg14
(lp179
VghostCustomSteps.ghostPreSteps
p180
aVghostCustomSteps.ghostPostSteps
p181
aVghostCustomSteps.ghostStepSize
p182
asS'isElement'
p183
I00
ssVuiTreatment
p184
(dp185
S'isArray'
p186
I00
sg47
Venum
p187
sS'attrChildrenNames'
p188
(lp189
sS'isMulti'
p190
I00
sS'isCompound'
p191
I00
sg51
I01
sg52
Vuit
p192
sg14
(lp193
sS'isElement'
p194
I00
ssVminTransLimitEnable.minTransYLimitEnable
p195
(dp196
g158
I00
sg159
Vbool
p197
sg161
I00
sg162
I00
sg163
I01
sg52
Vmtye
p198
sg165
(lp199
ssVtranslate.translateY
p200
(dp201
g27
I00
sS'attrType'
p202
VdoubleLinear
p203
sS'attrParentLongName'
p204
Vtranslate
p205
sg32
(lp206
sS'isMulti'
p207
I00
sg35
Nsg36
I00
sg37
I01
sg11
Vty
p208
sg14
(lp209
ssVparentInverseMatrix[10]
p210
(dp211
g75
I00
sS'isMulti'
p212
I00
sg77
(lp213
sS'isSimple'
p214
I00
sS'attrType'
p215
NssVrenderLayerInfo.renderLayerRenderable
p216
(dp217
S'attrParentLongName'
p218
VrenderLayerInfo
p219
sS'isElement'
p220
I00
ssVminRotLimitEnable.minRotZLimitEnable
p221
(dp222
g158
I00
sg159
Vbool
p223
sg161
I00
sg162
I00
sg163
I01
sg52
Vmrze
p224
sg165
(lp225
ssVghostFrames
p226
(dp227
S'isArray'
p228
I00
sg47
NsS'attrChildrenNames'
p229
(lp230
sS'isMulti'
p231
I00
sS'isCompound'
p232
I00
sg51
I00
sg52
Vgf
p233
sg14
(lp234
sS'isElement'
p235
I00
ssVparentMatrix[2]
p236
(dp237
g19
I00
sg86
Nsg21
(lp238
sg83
I00
sg85
I00
sg11
Vpm[2]
p239
sg14
(lp240
ssVparentMatrix[11]
p241
(dp242
g75
I00
sg212
I00
sg77
(lp243
sg214
I00
sg215
NssVparentInverseMatrix[9]
p244
(dp245
S'isArray'
p246
I00
sg212
I00
sS'attrChildrenNames'
p247
(lp248
sg214
I00
sg215
NssVparentMatrix[5]
p249
(dp250
g19
I00
sg83
I00
sg21
(lp251
sg85
I00
sg86
NssVworldMatrix[14]
p252
(dp253
S'isArray'
p254
I00
sg76
I00
sS'attrChildrenNames'
p255
(lp256
sg79
I00
sg80
NssVmaxRotLimit.maxRotYLimit
p257
(dp258
g158
I00
sg159
VdoubleAngle
p259
sg161
I00
sg162
I00
sg163
I01
sg52
Vxryl
p260
sg165
(lp261
ssVtransMinusRotatePivot
p262
(dp263
S'isArray'
p264
I00
sg47
Vdouble3
p265
sS'attrChildrenNames'
p266
(lp267
VtransMinusRotatePivot.transMinusRotatePivotX
p268
aVtransMinusRotatePivot.transMinusRotatePivotY
p269
aVtransMinusRotatePivot.transMinusRotatePivotZ
p270
asS'isMulti'
p271
I00
sS'isCompound'
p272
I01
sg51
I01
sg52
Vtmrp
p273
sg14
(lp274
VtransMinusRotatePivot.transMinusRotatePivotX
p275
aVtransMinusRotatePivot.transMinusRotatePivotY
p276
aVtransMinusRotatePivot.transMinusRotatePivotZ
p277
asS'isElement'
p278
I00
ssVworldMatrix[7]
p279
(dp280
g19
I00
sg20
I00
sg21
(lp281
sg23
I00
sg24
NssVrotateX
p282
(dp283
S'isArray'
p284
I00
sS'attrParentLongName'
p285
Vrotate
p286
sS'attrChildrenNames'
p287
(lp288
sS'attrType'
p289
VdoubleAngle
p290
sS'isMulti'
p291
I00
sS'isWritable'
p292
I01
sS'isCompound'
p293
I00
sg10
I01
sS'isReadable'
p294
I00
sS'isElement'
p295
I00
ssVrotateY
p296
(dp297
S'isArray'
p298
I00
sS'attrParentLongName'
p299
Vrotate
p300
sS'attrChildrenNames'
p301
(lp302
sS'attrType'
p303
VdoubleAngle
p304
sS'isMulti'
p305
I00
sS'isWritable'
p306
I01
sS'isCompound'
p307
I00
sg10
I01
sS'isReadable'
p308
I00
sS'isElement'
p309
I00
ssVrotateZ
p310
(dp311
S'isArray'
p312
I00
sS'attrParentLongName'
p313
Vrotate
p314
sS'attrChildrenNames'
p315
(lp316
sS'attrType'
p317
VdoubleAngle
p318
sS'isMulti'
p319
I00
sS'isCompound'
p320
I00
sg10
I01
sS'isReadable'
p321
I00
sS'isElement'
p322
I00
ssVworldInverseMatrix[15]
p323
(dp324
g254
I00
sg76
I00
sg255
(lp325
sg79
I00
sg80
NssVcustomTreatment
p326
(dp327
S'isArray'
p328
I00
sg47
Vstring
p329
sS'attrChildrenNames'
p330
(lp331
sS'isMulti'
p332
I00
sS'isCompound'
p333
I00
sg51
I01
sg52
Vctrt
p334
sg14
(lp335
sS'isElement'
p336
I00
ssVrenderLayerInfo[0].renderLayerRenderable
p337
(dp338
S'isArray'
p339
I00
sS'attrParentLongName'
p340
VrenderLayerInfo[0]
p341
sS'attrChildrenNames'
p342
(lp343
sg71
I00
sg52
Vrlio[0].rlr
p344
sg14
(lp345
sS'isElement'
p346
I00
ssVrotatePivotTranslate.rotatePivotTranslateY
p347
(dp348
S'isArray'
p349
I00
sS'attrParentLongName'
p350
VrotatePivotTranslate
p351
sS'attrChildrenNames'
p352
(lp353
sg47
VdoubleLinear
p354
sS'isMulti'
p355
I00
sS'isCompound'
p356
I00
sg51
I01
sg52
Vrpty
p357
sg14
(lp358
sS'isElement'
p359
I00
ssVminRotLimitEnable.minRotXLimitEnable
p360
(dp361
g158
I00
sg159
Vbool
p362
sg161
I00
sg162
I00
sg163
I01
sg52
Vmrxe
p363
sg165
(lp364
ssVshear
p365
(dp366
S'isArray'
p367
I00
sS'attrType'
p368
Vdouble3
p369
sS'attrChildrenNames'
p370
(lp371
VshearXY
p372
aVshearXZ
p373
aVshearYZ
p374
asS'isMulti'
p375
I00
sS'isCompound'
p376
I01
sg10
I01
sg11
Vsh
p377
sS'isReadable'
p378
I00
sg14
(lp379
Vshear.shearXY
p380
aVshear.shearXZ
p381
aVshear.shearYZ
p382
asS'isElement'
p383
I00
ssVboundingBox.boundingBoxMin.boundingBoxMinY
p384
(dp385
S'isArray'
p386
I00
sS'attrParentLongName'
p387
VboundingBox.boundingBoxMin
p388
sS'attrChildrenNames'
p389
(lp390
sg47
VdoubleLinear
p391
sS'isMulti'
p392
I00
sS'isCompound'
p393
I00
sg51
I01
sg14
(lp394
sS'isElement'
p395
I00
ssVboundingBox.boundingBoxMin.boundingBoxMinX
p396
(dp397
S'isArray'
p398
I00
sS'attrParentLongName'
p399
VboundingBox.boundingBoxMin
p400
sS'attrChildrenNames'
p401
(lp402
sg47
VdoubleLinear
p403
sS'isMulti'
p404
I00
sS'isCompound'
p405
I00
sg51
I01
sg14
(lp406
sS'isElement'
p407
I00
ssVboundingBox.boundingBoxMin.boundingBoxMinZ
p408
(dp409
S'isArray'
p410
I00
sS'attrParentLongName'
p411
VboundingBox.boundingBoxMin
p412
sS'attrChildrenNames'
p413
(lp414
sg47
VdoubleLinear
p415
sS'isMulti'
p416
I00
sS'isCompound'
p417
I00
sg51
I01
sg14
(lp418
sS'isElement'
p419
I00
ssVtranslateX
p420
(dp421
S'isArray'
p422
I00
sS'attrParentLongName'
p423
Vtranslate
p424
sS'attrChildrenNames'
p425
(lp426
sS'attrType'
p427
VdoubleLinear
p428
sS'isMulti'
p429
I00
sS'isWritable'
p430
I01
sS'isCompound'
p431
I00
sg10
I01
sS'isReadable'
p432
I00
sS'isElement'
p433
I00
ssVtranslateY
p434
(dp435
S'isArray'
p436
I00
sS'attrParentLongName'
p437
Vtranslate
p438
sS'attrChildrenNames'
p439
(lp440
sS'attrType'
p441
VdoubleLinear
p442
sS'isMulti'
p443
I00
sS'isCompound'
p444
I00
sg10
I01
sS'isReadable'
p445
I00
sS'isElement'
p446
I00
ssVtranslateZ
p447
(dp448
S'isArray'
p449
I00
sS'attrParentLongName'
p450
Vtranslate
p451
sS'attrChildrenNames'
p452
(lp453
sS'attrType'
p454
VdoubleLinear
p455
sS'isMulti'
p456
I00
sS'isCompound'
p457
I00
sg10
I01
sS'isReadable'
p458
I00
sS'isElement'
p459
I00
ssVmentalRayControls.miProxyRenderable
p460
(dp461
S'isArray'
p462
I00
sS'attrParentLongName'
p463
VmentalRayControls
p464
sS'attrChildrenNames'
p465
(lp466
sg47
Vbool
p467
sS'isMulti'
p468
I00
sS'isCompound'
p469
I00
sg51
I01
sg52
Vmrof
p470
sg14
(lp471
sS'isElement'
p472
I00
ssVparentMatrix[14]
p473
(dp474
g254
I00
sg76
I00
sg255
(lp475
sg79
I00
sg80
NssVworldInverseMatrix[9]
p476
(dp477
g246
I00
sg212
I00
sg247
(lp478
sg214
I00
sg215
NssVinstObjGroups.objectGroups.objectGrpColor
p479
(dp480
S'attrParentLongName'
p481
VinstObjGroups.objectGroups
p482
sS'isElement'
p483
I00
ssVparentMatrix
p484
(dp485
S'isArray'
p486
I01
sS'attrType'
p487
Vmatrix
p488
sS'attrChildrenNames'
p489
(lp490
sS'isMulti'
p491
I01
sg10
I00
sg11
Vpm
p492
sS'isReadable'
p493
I00
sS'isElement'
p494
I00
ssVrotateQuaternion.rotateQuaternionZ
p495
(dp496
S'isArray'
p497
I00
sS'attrParentLongName'
p498
VrotateQuaternion
p499
sS'attrChildrenNames'
p500
(lp501
sg47
Vdouble
p502
sS'isMulti'
p503
I00
sS'isCompound'
p504
I00
sg51
I01
sg52
Vrqz
p505
sg14
(lp506
sS'isElement'
p507
I00
ssVrenderLayerInfo[0].renderLayerId
p508
(dp509
S'isArray'
p510
I00
sS'attrParentLongName'
p511
VrenderLayerInfo[0]
p512
sS'attrChildrenNames'
p513
(lp514
sg71
I00
sg52
Vrlio[0].rli
p515
sg14
(lp516
sS'isElement'
p517
I00
ssVrotateQuaternion.rotateQuaternionX
p518
(dp519
S'isArray'
p520
I00
sS'attrParentLongName'
p521
VrotateQuaternion
p522
sS'attrChildrenNames'
p523
(lp524
sg47
Vdouble
p525
sS'isMulti'
p526
I00
sS'isCompound'
p527
I00
sg51
I01
sg52
Vrqx
p528
sg14
(lp529
sS'isElement'
p530
I00
ssVrotateQuaternion.rotateQuaternionY
p531
(dp532
S'isArray'
p533
I00
sS'attrParentLongName'
p534
VrotateQuaternion
p535
sS'attrChildrenNames'
p536
(lp537
sg47
Vdouble
p538
sS'isMulti'
p539
I00
sS'isCompound'
p540
I00
sg51
I01
sg52
Vrqy
p541
sg14
(lp542
sS'isElement'
p543
I00
ssVmaxTransLimitEnable.maxTransZLimitEnable
p544
(dp545
g158
I00
sg159
Vbool
p546
sg161
I00
sg162
I00
sg163
I01
sg52
Vxtze
p547
sg165
(lp548
ssVworldInverseMatrix[1]
p549
(dp550
S'isArray'
p551
I00
sS'attrType'
p552
NsS'attrChildrenNames'
p553
(lp554
sg83
I00
sg85
I00
sg11
Vwim[1]
p555
sS'isReadable'
p556
I00
sg14
(lp557
ssVminTransLimitEnable.minTransZLimitEnable
p558
(dp559
g158
I00
sg159
Vbool
p560
sg161
I00
sg162
I00
sg163
I01
sg52
Vmtze
p561
sg165
(lp562
ssVparentInverseMatrix[11]
p563
(dp564
g75
I00
sg212
I00
sg77
(lp565
sg214
I00
sg215
NssVscalePivotTranslate
p566
(dp567
S'isArray'
p568
I00
sg47
Vdouble3
p569
sS'attrChildrenNames'
p570
(lp571
VscalePivotTranslate.scalePivotTranslateX
p572
aVscalePivotTranslate.scalePivotTranslateY
p573
aVscalePivotTranslate.scalePivotTranslateZ
p574
asS'isMulti'
p575
I00
sS'isCompound'
p576
I01
sg51
I01
sg52
Vspt
p577
sg14
(lp578
VscalePivotTranslate.scalePivotTranslateX
p579
aVscalePivotTranslate.scalePivotTranslateY
p580
aVscalePivotTranslate.scalePivotTranslateZ
p581
asS'isElement'
p582
I00
ssVrotatePivotTranslate.rotatePivotTranslateZ
p583
(dp584
S'isArray'
p585
I00
sS'attrParentLongName'
p586
VrotatePivotTranslate
p587
sS'attrChildrenNames'
p588
(lp589
sg47
VdoubleLinear
p590
sS'isMulti'
p591
I00
sS'isCompound'
p592
I00
sg51
I01
sg52
Vrptz
p593
sg14
(lp594
sS'isElement'
p595
I00
ssVrotateQuaternion.rotateQuaternionW
p596
(dp597
S'isArray'
p598
I00
sS'attrParentLongName'
p599
VrotateQuaternion
p600
sS'attrChildrenNames'
p601
(lp602
sg47
Vdouble
p603
sS'isMulti'
p604
I00
sS'isCompound'
p605
I00
sg51
I01
sg52
Vrqw
p606
sg14
(lp607
sS'isElement'
p608
I00
ssVrotatePivotTranslate.rotatePivotTranslateX
p609
(dp610
S'isArray'
p611
I00
sS'attrParentLongName'
p612
VrotatePivotTranslate
p613
sS'attrChildrenNames'
p614
(lp615
sg47
VdoubleLinear
p616
sS'isMulti'
p617
I00
sS'isCompound'
p618
I00
sg51
I01
sg52
Vrptx
p619
sg14
(lp620
sS'isElement'
p621
I00
ssVtemplatePath
p622
(dp623
S'isArray'
p624
I00
sg47
Vstring
p625
sS'attrChildrenNames'
p626
(lp627
sS'isMulti'
p628
I00
sS'isCompound'
p629
I00
sg51
I01
sg52
Vtpt
p630
sg14
(lp631
sS'isElement'
p632
I00
ssVminTransLimit
p633
(dp634
g158
I00
sg159
Vdouble3
p635
sg161
I00
sg162
I01
sg163
I01
sg52
Vmntl
p636
sg165
(lp637
VminTransLimit.minTransXLimit
p638
aVminTransLimit.minTransYLimit
p639
aVminTransLimit.minTransZLimit
p640
assVrotate
p641
(dp642
S'isArray'
p643
I00
sS'attrType'
p644
Vdouble3
p645
sS'attrChildrenNames'
p646
(lp647
VrotateX
p648
aVrotateY
p649
aVrotateZ
p650
asS'isMulti'
p651
I00
sS'isCompound'
p652
I01
sg10
I01
sg11
Vr
p653
sS'isReadable'
p654
I00
sg14
(lp655
Vrotate.rotateX
p656
aVrotate.rotateY
p657
aVrotate.rotateZ
p658
asS'isElement'
p659
I00
ssVparentMatrix[16]
p660
(dp661
g254
I00
sg255
(lp662
ssVworldMatrix[15]
p663
(dp664
g254
I00
sg76
I00
sg255
(lp665
sg79
I00
sg80
NssVminRotLimit
p666
(dp667
g158
I00
sg159
Vdouble3
p668
sg161
I00
sg162
I01
sg163
I01
sg52
Vmnrl
p669
sg165
(lp670
VminRotLimit.minRotXLimit
p671
aVminRotLimit.minRotYLimit
p672
aVminRotLimit.minRotZLimit
p673
assVparentInverseMatrix[8]
p674
(dp675
g246
I00
sg212
I00
sg247
(lp676
sg214
I00
sg215
NssVisHierarchicalConnection[1]
p677
(dp678
g158
I00
sg52
Vish[1]
p679
sg163
I00
sg165
(lp680
ssVparentInverseMatrix[0]
p681
(dp682
g551
I00
sg552
Vmatrix
p683
sS'attrParentLongName'
p684
VparentInverseMatrix
p685
sg553
(lp686
sg83
I00
sg85
I00
sg11
Vpim[0]
p687
sg556
I00
sg14
(lp688
ssVrenderLayerInfo[1].renderLayerId
p689
(dp690
g69
I00
sg52
Vrlio[1].rli
p691
sg71
I00
sg14
(lp692
ssVobjectColor
p693
(dp694
S'isArray'
p695
I00
sg47
Vshort
p696
sS'attrChildrenNames'
p697
(lp698
sS'isMulti'
p699
I00
sS'isCompound'
p700
I00
sg51
I01
sg52
Voc
p701
sg14
(lp702
sS'isElement'
p703
I00
ssVdrawOverride.overrideEnabled
p704
(dp705
S'isArray'
p706
I00
sS'attrParentLongName'
p707
VdrawOverride
p708
sS'attrChildrenNames'
p709
(lp710
sg47
Vbool
p711
sS'isMulti'
p712
I00
sS'isCompound'
p713
I00
sg51
I01
sg52
Vove
p714
sg14
(lp715
sS'isElement'
p716
I00
ssVrotatePivot.rotatePivotZ
p717
(dp718
S'isArray'
p719
I00
sS'attrParentLongName'
p720
VrotatePivot
p721
sS'attrChildrenNames'
p722
(lp723
sg47
VdoubleLinear
p724
sS'isMulti'
p725
I00
sS'isCompound'
p726
I00
sg51
I01
sg52
Vrpz
p727
sg14
(lp728
sS'isElement'
p729
I00
ssVrotatePivot.rotatePivotX
p730
(dp731
S'isArray'
p732
I00
sS'attrParentLongName'
p733
VrotatePivot
p734
sS'attrChildrenNames'
p735
(lp736
sg47
VdoubleLinear
p737
sS'isMulti'
p738
I00
sS'isCompound'
p739
I00
sg51
I01
sg52
Vrpx
p740
sg14
(lp741
sS'isElement'
p742
I00
ssVrotatePivot.rotatePivotY
p743
(dp744
S'isArray'
p745
I00
sS'attrParentLongName'
p746
VrotatePivot
p747
sS'attrChildrenNames'
p748
(lp749
sg47
VdoubleLinear
p750
sS'isMulti'
p751
I00
sS'isCompound'
p752
I00
sg51
I01
sg52
Vrpy
p753
sg14
(lp754
sS'isElement'
p755
I00
ssVparentMatrix[0]
p756
(dp757
g551
I00
sg552
Vmatrix
p758
sg553
(lp759
sg83
I00
sg85
I00
sg11
Vpm[0]
p760
sg556
I00
sg14
(lp761
ssVrotateAxis
p762
(dp763
S'isArray'
p764
I00
sg47
Vdouble3
p765
sS'attrChildrenNames'
p766
(lp767
VrotateAxis.rotateAxisX
p768
aVrotateAxis.rotateAxisY
p769
aVrotateAxis.rotateAxisZ
p770
asS'isMulti'
p771
I00
sS'isCompound'
p772
I01
sg51
I01
sg52
Vra
p773
sg14
(lp774
VrotateAxis.rotateAxisX
p775
aVrotateAxis.rotateAxisY
p776
aVrotateAxis.rotateAxisZ
p777
asS'isElement'
p778
I00
ssVworldInverseMatrix[4]
p779
(dp780
g19
I00
sg83
I00
sg21
(lp781
sg85
I00
sg86
NssVcreator
p782
(dp783
S'isArray'
p784
I00
sg47
Vstring
p785
sS'attrChildrenNames'
p786
(lp787
sS'isMulti'
p788
I00
sS'isCompound'
p789
I00
sg51
I01
sg52
Vctor
p790
sg14
(lp791
sS'isElement'
p792
I00
ssVrotateAxis.rotateAxisX
p793
(dp794
S'isArray'
p795
I00
sS'attrParentLongName'
p796
VrotateAxis
p797
sS'attrChildrenNames'
p798
(lp799
sg47
VdoubleAngle
p800
sS'isMulti'
p801
I00
sS'isCompound'
p802
I00
sg51
I01
sg52
Vrax
p803
sg14
(lp804
sS'isElement'
p805
I00
ssVrotateAxis.rotateAxisY
p806
(dp807
S'isArray'
p808
I00
sS'attrParentLongName'
p809
VrotateAxis
p810
sS'attrChildrenNames'
p811
(lp812
sg47
VdoubleAngle
p813
sS'isMulti'
p814
I00
sS'isCompound'
p815
I00
sg51
I01
sg52
Vray
p816
sg14
(lp817
sS'isElement'
p818
I00
ssVrotateAxis.rotateAxisZ
p819
(dp820
S'isArray'
p821
I00
sS'attrParentLongName'
p822
VrotateAxis
p823
sS'attrChildrenNames'
p824
(lp825
sg47
VdoubleAngle
p826
sS'isMulti'
p827
I00
sS'isCompound'
p828
I00
sg51
I01
sg52
Vraz
p829
sg14
(lp830
sS'isElement'
p831
I00
ssVpublishedNodeInfo[0]
p832
(dp833
S'isArray'
p834
I00
sg14
(lp835
VpublishedNodeInfo[0].publishedNode
p836
aVpublishedNodeInfo[0].isHierarchicalNode
p837
aVpublishedNodeInfo[0].publishedNodeType
p838
asS'attrChildrenNames'
p839
(lp840
VpublishedNodeInfo[0].publishedNode
p841
aVpublishedNodeInfo[0].isHierarchicalNode
p842
aVpublishedNodeInfo[0].publishedNodeType
p843
asg71
I00
sg52
Vpni[0]
p844
ssVghostRangeEnd
p845
(dp846
S'isArray'
p847
I00
sg47
Vtime
p848
sS'attrChildrenNames'
p849
(lp850
sS'isMulti'
p851
I00
sS'isCompound'
p852
I00
sg51
I01
sg52
Vgre
p853
sg14
(lp854
sS'isElement'
p855
I00
ssVparentInverseMatrix[6]
p856
(dp857
g19
I00
sg20
I00
sg21
(lp858
sg23
I00
sg24
NssVworldMatrix[2]
p859
(dp860
g19
I00
sg86
Nsg21
(lp861
sg83
I00
sg85
I00
sg14
(lp862
ssVpublishedNodeInfo[0].publishedNode
p863
(dp864
S'isArray'
p865
I00
sS'attrParentLongName'
p866
VpublishedNodeInfo[0]
p867
sS'attrChildrenNames'
p868
(lp869
sg71
I00
sg52
Vpni[0].pnod
p870
sg14
(lp871
sS'isElement'
p872
I00
ssVdynamics
p873
(dp874
S'isArray'
p875
I00
sg47
Vbool
p876
sS'attrChildrenNames'
p877
(lp878
sS'isMulti'
p879
I00
sS'isCompound'
p880
I00
sg51
I01
sg52
Vdyn
p881
sg14
(lp882
sS'isElement'
p883
I00
ssVpublishedNodeInfo[1].isHierarchicalNode
p884
(dp885
g69
I00
sg52
Vpni[1].ihn
p886
sg71
I00
sg14
(lp887
ssVtemplateVersion
p888
(dp889
S'isArray'
p890
I00
sg47
Vlong
p891
sS'attrChildrenNames'
p892
(lp893
sS'isMulti'
p894
I00
sS'isCompound'
p895
I00
sg51
I01
sg52
Vtpv
p896
sg14
(lp897
sS'isElement'
p898
I00
ssVmaxTransLimit.maxTransZLimit
p899
(dp900
g158
I00
sg159
VdoubleLinear
p901
sg161
I00
sg162
I00
sg163
I01
sg52
Vxtzl
p902
sg165
(lp903
ssVinstObjGroups[1].objectGroups
p904
(dp905
g69
I01
sg52
Viog[1].og
p906
sg71
I00
ssVscale
p907
(dp908
S'isArray'
p909
I00
sS'attrType'
p910
Vdouble3
p911
sS'attrChildrenNames'
p912
(lp913
VscaleX
p914
aVscaleY
p915
aVscaleZ
p916
asS'isMulti'
p917
I00
sS'isCompound'
p918
I01
sg10
I01
sg11
Vs
p919
sS'isReadable'
p920
I00
sg14
(lp921
Vscale.scaleX
p922
aVscale.scaleY
p923
aVscale.scaleZ
p924
asS'isElement'
p925
I00
ssVmatrix
p926
(dp927
S'isArray'
p928
I00
sS'attrType'
p929
Vmatrix
p930
sS'attrChildrenNames'
p931
(lp932
sS'isMulti'
p933
I00
sS'isCompound'
p934
I00
sg10
I00
sg11
Vm
p935
sS'isReadable'
p936
I00
sg14
(lp937
sS'isElement'
p938
I00
ssVtransMinusRotatePivot.transMinusRotatePivotZ
p939
(dp940
S'isArray'
p941
I00
sS'attrParentLongName'
p942
VtransMinusRotatePivot
p943
sS'attrChildrenNames'
p944
(lp945
sg47
VdoubleLinear
p946
sS'isMulti'
p947
I00
sS'isCompound'
p948
I00
sg51
I01
sg52
Vtmrz
p949
sg14
(lp950
sS'isElement'
p951
I00
ssVselectHandle.selectHandleX
p952
(dp953
S'isArray'
p954
I00
sS'attrParentLongName'
p955
VselectHandle
p956
sS'attrChildrenNames'
p957
(lp958
sg47
VdoubleLinear
p959
sS'isMulti'
p960
I00
sS'isCompound'
p961
I00
sg51
I01
sg52
Vhdlx
p962
sg14
(lp963
sS'isElement'
p964
I00
ssVselectHandle.selectHandleY
p965
(dp966
S'isArray'
p967
I00
sS'attrParentLongName'
p968
VselectHandle
p969
sS'attrChildrenNames'
p970
(lp971
sg47
VdoubleLinear
p972
sS'isMulti'
p973
I00
sS'isCompound'
p974
I00
sg51
I01
sg52
Vhdly
p975
sg14
(lp976
sS'isElement'
p977
I00
ssVselectHandle.selectHandleZ
p978
(dp979
S'isArray'
p980
I00
sS'attrParentLongName'
p981
VselectHandle
p982
sS'attrChildrenNames'
p983
(lp984
sg47
VdoubleLinear
p985
sS'isMulti'
p986
I00
sS'isCompound'
p987
I00
sg51
I01
sg52
Vhdlz
p988
sg14
(lp989
sS'isElement'
p990
I00
ssVworldMatrix[16]
p991
(dp992
g254
I00
sg255
(lp993
ssVmaxRotLimitEnable.maxRotZLimitEnable
p994
(dp995
g158
I00
sg159
Vbool
p996
sg161
I00
sg162
I00
sg163
I01
sg52
Vxrze
p997
sg165
(lp998
ssVminScaleLimitEnable.minScaleYLimitEnable
p999
(dp1000
g158
I00
sg159
Vbool
p1001
sg161
I00
sg162
I00
sg163
I01
sg52
Vmsye
p1002
sg165
(lp1003
ssVworldMatrix
p1004
(dp1005
S'isArray'
p1006
I01
sS'attrType'
p1007
Vmatrix
p1008
sS'attrChildrenNames'
p1009
(lp1010
sS'isMulti'
p1011
I01
sg10
I00
sg11
Vwm
p1012
sS'isReadable'
p1013
I00
sS'isElement'
p1014
I00
ssVworldInverseMatrix[17]
p1015
(dp1016
g254
I00
sg255
(lp1017
ssVtemplate
p1018
(dp1019
S'isArray'
p1020
I00
sg47
Vbool
p1021
sS'attrChildrenNames'
p1022
(lp1023
sS'isMulti'
p1024
I00
sS'isCompound'
p1025
I00
sg51
I01
sg52
Vtmp
p1026
sg14
(lp1027
sS'isElement'
p1028
I00
ssVinstObjGroups[0].objectGroups[1].objectGrpColor
p1029
(dp1030
g69
I00
sg52
Viog[0].og[1].gco
p1031
sg71
I00
sg14
(lp1032
ssVcontainerType
p1033
(dp1034
S'isArray'
p1035
I00
sg47
Vstring
p1036
sS'attrChildrenNames'
p1037
(lp1038
sS'isMulti'
p1039
I00
sS'isCompound'
p1040
I00
sg51
I01
sg52
Vctyp
p1041
sg14
(lp1042
sS'isElement'
p1043
I00
ssVrotate.rotateZ
p1044
(dp1045
g27
I00
sS'attrType'
p1046
VdoubleAngle
p1047
sg32
(lp1048
sS'isMulti'
p1049
I00
sg35
Nsg36
I00
sg37
I01
sg11
Vrz
p1050
sg14
(lp1051
ssVminScaleLimit.minScaleZLimit
p1052
(dp1053
g158
I00
sg159
Vdouble
p1054
sg161
I00
sg162
I00
sg163
I01
sg52
Vmszl
p1055
sg165
(lp1056
ssVparentMatrix[13]
p1057
(dp1058
g75
I00
sg76
I00
sg77
(lp1059
sg79
I00
sg80
NssVscalePivot.scalePivotX
p1060
(dp1061
S'isArray'
p1062
I00
sS'attrParentLongName'
p1063
VscalePivot
p1064
sS'attrChildrenNames'
p1065
(lp1066
sg47
VdoubleLinear
p1067
sS'isMulti'
p1068
I00
sS'isCompound'
p1069
I00
sg51
I01
sg52
Vspx
p1070
sg14
(lp1071
sS'isElement'
p1072
I00
ssVscalePivot.scalePivotY
p1073
(dp1074
S'isArray'
p1075
I00
sS'attrParentLongName'
p1076
VscalePivot
p1077
sS'attrChildrenNames'
p1078
(lp1079
sg47
VdoubleLinear
p1080
sS'isMulti'
p1081
I00
sS'isCompound'
p1082
I00
sg51
I01
sg52
Vspy
p1083
sg14
(lp1084
sS'isElement'
p1085
I00
ssVscalePivot.scalePivotZ
p1086
(dp1087
S'isArray'
p1088
I00
sS'attrParentLongName'
p1089
VscalePivot
p1090
sS'attrChildrenNames'
p1091
(lp1092
sg47
VdoubleLinear
p1093
sS'isMulti'
p1094
I00
sS'isCompound'
p1095
I00
sg51
I01
sg52
Vspz
p1096
sg14
(lp1097
sS'isElement'
p1098
I00
ssVworldInverseMatrix[7]
p1099
(dp1100
g19
I00
sg20
I00
sg21
(lp1101
sg23
I00
sg24
NssVparentInverseMatrix
p1102
(dp1103
S'isArray'
p1104
I01
sS'attrType'
p1105
Vmatrix
p1106
sS'attrChildrenNames'
p1107
(lp1108
sS'isMulti'
p1109
I01
sg10
I00
sg11
Vpim
p1110
sS'isReadable'
p1111
I00
sS'isElement'
p1112
I00
ssg673
(dp1113
g158
I00
sg159
VdoubleAngle
p1114
sg161
I00
sg162
I00
sg163
I01
sg52
Vmrzl
p1115
sg165
(lp1116
ssVviewName
p1117
(dp1118
S'isArray'
p1119
I00
sg47
Vstring
p1120
sS'attrChildrenNames'
p1121
(lp1122
sS'isMulti'
p1123
I00
sS'isCompound'
p1124
I00
sg51
I01
sg52
Vvwn
p1125
sg14
(lp1126
sS'isElement'
p1127
I00
ssVpublishedNodeInfo.publishedNodeType
p1128
(dp1129
S'attrParentLongName'
p1130
VpublishedNodeInfo
p1131
ssVparentInverseMatrix[1]
p1132
(dp1133
g551
I00
sg552
Nsg553
(lp1134
sg83
I00
sg85
I00
sg11
Vpim[1]
p1135
sg556
I00
sg14
(lp1136
ssVpublishedNodeInfo[1]
p1137
(dp1138
g834
I00
sg14
(lp1139
VpublishedNodeInfo[1].publishedNode
p1140
ag884
aVpublishedNodeInfo[1].publishedNodeType
p1141
asg839
(lp1142
VpublishedNodeInfo[1].publishedNode
p1143
aVpublishedNodeInfo[1].isHierarchicalNode
p1144
aVpublishedNodeInfo[1].publishedNodeType
p1145
asg71
I00
sg52
Vpni[1]
p1146
ssVmaxTransLimit
p1147
(dp1148
g158
I00
sg159
Vdouble3
p1149
sg161
I00
sg162
I01
sg163
I01
sg52
Vmxtl
p1150
sg165
(lp1151
VmaxTransLimit.maxTransXLimit
p1152
aVmaxTransLimit.maxTransYLimit
p1153
ag899
assg638
(dp1154
g158
I00
sg159
VdoubleLinear
p1155
sg161
I00
sg162
I00
sg163
I01
sg52
Vmtxl
p1156
sg165
(lp1157
ssVdisplayScalePivot
p1158
(dp1159
S'isArray'
p1160
I00
sg47
Vbool
p1161
sS'attrChildrenNames'
p1162
(lp1163
sS'isMulti'
p1164
I00
sS'isCompound'
p1165
I00
sg51
I01
sg52
Vdsp
p1166
sg14
(lp1167
sS'isElement'
p1168
I00
ssVrenderInfo.layerRenderable
p1169
(dp1170
S'isArray'
p1171
I00
sS'attrParentLongName'
p1172
VrenderInfo
p1173
sS'attrChildrenNames'
p1174
(lp1175
sg47
Vbool
p1176
sS'isMulti'
p1177
I00
sS'isCompound'
p1178
I00
sg51
I01
sg52
Vrndr
p1179
sg14
(lp1180
sS'isElement'
p1181
I00
ssVminTransLimitEnable.minTransXLimitEnable
p1182
(dp1183
g158
I00
sg159
Vbool
p1184
sg161
I00
sg162
I00
sg163
I01
sg52
Vmtxe
p1185
sg165
(lp1186
ssg639
(dp1187
g158
I00
sg159
VdoubleLinear
p1188
sg161
I00
sg162
I00
sg163
I01
sg52
Vmtyl
p1189
sg165
(lp1190
ssVrmbCommand
p1191
(dp1192
g158
I00
sg159
Vstring
p1193
sg161
I00
sg162
I00
sg163
I01
sg52
Vrmc
p1194
sg165
(lp1195
ssVcreationDate
p1196
(dp1197
S'isArray'
p1198
I00
sg47
Vstring
p1199
sS'attrChildrenNames'
p1200
(lp1201
sS'isMulti'
p1202
I00
sS'isCompound'
p1203
I00
sg51
I01
sg52
Vcdat
p1204
sg14
(lp1205
sS'isElement'
p1206
I00
ssVparentInverseMatrix[13]
p1207
(dp1208
g75
I00
sg76
I00
sg77
(lp1209
sg79
I00
sg80
NssVmentalRayControls.miHide
p1210
(dp1211
S'isArray'
p1212
I00
sS'attrParentLongName'
p1213
VmentalRayControls
p1214
sS'attrChildrenNames'
p1215
(lp1216
sg47
Vbool
p1217
sS'isMulti'
p1218
I00
sS'isCompound'
p1219
I00
sg51
I01
sg52
Vhde
p1220
sg14
(lp1221
sS'isElement'
p1222
I00
ssVmaxRotLimit
p1223
(dp1224
g158
I00
sg159
Vdouble3
p1225
sg161
I00
sg162
I01
sg163
I01
sg52
Vmxrl
p1226
sg165
(lp1227
VmaxRotLimit.maxRotXLimit
p1228
ag257
aVmaxRotLimit.maxRotZLimit
p1229
assVghostCustomSteps.ghostPreSteps
p1230
(dp1231
S'isArray'
p1232
I00
sS'attrParentLongName'
p1233
VghostCustomSteps
p1234
sS'attrChildrenNames'
p1235
(lp1236
sg47
Vlong
p1237
sS'isMulti'
p1238
I00
sS'isCompound'
p1239
I00
sg51
I01
sg52
Vgpr
p1240
sg14
(lp1241
sS'isElement'
p1242
I00
ssg1141
(dp1243
g69
I00
sg52
Vpni[1].pntp
p1244
sg71
I00
sg14
(lp1245
ssVparentMatrix[10]
p1246
(dp1247
g75
I00
sg212
I00
sg77
(lp1248
sg214
I00
sg215
NssVpublishedNodeInfo
p1249
(dp1250
S'isArray'
p1251
I01
sg47
VTdataCompound
p1252
sS'isMulti'
p1253
I01
sg51
I00
sg52
Vpni
p1254
sS'isElement'
p1255
I00
ssg1140
(dp1256
g69
I00
sg52
Vpni[1].pnod
p1257
sg71
I00
sg14
(lp1258
ssViconName
p1259
(dp1260
S'isArray'
p1261
I00
sg47
Vstring
p1262
sS'attrChildrenNames'
p1263
(lp1264
sS'isMulti'
p1265
I00
sS'isCompound'
p1266
I00
sg51
I01
sg52
Vicn
p1267
sg14
(lp1268
sS'isElement'
p1269
I00
ssVmaxTriangles
p1270
(dp1271
S'isArray'
p1272
I00
sS'isElement'
p1273
I00
sS'isCompound'
p1274
I00
sS'attrShortName'
p1275
Vtsl
p1276
sS'isMulti'
p1277
I00
ssVscale.scaleZ
p1278
(dp1279
g27
I00
sS'attrType'
p1280
Vdouble
p1281
sg32
(lp1282
sS'isMulti'
p1283
I00
sg35
Nsg36
I00
sg37
I01
sg11
Vsz
p1284
sg14
(lp1285
ssVscale.scaleX
p1286
(dp1287
g27
I00
sS'attrType'
p1288
Vdouble
p1289
sg32
(lp1290
sS'isMulti'
p1291
I00
sg35
Nsg36
I00
sg37
I01
sg11
Vsx
p1292
sg14
(lp1293
ssVscale.scaleY
p1294
(dp1295
g27
I00
sg1280
Vdouble
p1296
sg32
(lp1297
sg1283
I00
sg35
Nsg36
I00
sg37
I01
sg11
Vsy
p1298
sg14
(lp1299
ssg1229
(dp1300
g158
I00
sg159
VdoubleAngle
p1301
sg161
I00
sg162
I00
sg163
I01
sg52
Vxrzl
p1302
sg165
(lp1303
ssVworldInverseMatrix[14]
p1304
(dp1305
g254
I00
sg76
I00
sg255
(lp1306
sg79
I00
sg80
NssVinstObjGroups[0].objectGroups[1]
p1307
(dp1308
g834
I00
sg14
(lp1309
VinstObjGroups[0].objectGroups[1].objectGrpCompList
p1310
ag67
ag1029
asg839
(lp1311
VinstObjGroups[0].objectGroups[1].objectGrpCompList
p1312
aVinstObjGroups[0].objectGroups[1].objectGroupId
p1313
aVinstObjGroups[0].objectGroups[1].objectGrpColor
p1314
asg71
I00
sg52
Viog[0].og[1]
p1315
ssVboundingBox.boundingBoxMax
p1316
(dp1317
S'isArray'
p1318
I00
sS'attrParentLongName'
p1319
VboundingBox
p1320
sS'attrChildrenNames'
p1321
(lp1322
VboundingBox.boundingBoxMax.boundingBoxMaxX
p1323
aVboundingBox.boundingBoxMax.boundingBoxMaxY
p1324
aVboundingBox.boundingBoxMax.boundingBoxMaxZ
p1325
asg47
Vdouble3
p1326
sS'isMulti'
p1327
I00
sS'isCompound'
p1328
I01
sg51
I01
sg14
(lp1329
VboundingBox.boundingBoxMax.boundingBoxMaxX
p1330
aVboundingBox.boundingBoxMax.boundingBoxMaxY
p1331
aVboundingBox.boundingBoxMax.boundingBoxMaxZ
p1332
asS'isElement'
p1333
I00
ssVrenderLayerInfo[1].renderLayerColor
p1334
(dp1335
g69
I00
sg52
Vrlio[1].rlc
p1336
sg71
I00
sg14
(lp1337
ssVpublishedNodeInfo[0].publishedNodeType
p1338
(dp1339
S'isArray'
p1340
I00
sS'attrParentLongName'
p1341
VpublishedNodeInfo[0]
p1342
sS'attrChildrenNames'
p1343
(lp1344
sg71
I00
sg52
Vpni[0].pntp
p1345
sg14
(lp1346
sS'isElement'
p1347
I00
ssVisHierarchicalConnection
p1348
(dp1349
g158
I01
sg159
VTdataCompound
p1350
sg52
Vish
p1351
sg163
I00
sg161
I01
ssVgeometry
p1352
(dp1353
S'isArray'
p1354
I00
sg47
NsS'attrChildrenNames'
p1355
(lp1356
sS'isMulti'
p1357
I00
sS'isCompound'
p1358
I00
sg51
I00
sg52
Vg
p1359
sg14
(lp1360
sS'isElement'
p1361
I00
ssVmentalRayControls.miTrace
p1362
(dp1363
S'isArray'
p1364
I00
sS'attrParentLongName'
p1365
VmentalRayControls
p1366
sS'attrChildrenNames'
p1367
(lp1368
sg47
Venum
p1369
sS'isMulti'
p1370
I00
sS'isCompound'
p1371
I00
sg51
I01
sg52
Vtrc
p1372
sg14
(lp1373
sS'isElement'
p1374
I00
ssVmaxScaleLimit.maxScaleYLimit
p1375
(dp1376
g158
I00
sg159
Vdouble
p1377
sg161
I00
sg162
I00
sg163
I01
sg52
Vxsyl
p1378
sg165
(lp1379
ssVparentInverseMatrix[4]
p1380
(dp1381
g19
I00
sg83
I00
sg21
(lp1382
sg85
I00
sg86
NssVinstObjGroups
p1383
(dp1384
S'isArray'
p1385
I01
sg47
VTdataCompound
p1386
sS'isMulti'
p1387
I01
sg51
I00
sg52
Viog
p1388
sS'isElement'
p1389
I00
ssg1153
(dp1390
g158
I00
sg159
VdoubleLinear
p1391
sg161
I00
sg162
I00
sg163
I01
sg52
Vxtyl
p1392
sg165
(lp1393
ssVdisplayHandle
p1394
(dp1395
S'isArray'
p1396
I00
sg47
Vbool
p1397
sS'attrChildrenNames'
p1398
(lp1399
sS'isMulti'
p1400
I00
sS'isCompound'
p1401
I00
sg51
I01
sg52
Vdh
p1402
sg14
(lp1403
sS'isElement'
p1404
I00
ssVmaxTransLimitEnable
p1405
(dp1406
g158
I00
sg159
VTdataCompound
p1407
sg161
I00
sg163
I00
sg52
Vxtle
p1408
sg165
(lp1409
VmaxTransLimitEnable.maxTransXLimitEnable
p1410
aVmaxTransLimitEnable.maxTransYLimitEnable
p1411
ag544
assVworldInverseMatrix[16]
p1412
(dp1413
g254
I00
sg255
(lp1414
ssVworldMatrix[8]
p1415
(dp1416
g246
I00
sg212
I00
sg247
(lp1417
sg214
I00
sg215
NssVscaleY
p1418
(dp1419
S'isArray'
p1420
I00
sS'attrParentLongName'
p1421
Vscale
p1422
sS'attrChildrenNames'
p1423
(lp1424
sS'attrType'
p1425
Vdouble
p1426
sS'isMulti'
p1427
I00
sS'isCompound'
p1428
I00
sg10
I01
sS'isReadable'
p1429
I00
sS'isElement'
p1430
I00
ssVworldMatrix[5]
p1431
(dp1432
g19
I00
sg83
I00
sg21
(lp1433
sg85
I00
sg86
NssVparentMatrix[6]
p1434
(dp1435
g19
I00
sg20
I00
sg21
(lp1436
sg23
I00
sg24
NssVrotateQuaternion
p1437
(dp1438
S'isArray'
p1439
I00
sg47
Vdouble4
p1440
sS'attrChildrenNames'
p1441
(lp1442
VrotateQuaternion.rotateQuaternionX
p1443
aVrotateQuaternion.rotateQuaternionY
p1444
aVrotateQuaternion.rotateQuaternionZ
p1445
aVrotateQuaternion.rotateQuaternionW
p1446
asS'isMulti'
p1447
I00
sS'isCompound'
p1448
I01
sg51
I00
sg52
Vrq
p1449
sg14
(lp1450
VrotateQuaternion.rotateQuaternionX
p1451
aVrotateQuaternion.rotateQuaternionY
p1452
aVrotateQuaternion.rotateQuaternionZ
p1453
aVrotateQuaternion.rotateQuaternionW
p1454
asS'isElement'
p1455
I00
ssVmentalRayControls.miGlobillum
p1456
(dp1457
S'isArray'
p1458
I00
sS'attrParentLongName'
p1459
VmentalRayControls
p1460
sS'attrChildrenNames'
p1461
(lp1462
sg47
Venum
p1463
sS'isMulti'
p1464
I00
sS'isCompound'
p1465
I00
sg51
I01
sg52
Vglb
p1466
sg14
(lp1467
sS'isElement'
p1468
I00
ssVdrawOverride.overrideVisibility
p1469
(dp1470
S'isArray'
p1471
I00
sS'attrParentLongName'
p1472
VdrawOverride
p1473
sS'attrChildrenNames'
p1474
(lp1475
sg47
Vbool
p1476
sS'isMulti'
p1477
I00
sS'isCompound'
p1478
I00
sg51
I01
sg52
Vovv
p1479
sg14
(lp1480
sS'isElement'
p1481
I00
ssVmaxScaleLimit
p1482
(dp1483
g158
I00
sg159
Vdouble3
p1484
sg161
I00
sg162
I01
sg163
I01
sg52
Vmxsl
p1485
sg165
(lp1486
VmaxScaleLimit.maxScaleXLimit
p1487
ag1375
aVmaxScaleLimit.maxScaleZLimit
p1488
assVshear.shearYZ
p1489
(dp1490
g27
I00
sS'attrType'
p1491
Vdouble
p1492
sg32
(lp1493
sS'isMulti'
p1494
I00
sg36
I00
sg37
I01
sg11
Vshyz
p1495
sg14
(lp1496
ssVghosting
p1497
(dp1498
S'isArray'
p1499
I00
sg47
Vbool
p1500
sS'attrChildrenNames'
p1501
(lp1502
sS'isMulti'
p1503
I00
sS'isCompound'
p1504
I00
sg51
I01
sg52
Vgh
p1505
sg14
(lp1506
sS'isElement'
p1507
I00
ssVworldInverseMatrix[2]
p1508
(dp1509
g19
I00
sg86
Nsg21
(lp1510
sg83
I00
sg85
I00
sS'attrChildrenLongNames'
p1511
(lp1512
ssVinheritsTransform
p1513
(dp1514
S'isArray'
p1515
I00
sS'attrType'
p1516
Vbool
p1517
sS'attrChildrenNames'
p1518
(lp1519
sS'isMulti'
p1520
I00
sS'isCompound'
p1521
I00
sg10
I01
sg11
Vit
p1522
sS'isReadable'
p1523
I00
sg14
(lp1524
sS'isElement'
p1525
I00
ssVtransMinusRotatePivot.transMinusRotatePivotX
p1526
(dp1527
S'isArray'
p1528
I00
sS'attrParentLongName'
p1529
VtransMinusRotatePivot
p1530
sS'attrChildrenNames'
p1531
(lp1532
sg47
VdoubleLinear
p1533
sS'isMulti'
p1534
I00
sS'isCompound'
p1535
I00
sg51
I01
sg52
Vtmrx
p1536
sg14
(lp1537
sS'isElement'
p1538
I00
ssVtransMinusRotatePivot.transMinusRotatePivotY
p1539
(dp1540
S'isArray'
p1541
I00
sS'attrParentLongName'
p1542
VtransMinusRotatePivot
p1543
sS'attrChildrenNames'
p1544
(lp1545
sg47
VdoubleLinear
p1546
sS'isMulti'
p1547
I00
sS'isCompound'
p1548
I00
sg51
I01
sg52
Vtmry
p1549
sg14
(lp1550
sS'isElement'
p1551
I00
ssVisHistoricallyInteresting
p1552
(dp1553
S'isArray'
p1554
I00
sg47
Vbyte
p1555
sS'attrChildrenNames'
p1556
(lp1557
sS'isMulti'
p1558
I00
sS'isCompound'
p1559
I00
sg51
I00
sg52
Vihi
p1560
sg14
(lp1561
sS'isElement'
p1562
I00
ssVrotationInterpolation
p1563
(dp1564
S'isArray'
p1565
I00
sg47
Venum
p1566
sS'attrChildrenNames'
p1567
(lp1568
sS'isMulti'
p1569
I00
sS'isCompound'
p1570
I00
sg51
I01
sg52
Vroi
p1571
sg14
(lp1572
sS'isElement'
p1573
I00
ssVminScaleLimit.minScaleYLimit
p1574
(dp1575
g158
I00
sg159
Vdouble
p1576
sg161
I00
sg162
I00
sg163
I01
sg52
Vmsyl
p1577
sg165
(lp1578
ssg671
(dp1579
g158
I00
sg159
VdoubleAngle
p1580
sg161
I00
sg162
I00
sg163
I01
sg52
Vmrxl
p1581
sg165
(lp1582
ssVshearYZ
p1583
(dp1584
S'isArray'
p1585
I00
sS'attrParentLongName'
p1586
Vshear
p1587
sS'attrChildrenNames'
p1588
(lp1589
sS'attrType'
p1590
Vdouble
p1591
sS'isMulti'
p1592
I00
sS'isCompound'
p1593
I00
sg10
I01
sS'isReadable'
p1594
I00
sS'isElement'
p1595
I00
ssVparentMatrix[8]
p1596
(dp1597
g246
I00
sg212
I00
sg247
(lp1598
sg214
I00
sg215
NssVparentMatrix[4]
p1599
(dp1600
g19
I00
sg83
I00
sg21
(lp1601
sg85
I00
sg86
NssVscaleX
p1602
(dp1603
S'isArray'
p1604
I00
sS'attrParentLongName'
p1605
Vscale
p1606
sS'attrChildrenNames'
p1607
(lp1608
sS'attrType'
p1609
Vdouble
p1610
sS'isMulti'
p1611
I00
sS'isWritable'
p1612
I01
sS'isCompound'
p1613
I00
sg10
I01
sS'isReadable'
p1614
I00
sS'isElement'
p1615
I00
ssVinstObjGroups[2].objectGroups
p1616
(dp1617
S'isArray'
p1618
I01
sS'isSimple'
p1619
I00
ssVscaleZ
p1620
(dp1621
S'isArray'
p1622
I00
sS'attrParentLongName'
p1623
Vscale
p1624
sS'attrChildrenNames'
p1625
(lp1626
sS'attrType'
p1627
Vdouble
p1628
sS'isMulti'
p1629
I00
sS'isCompound'
p1630
I00
sg10
I01
sS'isReadable'
p1631
I00
sS'isElement'
p1632
I00
ssVparentMatrix[3]
p1633
(dp1634
g19
I00
sg86
Nsg21
(lp1635
sg83
I00
sg85
I00
sS'attrChildrenLongNames'
p1636
(lp1637
ssVxformMatrix
p1638
(dp1639
S'isArray'
p1640
I00
sg47
Vmatrix
p1641
sS'attrChildrenNames'
p1642
(lp1643
sS'isMulti'
p1644
I00
sS'isCompound'
p1645
I00
sg51
I00
sg52
Vxm
p1646
sg14
(lp1647
sS'isElement'
p1648
I00
ssVinstObjGroups[1]
p1649
(dp1650
g834
I00
sg14
(lp1651
g904
asg839
(lp1652
VinstObjGroups[1].objectGroups
p1653
asg71
I00
sg52
Viog[1]
p1654
ssVworldMatrix[10]
p1655
(dp1656
g75
I00
sg212
I00
sg77
(lp1657
sg214
I00
sg215
NssVtranslate
p1658
(dp1659
S'isArray'
p1660
I00
sS'attrType'
p1661
Vdouble3
p1662
sS'attrChildrenNames'
p1663
(lp1664
VtranslateX
p1665
aVtranslateY
p1666
aVtranslateZ
p1667
asS'isMulti'
p1668
I00
sS'isCompound'
p1669
I01
sg10
I01
sg11
Vt
p1670
sS'isReadable'
p1671
I00
sg14
(lp1672
Vtranslate.translateX
p1673
aVtranslate.translateY
p1674
aVtranslate.translateZ
p1675
asS'isElement'
p1676
I00
ssVworldMatrix[17]
p1677
(dp1678
g254
I00
sg255
(lp1679
ssVinstObjGroups.objectGroups
p1680
(dp1681
S'attrParentLongName'
p1682
VinstObjGroups
p1683
sS'isElement'
p1684
I00
ssVdrawOverride
p1685
(dp1686
S'isArray'
p1687
I00
sg47
VTdataCompound
p1688
sS'attrChildrenNames'
p1689
(lp1690
VdrawOverride.overrideDisplayType
p1691
aVdrawOverride.overrideLevelOfDetail
p1692
aVdrawOverride.overrideShading
p1693
aVdrawOverride.overrideTexturing
p1694
aVdrawOverride.overridePlayback
p1695
aVdrawOverride.overrideEnabled
p1696
aVdrawOverride.overrideVisibility
p1697
aVdrawOverride.overrideColor
p1698
asS'isMulti'
p1699
I00
sS'isCompound'
p1700
I01
sg51
I00
sg52
Vdo
p1701
sg14
(lp1702
VdrawOverride.overrideDisplayType
p1703
aVdrawOverride.overrideLevelOfDetail
p1704
aVdrawOverride.overrideShading
p1705
aVdrawOverride.overrideTexturing
p1706
aVdrawOverride.overridePlayback
p1707
aVdrawOverride.overrideEnabled
p1708
aVdrawOverride.overrideVisibility
p1709
aVdrawOverride.overrideColor
p1710
asS'isElement'
p1711
I00
ssVshear.shearXZ
p1712
(dp1713
g27
I00
sg1491
Vdouble
p1714
sg32
(lp1715
sg1494
I00
sg36
I00
sg37
I01
sg11
Vshxz
p1716
sg14
(lp1717
ssVshear.shearXY
p1718
(dp1719
g27
I00
sg1491
Vdouble
p1720
sg32
(lp1721
sg1494
I00
sg36
I00
sg37
I01
sg11
Vshxy
p1722
sg14
(lp1723
ssVparentMatrix[1]
p1724
(dp1725
g551
I00
sg552
Nsg553
(lp1726
sg83
I00
sg85
I00
sg11
Vpm[1]
p1727
sg556
I00
sg14
(lp1728
ssVinstObjGroups[0].objectGroups[0]
p1729
(dp1730
g834
I00
sg14
(lp1731
VinstObjGroups[0].objectGroups[0].objectGrpCompList
p1732
aVinstObjGroups[0].objectGroups[0].objectGroupId
p1733
aVinstObjGroups[0].objectGroups[0].objectGrpColor
p1734
asg839
(lp1735
VinstObjGroups[0].objectGroups[0].objectGrpCompList
p1736
aVinstObjGroups[0].objectGroups[0].objectGroupId
p1737
aVinstObjGroups[0].objectGroups[0].objectGrpColor
p1738
asg71
I00
sg52
Viog[0].og[0]
p1739
ssVparentInverseMatrix[7]
p1740
(dp1741
g19
I00
sg20
I00
sg21
(lp1742
sg23
I00
sg24
NssVworldMatrix[13]
p1743
(dp1744
g75
I00
sg76
I00
sg77
(lp1745
sg79
I00
sg80
NssVvisibility
p1746
(dp1747
S'isArray'
p1748
I00
sS'attrType'
p1749
Vbool
p1750
sS'attrChildrenNames'
p1751
(lp1752
sS'isMulti'
p1753
I00
sS'isCompound'
p1754
I00
sg10
I01
sg11
Vv
p1755
sS'isReadable'
p1756
I00
sg14
(lp1757
sS'isElement'
p1758
I00
ssVworldMatrix[3]
p1759
(dp1760
g19
I00
sg83
I00
sg21
(lp1761
sg85
I00
sg86
NssVmaxRotLimitEnable
p1762
(dp1763
g158
I00
sg159
VTdataCompound
p1764
sg161
I00
sg163
I00
sg52
Vxrle
p1765
sg165
(lp1766
g156
aVmaxRotLimitEnable.maxRotYLimitEnable
p1767
ag994
assVparentInverseMatrix[15]
p1768
(dp1769
g254
I00
sg76
I00
sg255
(lp1770
sg79
I00
sg80
NssVghostCustomSteps.ghostStepSize
p1771
(dp1772
S'isArray'
p1773
I00
sS'attrParentLongName'
p1774
VghostCustomSteps
p1775
sS'attrChildrenNames'
p1776
(lp1777
sg47
Vlong
p1778
sS'isMulti'
p1779
I00
sS'isCompound'
p1780
I00
sg51
I01
sg52
Vgss
p1781
sg14
(lp1782
sS'isElement'
p1783
I00
ssVghostCustomSteps.ghostPostSteps
p1784
(dp1785
S'isArray'
p1786
I00
sS'attrParentLongName'
p1787
VghostCustomSteps
p1788
sS'attrChildrenNames'
p1789
(lp1790
sg47
Vlong
p1791
sS'isMulti'
p1792
I00
sS'isCompound'
p1793
I00
sg51
I01
sg52
Vgps
p1794
sg14
(lp1795
sS'isElement'
p1796
I00
ssg1228
(dp1797
g158
I00
sg159
VdoubleAngle
p1798
sg161
I00
sg162
I00
sg163
I01
sg52
Vxrxl
p1799
sg165
(lp1800
ssVworldInverseMatrix[5]
p1801
(dp1802
g19
I00
sg83
I00
sg21
(lp1803
sg85
I00
sg86
Nssg1488
(dp1804
g158
I00
sg159
Vdouble
p1805
sg161
I00
sg162
I00
sg163
I01
sg52
Vxszl
p1806
sg165
(lp1807
ssVcenter
p1808
(dp1809
S'isArray'
p1810
I00
sg47
Vdouble3
p1811
sS'attrChildrenNames'
p1812
(lp1813
Vcenter.boundingBoxCenterX
p1814
aVcenter.boundingBoxCenterY
p1815
aVcenter.boundingBoxCenterZ
p1816
asS'isMulti'
p1817
I00
sS'isCompound'
p1818
I01
sg51
I01
sg14
(lp1819
Vcenter.boundingBoxCenterX
p1820
aVcenter.boundingBoxCenterY
p1821
aVcenter.boundingBoxCenterZ
p1822
asS'isElement'
p1823
I00
ssg640
(dp1824
g158
I00
sg159
VdoubleLinear
p1825
sg161
I00
sg162
I00
sg163
I01
sg52
Vmtzl
p1826
sg165
(lp1827
ssg672
(dp1828
g158
I00
sg159
VdoubleAngle
p1829
sg161
I00
sg162
I00
sg163
I01
sg52
Vmryl
p1830
sg165
(lp1831
ssg1310
(dp1832
g69
I00
sg52
Viog[0].og[1].gcl
p1833
sg71
I00
sg14
(lp1834
ssVdrawOverride.overrideTexturing
p1835
(dp1836
S'isArray'
p1837
I00
sS'attrParentLongName'
p1838
VdrawOverride
p1839
sS'attrChildrenNames'
p1840
(lp1841
sg47
Vbool
p1842
sS'isMulti'
p1843
I00
sS'isCompound'
p1844
I00
sg51
I01
sg52
Vovt
p1845
sg14
(lp1846
sS'isElement'
p1847
I00
ssVtranslate.translateZ
p1848
(dp1849
g27
I00
sg202
VdoubleLinear
p1850
sg32
(lp1851
sg207
I00
sg35
Nsg36
I00
sg37
I01
sg11
Vtz
p1852
sg14
(lp1853
ssVboundingBox.boundingBoxSize
p1854
(dp1855
S'isArray'
p1856
I00
sS'attrParentLongName'
p1857
VboundingBox
p1858
sS'attrChildrenNames'
p1859
(lp1860
VboundingBox.boundingBoxSize.boundingBoxSizeX
p1861
aVboundingBox.boundingBoxSize.boundingBoxSizeY
p1862
aVboundingBox.boundingBoxSize.boundingBoxSizeZ
p1863
asg47
Vdouble3
p1864
sS'isMulti'
p1865
I00
sS'isCompound'
p1866
I01
sg51
I01
sg14
(lp1867
VboundingBox.boundingBoxSize.boundingBoxSizeX
p1868
aVboundingBox.boundingBoxSize.boundingBoxSizeY
p1869
aVboundingBox.boundingBoxSize.boundingBoxSizeZ
p1870
asS'isElement'
p1871
I00
ssVrenderInfo.layerOverrideColor
p1872
(dp1873
S'isArray'
p1874
I00
sS'attrParentLongName'
p1875
VrenderInfo
p1876
sS'attrChildrenNames'
p1877
(lp1878
sg47
Vbyte
p1879
sS'isMulti'
p1880
I00
sS'isCompound'
p1881
I00
sg51
I00
sg52
Vlovc
p1882
sg14
(lp1883
sS'isElement'
p1884
I00
ssVrenderLayerInfo[0]
p1885
(dp1886
g834
I00
sg14
(lp1887
VrenderLayerInfo[0].renderLayerId
p1888
aVrenderLayerInfo[0].renderLayerRenderable
p1889
aVrenderLayerInfo[0].renderLayerColor
p1890
asg839
(lp1891
VrenderLayerInfo[0].renderLayerId
p1892
aVrenderLayerInfo[0].renderLayerRenderable
p1893
aVrenderLayerInfo[0].renderLayerColor
p1894
asg71
I00
sg52
Vrlio[0]
p1895
ssVtemplateName
p1896
(dp1897
S'isArray'
p1898
I00
sg47
Vstring
p1899
sS'attrChildrenNames'
p1900
(lp1901
sS'isMulti'
p1902
I00
sS'isCompound'
p1903
I00
sg51
I01
sg52
Vtna
p1904
sg14
(lp1905
sS'isElement'
p1906
I00
ssVparentInverseMatrix[12]
p1907
(dp1908
g75
I00
sg76
I00
sg77
(lp1909
sg79
I00
sg80
NssVinstObjGroups.objectGroups.objectGrpCompList
p1910
(dp1911
g1130
VinstObjGroups.objectGroups
p1912
ssVminScaleLimit.minScaleXLimit
p1913
(dp1914
g158
I00
sg159
Vdouble
p1915
sg161
I00
sg162
I00
sg163
I01
sg52
Vmsxl
p1916
sg165
(lp1917
ssVdisplayRotatePivot
p1918
(dp1919
S'isArray'
p1920
I00
sg47
Vbool
p1921
sS'attrChildrenNames'
p1922
(lp1923
sS'isMulti'
p1924
I00
sS'isCompound'
p1925
I00
sg51
I01
sg52
Vdrp
p1926
sg14
(lp1927
sS'isElement'
p1928
I00
ssVminScaleLimitEnable.minScaleZLimitEnable
p1929
(dp1930
g158
I00
sg159
Vbool
p1931
sg161
I00
sg162
I00
sg163
I01
sg52
Vmsze
p1932
sg165
(lp1933
ssVbinMembership
p1934
(dp1935
g158
I00
sg159
Vstring
p1936
sg161
I00
sg162
I00
sg163
I01
sg52
Vbnm
p1937
sg165
(lp1938
ssg1410
(dp1939
g158
I00
sg159
Vbool
p1940
sg161
I00
sg162
I00
sg163
I01
sg52
Vxtxe
p1941
sg165
(lp1942
ssVinstObjGroups[0]
p1943
(dp1944
g834
I00
sS'attrType'
p1945
VTdataCompound
p1946
sg839
(lp1947
VinstObjGroups[0].objectGroups
p1948
asS'isMulti'
p1949
I00
sS'isSimple'
p1950
I00
sg52
Viog[0]
p1951
sg14
(lp1952
VinstObjGroups[0].objectGroups
p1953
assg1487
(dp1954
g158
I00
sg159
Vdouble
p1955
sg161
I00
sg162
I00
sg163
I01
sg52
Vxsxl
p1956
sg165
(lp1957
ssVmentalRayControls.miGeoShader
p1958
(dp1959
S'isArray'
p1960
I00
sS'attrParentLongName'
p1961
VmentalRayControls
p1962
sS'attrChildrenNames'
p1963
(lp1964
sg47
NsS'isMulti'
p1965
I00
sS'isCompound'
p1966
I00
sg51
I00
sg52
Vmigs
p1967
sg14
(lp1968
sS'isElement'
p1969
I00
ssVparentMatrix[9]
p1970
(dp1971
g246
I00
sg212
I00
sg247
(lp1972
sg214
I00
sg215
NssVmaxScaleLimitEnable.maxScaleZLimitEnable
p1973
(dp1974
g158
I00
sg159
Vbool
p1975
sg161
I00
sg162
I00
sg163
I01
sg52
Vxsze
p1976
sg165
(lp1977
ssVboundingBox.boundingBoxMin
p1978
(dp1979
S'isArray'
p1980
I00
sS'attrParentLongName'
p1981
VboundingBox
p1982
sS'attrChildrenNames'
p1983
(lp1984
VboundingBox.boundingBoxMin.boundingBoxMinX
p1985
aVboundingBox.boundingBoxMin.boundingBoxMinY
p1986
aVboundingBox.boundingBoxMin.boundingBoxMinZ
p1987
asg47
Vdouble3
p1988
sS'isMulti'
p1989
I00
sS'isCompound'
p1990
I01
sg51
I01
sg14
(lp1991
VboundingBox.boundingBoxMin.boundingBoxMinX
p1992
aVboundingBox.boundingBoxMin.boundingBoxMinY
p1993
aVboundingBox.boundingBoxMin.boundingBoxMinZ
p1994
asS'isElement'
p1995
I00
ssg1411
(dp1996
g158
I00
sg159
Vbool
p1997
sg161
I00
sg162
I00
sg163
I01
sg52
Vxtye
p1998
sg165
(lp1999
ssVscalePivot
p2000
(dp2001
S'isArray'
p2002
I00
sg47
Vdouble3
p2003
sS'attrChildrenNames'
p2004
(lp2005
VscalePivot.scalePivotX
p2006
aVscalePivot.scalePivotY
p2007
aVscalePivot.scalePivotZ
p2008
asS'isMulti'
p2009
I00
sS'isCompound'
p2010
I01
sg51
I01
sg52
Vsp
p2011
sg14
(lp2012
VscalePivot.scalePivotX
p2013
aVscalePivot.scalePivotY
p2014
aVscalePivot.scalePivotZ
p2015
asS'isElement'
p2016
I00
ssVspecifiedManipLocation
p2017
(dp2018
S'isArray'
p2019
I00
sg47
NsS'attrChildrenNames'
p2020
(lp2021
sS'isMulti'
p2022
I00
sS'isCompound'
p2023
I00
sg51
I00
sg52
Vsml
p2024
sg14
(lp2025
sS'isElement'
p2026
I00
ssVworldInverseMatrix[13]
p2027
(dp2028
g75
I00
sg76
I00
sg77
(lp2029
sg79
I00
sg80
NssVmentalRayControls.miCaustic
p2030
(dp2031
S'isArray'
p2032
I00
sS'attrParentLongName'
p2033
VmentalRayControls
p2034
sS'attrChildrenNames'
p2035
(lp2036
sg47
Venum
p2037
sS'isMulti'
p2038
I00
sS'isCompound'
p2039
I00
sg51
I01
sg52
Vcst
p2040
sg14
(lp2041
sS'isElement'
p2042
I00
ssVworldInverseMatrix[8]
p2043
(dp2044
g246
I00
sg212
I00
sg247
(lp2045
sg214
I00
sg215
NssVinstObjGroups[0].objectGroups
p2046
(dp2047
S'isArray'
p2048
I01
sS'attrParentLongName'
p2049
VinstObjGroups[0]
p2050
sg1945
VTdataCompound
p2051
sg1949
I01
sg1950
I00
sg52
Viog[0].og
p2052
sS'isElement'
p2053
I00
ssVworldInverseMatrix[10]
p2054
(dp2055
g75
I00
sg212
I00
sg77
(lp2056
sg214
I00
sg215
NssVmaxScaleLimitEnable.maxScaleYLimitEnable
p2057
(dp2058
g158
I00
sg159
Vbool
p2059
sg161
I00
sg162
I00
sg163
I01
sg52
Vxsye
p2060
sg165
(lp2061
ssVmentalRayControls
p2062
(dp2063
S'isArray'
p2064
I00
sg47
VTdataCompound
p2065
sS'attrChildrenNames'
p2066
(lp2067
VmentalRayControls.miDeriveFromMaya
p2068
aVmentalRayControls.miHide
p2069
aVmentalRayControls.miVisible
p2070
aVmentalRayControls.miTrace
p2071
aVmentalRayControls.miShadow
p2072
aVmentalRayControls.miCaustic
p2073
aVmentalRayControls.miGlobillum
p2074
aVmentalRayControls.miExportGeoShader
p2075
aVmentalRayControls.miGeoShader
p2076
aVmentalRayControls.miProxyRenderable
p2077
asS'isMulti'
p2078
I00
sS'isCompound'
p2079
I01
sg51
I00
sg52
Vmrc
p2080
sg14
(lp2081
VmentalRayControls.miDeriveFromMaya
p2082
aVmentalRayControls.miHide
p2083
aVmentalRayControls.miVisible
p2084
aVmentalRayControls.miTrace
p2085
aVmentalRayControls.miShadow
p2086
aVmentalRayControls.miCaustic
p2087
aVmentalRayControls.miGlobillum
p2088
aVmentalRayControls.miExportGeoShader
p2089
aVmentalRayControls.miGeoShader
p2090
aVmentalRayControls.miProxyRenderable
p2091
asS'isElement'
p2092
I00
ssVworldInverseMatrix[0]
p2093
(dp2094
g551
I00
sg552
Vmatrix
p2095
sg553
(lp2096
sg83
I00
sg85
I00
sg11
Vwim[0]
p2097
sg556
I00
sg14
(lp2098
ssVboundingBox.boundingBoxMax.boundingBoxMaxY
p2099
(dp2100
S'isArray'
p2101
I00
sS'attrParentLongName'
p2102
VboundingBox.boundingBoxMax
p2103
sS'attrChildrenNames'
p2104
(lp2105
sg47
VdoubleLinear
p2106
sS'isMulti'
p2107
I00
sS'isCompound'
p2108
I00
sg51
I01
sg14
(lp2109
sS'isElement'
p2110
I00
ssVparentMatrix[15]
p2111
(dp2112
g254
I00
sg76
I00
sg255
(lp2113
sg79
I00
sg80
NssVpublishedNodeInfo[0].isHierarchicalNode
p2114
(dp2115
S'isArray'
p2116
I00
sS'attrParentLongName'
p2117
VpublishedNodeInfo[0]
p2118
sS'attrChildrenNames'
p2119
(lp2120
sg71
I00
sg52
Vpni[0].ihn
p2121
sg14
(lp2122
sS'isElement'
p2123
I00
ssVboundingBox.boundingBoxMax.boundingBoxMaxZ
p2124
(dp2125
S'isArray'
p2126
I00
sS'attrParentLongName'
p2127
VboundingBox.boundingBoxMax
p2128
sS'attrChildrenNames'
p2129
(lp2130
sg47
VdoubleLinear
p2131
sS'isMulti'
p2132
I00
sS'isCompound'
p2133
I00
sg51
I01
sg14
(lp2134
sS'isElement'
p2135
I00
ssVboundingBox.boundingBoxMax.boundingBoxMaxX
p2136
(dp2137
S'isArray'
p2138
I00
sS'attrParentLongName'
p2139
VboundingBox.boundingBoxMax
p2140
sS'attrChildrenNames'
p2141
(lp2142
sg47
VdoubleLinear
p2143
sS'isMulti'
p2144
I00
sS'isCompound'
p2145
I00
sg51
I01
sg14
(lp2146
sS'isElement'
p2147
I00
ssg1767
(dp2148
g158
I00
sg159
Vbool
p2149
sg161
I00
sg162
I00
sg163
I01
sg52
Vxrye
p2150
sg165
(lp2151
ssVminScaleLimit
p2152
(dp2153
g158
I00
sg159
Vdouble3
p2154
sg161
I00
sg162
I01
sg163
I01
sg52
Vmnsl
p2155
sg165
(lp2156
g1913
ag1574
ag1052
assVmaxScaleLimitEnable
p2157
(dp2158
g158
I00
sg159
VTdataCompound
p2159
sg161
I00
sg163
I00
sg52
Vxsle
p2160
sg165
(lp2161
VmaxScaleLimitEnable.maxScaleXLimitEnable
p2162
ag2057
ag1973
assVdisplayLocalAxis
p2163
(dp2164
S'isArray'
p2165
I00
sg47
Vbool
p2166
sS'attrChildrenNames'
p2167
(lp2168
sS'isMulti'
p2169
I00
sS'isCompound'
p2170
I00
sg51
I01
sg52
Vdla
p2171
sg14
(lp2172
sS'isElement'
p2173
I00
ssVminRotLimitEnable.minRotYLimitEnable
p2174
(dp2175
g158
I00
sg159
Vbool
p2176
sg161
I00
sg162
I00
sg163
I01
sg52
Vmrye
p2177
sg165
(lp2178
ssVparentMatrix[12]
p2179
(dp2180
g75
I00
sg76
I00
sg77
(lp2181
sg79
I00
sg80
NssVrenderInfo.identification
p2182
(dp2183
S'isArray'
p2184
I00
sS'attrParentLongName'
p2185
VrenderInfo
p2186
sS'attrChildrenNames'
p2187
(lp2188
sg47
Vshort
p2189
sS'isMulti'
p2190
I00
sS'isCompound'
p2191
I00
sg51
I01
sg52
Vrlid
p2192
sg14
(lp2193
sS'isElement'
p2194
I00
ssVmentalRayControls.miExportGeoShader
p2195
(dp2196
S'isArray'
p2197
I00
sS'attrParentLongName'
p2198
VmentalRayControls
p2199
sS'attrChildrenNames'
p2200
(lp2201
sg47
Vbool
p2202
sS'isMulti'
p2203
I00
sS'isCompound'
p2204
I00
sg51
I01
sg52
Vmieg
p2205
sg14
(lp2206
sS'isElement'
p2207
I00
ssVboundingBox.boundingBoxSize.boundingBoxSizeZ
p2208
(dp2209
S'isArray'
p2210
I00
sS'attrParentLongName'
p2211
VboundingBox.boundingBoxSize
p2212
sS'attrChildrenNames'
p2213
(lp2214
sg47
VdoubleLinear
p2215
sS'isMulti'
p2216
I00
sS'isCompound'
p2217
I00
sg51
I01
sg14
(lp2218
sS'isElement'
p2219
I00
ssVlodVisibility
p2220
(dp2221
S'isArray'
p2222
I00
sg47
Vbool
p2223
sS'attrChildrenNames'
p2224
(lp2225
sS'isMulti'
p2226
I00
sS'isCompound'
p2227
I00
sg51
I01
sg52
Vlodv
p2228
sg14
(lp2229
sS'isElement'
p2230
I00
ssVselectHandle
p2231
(dp2232
S'isArray'
p2233
I00
sg47
Vdouble3
p2234
sS'attrChildrenNames'
p2235
(lp2236
VselectHandle.selectHandleX
p2237
aVselectHandle.selectHandleY
p2238
aVselectHandle.selectHandleZ
p2239
asS'isMulti'
p2240
I00
sS'isCompound'
p2241
I01
sg51
I01
sg52
Vhdl
p2242
sg14
(lp2243
VselectHandle.selectHandleX
p2244
aVselectHandle.selectHandleY
p2245
aVselectHandle.selectHandleZ
p2246
asS'isElement'
p2247
I00
ssVmentalRayControls.miShadow
p2248
(dp2249
S'isArray'
p2250
I00
sS'attrParentLongName'
p2251
VmentalRayControls
p2252
sS'attrChildrenNames'
p2253
(lp2254
sg47
Venum
p2255
sS'isMulti'
p2256
I00
sS'isCompound'
p2257
I00
sg51
I01
sg52
Vshd
p2258
sg14
(lp2259
sS'isElement'
p2260
I00
ssVghostingControl
p2261
(dp2262
S'isArray'
p2263
I00
sg47
Venum
p2264
sS'attrChildrenNames'
p2265
(lp2266
sS'isMulti'
p2267
I00
sS'isCompound'
p2268
I00
sg51
I01
sg52
Vgc
p2269
sg14
(lp2270
sS'isElement'
p2271
I00
ssVboundingBox
p2272
(dp2273
S'isArray'
p2274
I00
sg47
VTdataCompound
p2275
sS'attrChildrenNames'
p2276
(lp2277
VboundingBox.boundingBoxMin
p2278
aVboundingBox.boundingBoxMax
p2279
aVboundingBox.boundingBoxSize
p2280
asS'isMulti'
p2281
I00
sS'isCompound'
p2282
I01
sg51
I00
sg14
(lp2283
VboundingBox.boundingBoxMin
p2284
aVboundingBox.boundingBoxMax
p2285
aVboundingBox.boundingBoxSize
p2286
asS'isElement'
p2287
I00
ssVparentMatrix[17]
p2288
(dp2289
g254
I00
sg255
(lp2290
ssVworldMatrix[9]
p2291
(dp2292
g246
I00
sg212
I00
sg247
(lp2293
sg214
I00
sg215
NssVparentInverseMatrix[16]
p2294
(dp2295
g254
I00
sg255
(lp2296
ssVparentInverseMatrix[3]
p2297
(dp2298
g19
I00
sg83
I00
sg21
(lp2299
sg85
I00
sg86
NssVrotatePivotTranslate
p2300
(dp2301
S'isArray'
p2302
I00
sg47
Vdouble3
p2303
sS'attrChildrenNames'
p2304
(lp2305
VrotatePivotTranslate.rotatePivotTranslateX
p2306
aVrotatePivotTranslate.rotatePivotTranslateY
p2307
aVrotatePivotTranslate.rotatePivotTranslateZ
p2308
asS'isMulti'
p2309
I00
sS'isCompound'
p2310
I01
sg51
I01
sg52
Vrpt
p2311
sg14
(lp2312
VrotatePivotTranslate.rotatePivotTranslateX
p2313
aVrotatePivotTranslate.rotatePivotTranslateY
p2314
aVrotatePivotTranslate.rotatePivotTranslateZ
p2315
asS'isElement'
p2316
I00
ssVisHierarchicalConnection[0]
p2317
(dp2318
g158
I00
sg52
Vish[0]
p2319
sg163
I00
sg165
(lp2320
ssVshowManipDefault
p2321
(dp2322
S'isArray'
p2323
I00
sg47
Venum
p2324
sS'attrChildrenNames'
p2325
(lp2326
sS'isMulti'
p2327
I00
sS'isCompound'
p2328
I00
sg51
I01
sg52
Vsmd
p2329
sg14
(lp2330
sS'isElement'
p2331
I00
ssVinstObjGroups.objectGroups.objectGroupId
p2332
(dp2333
S'attrParentLongName'
p2334
VinstObjGroups.objectGroups
p2335
sS'isElement'
p2336
I00
ssVminScaleLimitEnable
p2337
(dp2338
g158
I00
sg159
VTdataCompound
p2339
sg161
I00
sg163
I00
sg52
Vmsle
p2340
sg165
(lp2341
VminScaleLimitEnable.minScaleXLimitEnable
p2342
ag999
ag1929
assVmentalRayControls.miDeriveFromMaya
p2343
(dp2344
S'isArray'
p2345
I00
sS'attrParentLongName'
p2346
VmentalRayControls
p2347
sS'attrChildrenNames'
p2348
(lp2349
sg47
Vbool
p2350
sS'isMulti'
p2351
I00
sS'isCompound'
p2352
I00
sg51
I01
sg52
Vdfm
p2353
sg14
(lp2354
sS'isElement'
p2355
I00
ssVworldMatrix[6]
p2356
(dp2357
g19
I00
sg20
I00
sg21
(lp2358
sg23
I00
sg24
Nssg1152
(dp2359
g158
I00
sg159
VdoubleLinear
p2360
sg161
I00
sg162
I00
sg163
I01
sg52
Vxtxl
p2361
sg165
(lp2362
ssVdrawOverride.overrideDisplayType
p2363
(dp2364
S'isArray'
p2365
I00
sS'attrParentLongName'
p2366
VdrawOverride
p2367
sS'attrChildrenNames'
p2368
(lp2369
sg47
Venum
p2370
sS'isMulti'
p2371
I00
sS'isCompound'
p2372
I00
sg51
I01
sg52
Vovdt
p2373
sg14
(lp2374
sS'isElement'
p2375
I00
ssg2162
(dp2376
g158
I00
sg159
Vbool
p2377
sg161
I00
sg162
I00
sg163
I01
sg52
Vxsxe
p2378
sg165
(lp2379
ssVisCollapsed
p2380
(dp2381
S'isArray'
p2382
I00
sg47
Vbool
p2383
sS'attrChildrenNames'
p2384
(lp2385
sS'isMulti'
p2386
I00
sS'isCompound'
p2387
I00
sg51
I01
sg52
Visc
p2388
sg14
(lp2389
sS'isElement'
p2390
I00
ssVnodeState
p2391
(dp2392
S'isArray'
p2393
I00
sg47
Venum
p2394
sS'attrChildrenNames'
p2395
(lp2396
sS'isMulti'
p2397
I00
sS'isCompound'
p2398
I00
sg51
I01
sg52
Vnds
p2399
sg14
(lp2400
sS'isElement'
p2401
I00
ssVpublishedNodeInfo.isHierarchicalNode
p2402
(dp2403
g1130
VpublishedNodeInfo
p2404
ssVparentInverseMatrix[14]
p2405
(dp2406
g254
I00
sg76
I00
sg255
(lp2407
sg79
I00
sg80
NssVparentInverseMatrix[5]
p2408
(dp2409
g19
I00
sg83
I00
sg21
(lp2410
sg85
I00
sg86
NssVboundingBox.boundingBoxSize.boundingBoxSizeX
p2411
(dp2412
S'isArray'
p2413
I00
sS'attrParentLongName'
p2414
VboundingBox.boundingBoxSize
p2415
sS'attrChildrenNames'
p2416
(lp2417
sg47
VdoubleLinear
p2418
sS'isMulti'
p2419
I00
sS'isCompound'
p2420
I00
sg51
I01
sg14
(lp2421
sS'isElement'
p2422
I00
ssVrenderLayerInfo[0].renderLayerColor
p2423
(dp2424
S'isArray'
p2425
I00
sS'attrParentLongName'
p2426
VrenderLayerInfo[0]
p2427
sS'attrChildrenNames'
p2428
(lp2429
sg71
I00
sg52
Vrlio[0].rlc
p2430
sg14
(lp2431
sS'isElement'
p2432
I00
ssVboundingBox.boundingBoxSize.boundingBoxSizeY
p2433
(dp2434
S'isArray'
p2435
I00
sS'attrParentLongName'
p2436
VboundingBox.boundingBoxSize
p2437
sS'attrChildrenNames'
p2438
(lp2439
sg47
VdoubleLinear
p2440
sS'isMulti'
p2441
I00
sS'isCompound'
p2442
I00
sg51
I01
sg14
(lp2443
sS'isElement'
p2444
I00
ssVghostRangeStart
p2445
(dp2446
S'isArray'
p2447
I00
sg47
Vtime
p2448
sS'attrChildrenNames'
p2449
(lp2450
sS'isMulti'
p2451
I00
sS'isCompound'
p2452
I00
sg51
I01
sg52
Vgrs
p2453
sg14
(lp2454
sS'isElement'
p2455
I00
ssVrenderLayerInfo[1]
p2456
(dp2457
g834
I00
sg14
(lp2458
g689
aVrenderLayerInfo[1].renderLayerRenderable
p2459
ag1334
asg839
(lp2460
VrenderLayerInfo[1].renderLayerId
p2461
aVrenderLayerInfo[1].renderLayerRenderable
p2462
aVrenderLayerInfo[1].renderLayerColor
p2463
asg71
I00
sg52
Vrlio[1]
p2464
ssVworldInverseMatrix[11]
p2465
(dp2466
g75
I00
sg212
I00
sg77
(lp2467
sg214
I00
sg215
NssVparentMatrix[7]
p2468
(dp2469
g19
I00
sg20
I00
sg21
(lp2470
sg23
I00
sg24
NssVdrawOverride.overridePlayback
p2471
(dp2472
S'isArray'
p2473
I00
sS'attrParentLongName'
p2474
VdrawOverride
p2475
sS'attrChildrenNames'
p2476
(lp2477
sg47
Vbool
p2478
sS'isMulti'
p2479
I00
sS'isCompound'
p2480
I00
sg51
I01
sg52
Vovp
p2481
sg14
(lp2482
sS'isElement'
p2483
I00
ssVworldMatrix[12]
p2484
(dp2485
g75
I00
sg76
I00
sg77
(lp2486
sg79
I00
sg80
NssVminRotLimitEnable
p2487
(dp2488
g158
I00
sg159
VTdataCompound
p2489
sg161
I00
sg163
I00
sg52
Vmrle
p2490
sg165
(lp2491
g360
ag2174
ag221
assVrenderInfo
p2492
(dp2493
S'isArray'
p2494
I00
sg47
VTdataCompound
p2495
sS'attrChildrenNames'
p2496
(lp2497
VrenderInfo.identification
p2498
aVrenderInfo.layerRenderable
p2499
aVrenderInfo.layerOverrideColor
p2500
asS'isMulti'
p2501
I00
sS'isCompound'
p2502
I01
sg51
I00
sg52
Vri
p2503
sg14
(lp2504
VrenderInfo.identification
p2505
aVrenderInfo.layerRenderable
p2506
aVrenderInfo.layerOverrideColor
p2507
asS'isElement'
p2508
I00
ssVrenderLayerInfo
p2509
(dp2510
S'isArray'
p2511
I01
sg47
VTdataCompound
p2512
sS'isMulti'
p2513
I01
sg51
I00
sg52
Vrlio
p2514
sS'isElement'
p2515
I00
ssVworldInverseMatrix
p2516
(dp2517
S'isArray'
p2518
I01
sS'attrType'
p2519
Vmatrix
p2520
sS'attrChildrenNames'
p2521
(lp2522
sS'isMulti'
p2523
I01
sg10
I00
sg11
Vwim
p2524
sS'isReadable'
p2525
I00
sS'isElement'
p2526
I00
ssVworldMatrix[1]
p2527
(dp2528
g551
I00
sg552
Nsg553
(lp2529
sg83
I00
sg85
I00
sg11
Vwm[1]
p2530
sg556
I00
sg14
(lp2531
ssVinstObjGroups[0].objectGroups[0].objectGrpCompList
p2532
(dp2533
S'isArray'
p2534
I00
sS'attrParentLongName'
p2535
VinstObjGroups[0].objectGroups[0]
p2536
sS'attrChildrenNames'
p2537
(lp2538
sg71
I00
sg52
Viog[0].og[0].gcl
p2539
sg14
(lp2540
sS'isElement'
p2541
I00
ssVworldInverseMatrix[3]
p2542
(dp2543
g19
I00
sg83
I00
sg21
(lp2544
sg85
I00
sg86
NssVscalePivotTranslate.scalePivotTranslateZ
p2545
(dp2546
S'isArray'
p2547
I00
sS'attrParentLongName'
p2548
VscalePivotTranslate
p2549
sS'attrChildrenNames'
p2550
(lp2551
sg47
VdoubleLinear
p2552
sS'isMulti'
p2553
I00
sS'isCompound'
p2554
I00
sg51
I01
sg52
Vsptz
p2555
sg14
(lp2556
sS'isElement'
p2557
I00
ssVscalePivotTranslate.scalePivotTranslateX
p2558
(dp2559
S'isArray'
p2560
I00
sS'attrParentLongName'
p2561
VscalePivotTranslate
p2562
sS'attrChildrenNames'
p2563
(lp2564
sg47
VdoubleLinear
p2565
sS'isMulti'
p2566
I00
sS'isCompound'
p2567
I00
sg51
I01
sg52
Vsptx
p2568
sg14
(lp2569
sS'isElement'
p2570
I00
ssVscalePivotTranslate.scalePivotTranslateY
p2571
(dp2572
S'isArray'
p2573
I00
sS'attrParentLongName'
p2574
VscalePivotTranslate
p2575
sS'attrChildrenNames'
p2576
(lp2577
sg47
VdoubleLinear
p2578
sS'isMulti'
p2579
I00
sS'isCompound'
p2580
I00
sg51
I01
sg52
Vspty
p2581
sg14
(lp2582
sS'isElement'
p2583
I00
ssVshearXY
p2584
(dp2585
S'isArray'
p2586
I00
sS'attrParentLongName'
p2587
Vshear
p2588
sS'attrChildrenNames'
p2589
(lp2590
sS'attrType'
p2591
Vdouble
p2592
sS'isMulti'
p2593
I00
sS'isCompound'
p2594
I00
sg10
I01
sS'isReadable'
p2595
I00
sS'isElement'
p2596
I00
ssVdrawOverride.overrideShading
p2597
(dp2598
S'isArray'
p2599
I00
sS'attrParentLongName'
p2600
VdrawOverride
p2601
sS'attrChildrenNames'
p2602
(lp2603
sg47
Vbool
p2604
sS'isMulti'
p2605
I00
sS'isCompound'
p2606
I00
sg51
I01
sg52
Vovs
p2607
sg14
(lp2608
sS'isElement'
p2609
I00
ssVparentInverseMatrix[17]
p2610
(dp2611
g254
I00
sg255
(lp2612
ssVshearXZ
p2613
(dp2614
S'isArray'
p2615
I00
sS'attrParentLongName'
p2616
Vshear
p2617
sS'attrChildrenNames'
p2618
(lp2619
sS'attrType'
p2620
Vdouble
p2621
sS'isMulti'
p2622
I00
sS'isCompound'
p2623
I00
sg10
I01
sS'isReadable'
p2624
I00
sS'isElement'
p2625
I00
ssVrenderLayerInfo.renderLayerColor
p2626
(dp2627
S'attrParentLongName'
p2628
VrenderLayerInfo
p2629
sS'isElement'
p2630
I00
ssVworldMatrix[11]
p2631
(dp2632
g75
I00
sg212
I00
sg77
(lp2633
sg214
I00
sg215
Nssg2342
(dp2634
g158
I00
sg159
Vbool
p2635
sg161
I00
sg162
I00
sg163
I01
sg52
Vmsxe
p2636
sg165
(lp2637
ssVinstObjGroups[2]
p2638
(dp2639
S'isArray'
p2640
I00
sS'attrChildrenNames'
p2641
(lp2642
VinstObjGroups[2].objectGroups
p2643
asg1619
I00
sS'attrChildrenLongNames'
p2644
(lp2645
g1616
assVminTransLimitEnable
p2646
(dp2647
g158
I00
sg159
VTdataCompound
p2648
sg161
I00
sg163
I00
sg52
Vmtle
p2649
sg165
(lp2650
g1182
ag195
ag558
assVviewMode
p2651
(dp2652
S'isArray'
p2653
I00
sg47
Venum
p2654
sS'attrChildrenNames'
p2655
(lp2656
sS'isMulti'
p2657
I00
sS'isCompound'
p2658
I00
sg51
I01
sg52
Vvwm
p2659
sg14
(lp2660
sS'isElement'
p2661
I00
ssVparentInverseMatrix[2]
p2662
(dp2663
g19
I00
sg86
Nsg21
(lp2664
sg83
I00
sg85
I00
sS'attrShortName'
p2665
Vpim[2]
p2666
sS'attrChildrenLongNames'
p2667
(lp2668
ssVworldMatrix[0]
p2669
(dp2670
g551
I00
sg552
Vmatrix
p2671
sS'attrParentLongName'
p2672
VworldMatrix
p2673
sg553
(lp2674
sS'isMulti'
p2675
I00
sS'isCompound'
p2676
I00
sg85
I00
sS'attrShortName'
p2677
Vwm[0]
p2678
sg556
I00
sS'attrChildrenLongNames'
p2679
(lp2680
sS'isElement'
p2681
I01
sS'attrParentName'
p2682
VworldMatrix
p2683
ssVcenter.boundingBoxCenterX
p2684
(dp2685
S'isArray'
p2686
I00
sS'attrParentLongName'
p2687
Vcenter
p2688
sS'attrChildrenNames'
p2689
(lp2690
sg47
VdoubleLinear
p2691
sS'isMulti'
p2692
I00
sS'isCompound'
p2693
I00
sg51
I01
sg14
(lp2694
sS'isElement'
p2695
I00
ssVrotate.rotateX
p2696
(dp2697
g27
I00
sS'attrType'
p2698
VdoubleAngle
p2699
sg32
(lp2700
sS'isMulti'
p2701
I00
sg35
Nsg36
I00
sg37
I01
sg11
Vrx
p2702
sg14
(lp2703
ssVrotate.rotateY
p2704
(dp2705
g27
I00
sS'attrType'
p2706
VdoubleAngle
p2707
sg32
(lp2708
sS'isMulti'
p2709
I00
sg35
Nsg36
I00
sg37
I01
sg11
Vry
p2710
sg14
(lp2711
ssVcaching
p2712
(dp2713
S'isArray'
p2714
I00
sg47
Vbool
p2715
sS'attrChildrenNames'
p2716
(lp2717
sS'isMulti'
p2718
I00
sS'isCompound'
p2719
I00
sg51
I01
sg52
Vcch
p2720
sg14
(lp2721
sS'isElement'
p2722
I00
ssVinverseMatrix
p2723
(dp2724
S'isArray'
p2725
I00
sS'attrType'
p2726
Vmatrix
p2727
sS'attrChildrenNames'
p2728
(lp2729
sS'isMulti'
p2730
I00
sS'isCompound'
p2731
I00
sg10
I00
sg11
Vim
p2732
sS'isReadable'
p2733
I00
sg14
(lp2734
sS'isElement'
p2735
I00
ssVblackBox
p2736
(dp2737
S'isArray'
p2738
I00
sg47
Vbool
p2739
sS'attrChildrenNames'
p2740
(lp2741
sS'isMulti'
p2742
I00
sS'isCompound'
p2743
I00
sg51
I01
sg52
Vbbx
p2744
sg14
(lp2745
sS'isElement'
p2746
I00
ssVcenter.boundingBoxCenterZ
p2747
(dp2748
S'isArray'
p2749
I00
sS'attrParentLongName'
p2750
Vcenter
p2751
sS'attrChildrenNames'
p2752
(lp2753
sg47
VdoubleLinear
p2754
sS'isMulti'
p2755
I00
sS'isCompound'
p2756
I00
sg51
I01
sg14
(lp2757
sS'isElement'
p2758
I00
ssg2459
(dp2759
g69
I00
sg52
Vrlio[1].rlr
p2760
sg71
I00
sg14
(lp2761
ssVinstObjGroups[0].objectGroups[0].objectGrpColor
p2762
(dp2763
S'isArray'
p2764
I00
sS'attrParentLongName'
p2765
VinstObjGroups[0].objectGroups[0]
p2766
sS'attrChildrenNames'
p2767
(lp2768
sg71
I00
sg52
Viog[0].og[0].gco
p2769
sg14
(lp2770
sS'isElement'
p2771
I00
ssVcenter.boundingBoxCenterY
p2772
(dp2773
S'isArray'
p2774
I00
sS'attrParentLongName'
p2775
Vcenter
p2776
sS'attrChildrenNames'
p2777
(lp2778
sg47
VdoubleLinear
p2779
sS'isMulti'
p2780
I00
sS'isCompound'
p2781
I00
sg51
I01
sg14
(lp2782
sS'isElement'
p2783
I00
ss.